 dsoframer

 Timestamp is 533cf7e8 (Thu Apr 03 13:55:52 2014)

 Preferred load address is 22000000

 Start         Length     Name                   Class
 0001:00000000 000521a2H .text                   CODE
 0001:000521b0 00000463H .text$x                 CODE
 0002:00000000 000004a0H .idata$5                DATA
 0002:000004a0 00000004H .CRT$XCA                DATA
 0002:000004a4 00000004H .CRT$XCZ                DATA
 0002:000004a8 00000004H .CRT$XIA                DATA
 0002:000004ac 00000010H .CRT$XIC                DATA
 0002:000004bc 00000004H .CRT$XIZ                DATA
 0002:000004c0 00000004H .CRT$XPA                DATA
 0002:000004c4 00000008H .CRT$XPX                DATA
 0002:000004cc 00000004H .CRT$XPXA               DATA
 0002:000004d0 00000004H .CRT$XPZ                DATA
 0002:000004d4 00000004H .CRT$XTA                DATA
 0002:000004d8 00000004H .CRT$XTZ                DATA
 0002:000004e0 00013350H .rdata                  DATA
 0002:00013830 00000040H .rdata$debug            DATA
 0002:00013870 00001304H .rdata$r                DATA
 0002:00014b80 0000004cH .rdata$sxdata           DATA
 0002:00014bcc 00000004H .rtc$IAA                DATA
 0002:00014bd0 00000004H .rtc$IZZ                DATA
 0002:00014bd4 00000004H .rtc$TAA                DATA
 0002:00014bd8 00000004H .rtc$TZZ                DATA
 0002:00014be0 00000e44H .xdata$x                DATA
 0002:00015a24 000000c8H .idata$2                DATA
 0002:00015aec 00000014H .idata$3                DATA
 0002:00015b00 000004a0H .idata$4                DATA
 0002:00015fa0 00001222H .idata$6                DATA
 0002:000171d0 000000a6H .edata                  DATA
 0003:00000000 00001880H .data                   DATA
 0003:00001880 00001f40H .bss                    DATA
 0004:00000000 000001d0H .rsrc$01                DATA
 0004:000001d0 00003a28H .rsrc$02                DATA

  Address         Publics by Value              Rva+Base       Lib:Object

 0000:00000000       __except_list              00000000     <absolute>
 0000:00000013       ___safe_se_handler_count   00000013     <absolute>
 0000:00000000       ___ImageBase               22000000     <linker-defined>
 0001:00000000       ?QueryInterface@CDsoFramerClassFactory@@UAGJABU_GUID@@PAPAX@Z 22001000 f   classfactory.obj
 0001:00000080       ?AddRef@CDsoFramerClassFactory@@UAGKXZ 22001080 f   classfactory.obj
 0001:000000f0       ?Release@CDsoFramerClassFactory@@UAGKXZ 220010f0 f   classfactory.obj
 0001:000001c0       ?CreateInstance@CDsoFramerClassFactory@@UAGJPAUIUnknown@@ABU_GUID@@PAPAX@Z 220011c0 f   classfactory.obj
 0001:00000310       ?LockServer@CDsoFramerClassFactory@@UAGJH@Z 22001310 f   classfactory.obj
 0001:00000380       _==                        22001380 f i classfactory.obj
 0001:000003a0       _IsEqualGUID               220013a0 f i classfactory.obj
 0001:000003c0       ??_GCDsoFramerClassFactory@@QAEPAXI@Z 220013c0 f i classfactory.obj
 0001:000003f0       ??1CDsoFramerClassFactory@@QAE@XZ 220013f0 f i classfactory.obj
 0001:00000410       _!=                        22001410 f i classfactory.obj
 0001:00000430       ??_GCDsoFramerControl@@QAEPAXI@Z 22001430 f i classfactory.obj
 0001:00000460       ?Activate@CDsoFramerControl@@UAGJXZ 22001460 f   dsofauto.obj
 0001:000004f0       ?get_ActiveDocument@CDsoFramerControl@@UAGJPAPAUIDispatch@@@Z 220014f0 f   dsofauto.obj
 0001:000005e0       ?ExecOleCommand@CDsoFramerControl@@UAGJJUtagVARIANT@@PAU2@1@Z 220015e0 f   dsofauto.obj
 0001:00000890       ?CreateNew@CDsoFramerControl@@UAGJPA_W@Z 22001890 f   dsofauto.obj
 0001:00000dc0       ?Open@CDsoFramerControl@@UAGJUtagVARIANT@@0000@Z 22001dc0 f   dsofauto.obj
 0001:000012b0       ?Save@CDsoFramerControl@@UAGJUtagVARIANT@@000@Z 220022b0 f   dsofauto.obj
 0001:00001660       ?Close@CDsoFramerControl@@UAGJXZ 22002660 f   dsofauto.obj
 0001:000017c0       ?put_Caption@CDsoFramerControl@@UAGJPA_W@Z 220027c0 f   dsofauto.obj
 0001:00001840       ?get_Caption@CDsoFramerControl@@UAGJPAPA_W@Z 22002840 f   dsofauto.obj
 0001:00001890       ?put_Titlebar@CDsoFramerControl@@UAGJF@Z 22002890 f   dsofauto.obj
 0001:00001960       ?get_Titlebar@CDsoFramerControl@@UAGJPAF@Z 22002960 f   dsofauto.obj
 0001:000019a0       ?put_Toolbars@CDsoFramerControl@@UAGJF@Z 220029a0 f   dsofauto.obj
 0001:00001ab0       ?get_Toolbars@CDsoFramerControl@@UAGJPAF@Z 22002ab0 f   dsofauto.obj
 0001:00001af0       ?put_ModalState@CDsoFramerControl@@UAGJF@Z 22002af0 f   dsofauto.obj
 0001:00001ba0       ?get_ModalState@CDsoFramerControl@@UAGJPAF@Z 22002ba0 f   dsofauto.obj
 0001:00001be0       ?ShowDialog@CDsoFramerControl@@UAGJW4dsoShowDialogType@@@Z 22002be0 f   dsofauto.obj
 0001:00001d20       ?put_EnableFileCommand@CDsoFramerControl@@UAGJW4dsoFileCommandType@@F@Z 22002d20 f   dsofauto.obj
 0001:00001e30       ?get_EnableFileCommand@CDsoFramerControl@@UAGJW4dsoFileCommandType@@PAF@Z 22002e30 f   dsofauto.obj
 0001:00001ec0       ?put_BorderStyle@CDsoFramerControl@@UAGJW4dsoBorderStyle@@@Z 22002ec0 f   dsofauto.obj
 0001:00001f70       ?get_BorderStyle@CDsoFramerControl@@UAGJPAW4dsoBorderStyle@@@Z 22002f70 f   dsofauto.obj
 0001:00001fa0       ?put_BorderColor@CDsoFramerControl@@UAGJK@Z 22002fa0 f   dsofauto.obj
 0001:00001ff0       ?get_BorderColor@CDsoFramerControl@@UAGJPAK@Z 22002ff0 f   dsofauto.obj
 0001:00002010       ?put_BackColor@CDsoFramerControl@@UAGJK@Z 22003010 f   dsofauto.obj
 0001:00002060       ?get_BackColor@CDsoFramerControl@@UAGJPAK@Z 22003060 f   dsofauto.obj
 0001:00002080       ?put_ForeColor@CDsoFramerControl@@UAGJK@Z 22003080 f   dsofauto.obj
 0001:000020d0       ?get_ForeColor@CDsoFramerControl@@UAGJPAK@Z 220030d0 f   dsofauto.obj
 0001:000020f0       ?put_TitlebarColor@CDsoFramerControl@@UAGJK@Z 220030f0 f   dsofauto.obj
 0001:00002140       ?get_TitlebarColor@CDsoFramerControl@@UAGJPAK@Z 22003140 f   dsofauto.obj
 0001:00002160       ?put_TitlebarTextColor@CDsoFramerControl@@UAGJK@Z 22003160 f   dsofauto.obj
 0001:000021b0       ?get_TitlebarTextColor@CDsoFramerControl@@UAGJPAK@Z 220031b0 f   dsofauto.obj
 0001:000021d0       ?put_Menubar@CDsoFramerControl@@UAGJF@Z 220031d0 f   dsofauto.obj
 0001:000022b0       ?get_Menubar@CDsoFramerControl@@UAGJPAF@Z 220032b0 f   dsofauto.obj
 0001:000022f0       ?put_HostName@CDsoFramerControl@@UAGJPA_W@Z 220032f0 f   dsofauto.obj
 0001:00002390       ?get_HostName@CDsoFramerControl@@UAGJPAPA_W@Z 22003390 f   dsofauto.obj
 0001:000023e0       ?get_DocumentFullName@CDsoFramerControl@@UAGJPAPA_W@Z 220033e0 f   dsofauto.obj
 0001:00002440       ?get_DocumentName@CDsoFramerControl@@UAGJPAPA_W@Z 22003440 f   dsofauto.obj
 0001:000024a0       ?get_IsReadOnly@CDsoFramerControl@@UAGJPAF@Z 220034a0 f   dsofauto.obj
 0001:00002500       ?get_IsDirty@CDsoFramerControl@@UAGJPAF@Z 22003500 f   dsofauto.obj
 0001:00002560       ?put_LockServer@CDsoFramerControl@@UAGJF@Z 22003560 f   dsofauto.obj
 0001:000025f0       ?get_LockServer@CDsoFramerControl@@UAGJPAF@Z 220035f0 f   dsofauto.obj
 0001:00002630       ?GetDataObjectContent@CDsoFramerControl@@UAGJUtagVARIANT@@PAU2@@Z 22003630 f   dsofauto.obj
 0001:000026c0       ?SetDataObjectContent@CDsoFramerControl@@UAGJUtagVARIANT@@0@Z 220036c0 f   dsofauto.obj
 0001:00002740       ?put_ActivationPolicy@CDsoFramerControl@@UAGJW4dsoActivationPolicy@@@Z 22003740 f   dsofauto.obj
 0001:000027c0       ?get_ActivationPolicy@CDsoFramerControl@@UAGJPAW4dsoActivationPolicy@@@Z 220037c0 f   dsofauto.obj
 0001:000027e0       ?put_FrameHookPolicy@CDsoFramerControl@@UAGJW4dsoFrameHookPolicy@@@Z 220037e0 f   dsofauto.obj
 0001:000028c0       ?get_FrameHookPolicy@CDsoFramerControl@@UAGJPAW4dsoFrameHookPolicy@@@Z 220038c0 f   dsofauto.obj
 0001:000028e0       ?put_MenuAccelerators@CDsoFramerControl@@UAGJF@Z 220038e0 f   dsofauto.obj
 0001:00002920       ?get_MenuAccelerators@CDsoFramerControl@@UAGJPAF@Z 22003920 f   dsofauto.obj
 0001:00002960       ?put_EventsEnabled@CDsoFramerControl@@UAGJF@Z 22003960 f   dsofauto.obj
 0001:000029a0       ?get_EventsEnabled@CDsoFramerControl@@UAGJPAF@Z 220039a0 f   dsofauto.obj
 0001:000029e0       ?GetTypeInfoCount@CDsoFramerControl@@UAGJPAI@Z 220039e0 f   dsofauto.obj
 0001:00002a00       ?GetTypeInfo@CDsoFramerControl@@UAGJIKPAPAUITypeInfo@@@Z 22003a00 f   dsofauto.obj
 0001:00002ab0       ?GetIDsOfNames@CDsoFramerControl@@UAGJABU_GUID@@PAPA_WIKPAJ@Z 22003ab0 f   dsofauto.obj
 0001:00002b40       ?Invoke@CDsoFramerControl@@UAGJJABU_GUID@@KGPAUtagDISPPARAMS@@PAUtagVARIANT@@PAUtagEXCEPINFO@@PAI@Z 22003b40 f   dsofauto.obj
 0001:00002c60       ?ProvideErrorInfo@CDsoFramerControl@@QAGJJ@Z 22003c60 f   dsofauto.obj
 0001:00002c90       ?GetActiveObject@CDsoDocObject@@QAEPAUIOleInPlaceActiveObject@@XZ 22003c90 f i dsofauto.obj
 0001:00002cb0       ?GetOleObject@CDsoDocObject@@QAEPAUIOleObject@@XZ 22003cb0 f i dsofauto.obj
 0001:00002cd0       ?InPrintPreview@CDsoDocObject@@QAEHXZ 22003cd0 f i dsofauto.obj
 0001:00002d10       ?RedrawCaption@CDsoFramerControl@@QAIXXZ 22003d10 f i dsofauto.obj
 0001:00002dc0       ?GetSizeRectForMenuBar@CDsoFramerControl@@QAIXPAUtagRECT@@0@Z 22003dc0 f i dsofauto.obj
 0001:00002df0       ?GetSizeRectAfterTitlebar@CDsoFramerControl@@QAIXPAUtagRECT@@0@Z 22003df0 f i dsofauto.obj
 0001:00002e40       ?GetSizeRectAfterBorder@CDsoFramerControl@@QAIXPAUtagRECT@@0@Z 22003e40 f i dsofauto.obj
 0001:00002ee0       ?FDelayFrameHookSet@CDsoFramerControl@@QAIHXZ 22003ee0 f i dsofauto.obj
 0001:00002f00       ?GetSourceName@CDsoDocObject@@QAEPB_WXZ 22003f00 f i dsofauto.obj
 0001:00002f40       ?GetSourceDocName@CDsoDocObject@@QAEPB_WXZ 22003f40 f i dsofauto.obj
 0001:00002f80       ??_GCDsoDocObject@@QAEPAXI@Z 22003f80 f i dsofauto.obj
 0001:00002fb0       ?ViewChanged@CDsoFramerControl@@QAIXXZ 22003fb0 f i dsofauto.obj
 0001:00003060       ?IsReadOnly@CDsoDocObject@@QAEHXZ 22004060 f i dsofauto.obj
 0001:00003090       ??0CDsoFramerControl@@QAE@PAUIUnknown@@@Z 22004090 f   dsofcontrol.obj
 0001:00003230       ??1CDsoFramerControl@@QAE@XZ 22004230 f   dsofcontrol.obj
 0001:000035f0       ?InitializeNewInstance@CDsoFramerControl@@QAGJXZ 220045f0 f   dsofcontrol.obj
 0001:000036d0       ?InPlaceActivate@CDsoFramerControl@@QAGJJ@Z 220046d0 f   dsofcontrol.obj
 0001:00003b90       ?UIActivate@CDsoFramerControl@@QAGJH@Z 22004b90 f   dsofcontrol.obj
 0001:00003d80       ?SetInPlaceVisible@CDsoFramerControl@@QAGXH@Z 22004d80 f   dsofcontrol.obj
 0001:00003e10       ?OnDraw@CDsoFramerControl@@QAGXKPAUHDC__@@PAUtagRECT@@10H@Z 22004e10 f   dsofcontrol.obj
 0001:00004a60       ?OnDestroyWindow@CDsoFramerControl@@QAGXXZ 22005a60 f   dsofcontrol.obj
 0001:00004b40       ?OnResize@CDsoFramerControl@@QAGXXZ 22005b40 f   dsofcontrol.obj
 0001:00004bc0       ?OnMouseMove@CDsoFramerControl@@QAGXII@Z 22005bc0 f   dsofcontrol.obj
 0001:00004d60       ?OnButtonDown@CDsoFramerControl@@QAGXII@Z 22005d60 f   dsofcontrol.obj
 0001:00005140       ?OnMenuMessage@CDsoFramerControl@@QAGXIIJ@Z 22006140 f   dsofcontrol.obj
 0001:00005610       ?OnToolbarAction@CDsoFramerControl@@QAGXK@Z 22006610 f   dsofcontrol.obj
 0001:000059c0       ?FAlertUser@CDsoFramerControl@@QAGHJPA_W@Z 220069c0 f   dsofcontrol.obj
 0001:00005b50       ?EnableDropFile@CDsoFramerControl@@QAGXH@Z 22006b50 f   dsofcontrol.obj
 0001:00005bb0       ?OnDropFile@CDsoFramerControl@@QAGXPAUHDROP__@@@Z 22006bb0 f   dsofcontrol.obj
 0001:00005d70       ?OnTimer@CDsoFramerControl@@QAGXI@Z 22006d70 f   dsofcontrol.obj
 0001:00005df0       ?OnSyncPaint@CDsoFramerControl@@QAGXXZ 22006df0 f   dsofcontrol.obj
 0001:00005e60       ?OnForegroundCompChange@CDsoFramerControl@@QAGXH@Z 22006e60 f   dsofcontrol.obj
 0001:00005f30       ?OnAppActivationChange@CDsoFramerControl@@QAGXHK@Z 22006f30 f   dsofcontrol.obj
 0001:00006000       ?OnComponentActivationChange@CDsoFramerControl@@QAGXH@Z 22007000 f   dsofcontrol.obj
 0001:000061b0       ?OnCtrlFocusChange@CDsoFramerControl@@QAGXHPAUHWND__@@@Z 220071b0 f   dsofcontrol.obj
 0001:00006240       ?OnUIFocusChange@CDsoFramerControl@@QAGXH@Z 22007240 f   dsofcontrol.obj
 0001:000064e0       ?UpdateModalState@CDsoFramerControl@@QAGXHH@Z 220074e0 f   dsofcontrol.obj
 0001:00006610       ?UpdateInteractiveState@CDsoFramerControl@@QAGXH@Z 22007610 f   dsofcontrol.obj
 0001:00006750       ?OnPaletteChanged@CDsoFramerControl@@QAGXPAUHWND__@@@Z 22007750 f   dsofcontrol.obj
 0001:00006790       ?OnSysCommandMenu@CDsoFramerControl@@QAGHD@Z 22007790 f   dsofcontrol.obj
 0001:00006800       ?GetActivePopupMenu@CDsoFramerControl@@QAGPAUHMENU__@@XZ 22007800 f   dsofcontrol.obj
 0001:00006c20       ?FRunningInDesignMode@CDsoFramerControl@@QAGHXZ 22007c20 f   dsofcontrol.obj
 0001:00006d40       ?InvalidateAllChildWindows@CDsoFramerControl@@QAGHPAUHWND__@@@Z 22007d40 f   dsofcontrol.obj
 0001:00006d70       ?InvalidateAllChildWindowsCallback@CDsoFramerControl@@SGHPAUHWND__@@J@Z 22007d70 f   dsofcontrol.obj
 0001:00006dc0       ?RaiseAutomationEvent@CDsoFramerControl@@QAGJJKPAUtagVARIANT@@@Z 22007dc0 f   dsofcontrol.obj
 0001:00006eb0       ?DoDialogAction@CDsoFramerControl@@QAGJW4dsoShowDialogType@@@Z 22007eb0 f   dsofcontrol.obj
 0001:000071c0       ?SetTempServerLock@CDsoFramerControl@@QAGJH@Z 220081c0 f   dsofcontrol.obj
 0001:00007490       ?ResetFrameHook@CDsoFramerControl@@QAGJPAUHWND__@@@Z 22008490 f   dsofcontrol.obj
 0001:00007630       ?RaiseActivationEvent@CDsoFramerControl@@QAGXH@Z 22008630 f   dsofcontrol.obj
 0001:00007670       ?ControlWindowProc@CDsoFramerControl@@SGJPAUHWND__@@IIJ@Z 22008670 f   dsofcontrol.obj
 0001:00007bb0       ?QueryInterface@XInternalUnknown@CDsoFramerControl@@UAGJABU_GUID@@PAPAX@Z 22008bb0 f   dsofcontrol.obj
 0001:00007f60       ?AddRef@XInternalUnknown@CDsoFramerControl@@UAGKXZ 22008f60 f   dsofcontrol.obj
 0001:00007fa0       ?Release@XInternalUnknown@CDsoFramerControl@@UAGKXZ 22008fa0 f   dsofcontrol.obj
 0001:00008030       ?AddRef@XPersistStreamInit@CDsoFramerControl@@UAGKXZ 22009030 f   dsofcontrol.obj
 0001:00008060       ?Release@XPersistStreamInit@CDsoFramerControl@@UAGKXZ 22009060 f   dsofcontrol.obj
 0001:000080c0       ?QueryInterface@XPersistStreamInit@CDsoFramerControl@@UAGJABU_GUID@@PAPAX@Z 220090c0 f   dsofcontrol.obj
 0001:000080f0       ?GetClassID@XPersistStreamInit@CDsoFramerControl@@UAGJPAU_GUID@@@Z 220090f0 f   dsofcontrol.obj
 0001:00008130       ?IsDirty@XPersistStreamInit@CDsoFramerControl@@UAGJXZ 22009130 f   dsofcontrol.obj
 0001:00008170       ?Load@XPersistStreamInit@CDsoFramerControl@@UAGJPAUIStream@@@Z 22009170 f   dsofcontrol.obj
 0001:00008540       ?Save@XPersistStreamInit@CDsoFramerControl@@UAGJPAUIStream@@H@Z 22009540 f   dsofcontrol.obj
 0001:000088e0       ?GetSizeMax@XPersistStreamInit@CDsoFramerControl@@UAGJPAT_ULARGE_INTEGER@@@Z 220098e0 f   dsofcontrol.obj
 0001:00008900       ?InitNew@XPersistStreamInit@CDsoFramerControl@@UAGJXZ 22009900 f   dsofcontrol.obj
 0001:00008940       ?AddRef@XPersistPropertyBag@CDsoFramerControl@@UAGKXZ 22009940 f   dsofcontrol.obj
 0001:00008970       ?Release@XPersistPropertyBag@CDsoFramerControl@@UAGKXZ 22009970 f   dsofcontrol.obj
 0001:000089d0       ?QueryInterface@XPersistPropertyBag@CDsoFramerControl@@UAGJABU_GUID@@PAPAX@Z 220099d0 f   dsofcontrol.obj
 0001:00008a00       ?GetClassID@XPersistPropertyBag@CDsoFramerControl@@UAGJPAU_GUID@@@Z 22009a00 f   dsofcontrol.obj
 0001:00008a40       ?InitNew@XPersistPropertyBag@CDsoFramerControl@@UAGJXZ 22009a40 f   dsofcontrol.obj
 0001:00008a70       ?Load@XPersistPropertyBag@CDsoFramerControl@@UAGJPAUIPropertyBag@@PAUIErrorLog@@@Z 22009a70 f   dsofcontrol.obj
 0001:00008ea0       ?Save@XPersistPropertyBag@CDsoFramerControl@@UAGJPAUIPropertyBag@@HH@Z 22009ea0 f   dsofcontrol.obj
 0001:000092a0       ?AddRef@XPersistStorage@CDsoFramerControl@@UAGKXZ 2200a2a0 f   dsofcontrol.obj
 0001:000092d0       ?Release@XPersistStorage@CDsoFramerControl@@UAGKXZ 2200a2d0 f   dsofcontrol.obj
 0001:00009330       ?QueryInterface@XPersistStorage@CDsoFramerControl@@UAGJABU_GUID@@PAPAX@Z 2200a330 f   dsofcontrol.obj
 0001:00009360       ?GetClassID@XPersistStorage@CDsoFramerControl@@UAGJPAU_GUID@@@Z 2200a360 f   dsofcontrol.obj
 0001:000093a0       ?IsDirty@XPersistStorage@CDsoFramerControl@@UAGJXZ 2200a3a0 f   dsofcontrol.obj
 0001:000093e0       ?InitNew@XPersistStorage@CDsoFramerControl@@UAGJPAUIStorage@@@Z 2200a3e0 f   dsofcontrol.obj
 0001:00009490       ?Load@XPersistStorage@CDsoFramerControl@@UAGJPAUIStorage@@@Z 2200a490 f   dsofcontrol.obj
 0001:00009590       ?Save@XPersistStorage@CDsoFramerControl@@UAGJPAUIStorage@@H@Z 2200a590 f   dsofcontrol.obj
 0001:00009700       ?SaveCompleted@XPersistStorage@CDsoFramerControl@@UAGJPAUIStorage@@@Z 2200a700 f   dsofcontrol.obj
 0001:00009740       ?HandsOffStorage@XPersistStorage@CDsoFramerControl@@UAGJXZ 2200a740 f   dsofcontrol.obj
 0001:000097a0       ?AddRef@XOleObject@CDsoFramerControl@@UAGKXZ 2200a7a0 f   dsofcontrol.obj
 0001:000097d0       ?Release@XOleObject@CDsoFramerControl@@UAGKXZ 2200a7d0 f   dsofcontrol.obj
 0001:00009830       ?QueryInterface@XOleObject@CDsoFramerControl@@UAGJABU_GUID@@PAPAX@Z 2200a830 f   dsofcontrol.obj
 0001:00009860       ?SetClientSite@XOleObject@CDsoFramerControl@@UAGJPAUIOleClientSite@@@Z 2200a860 f   dsofcontrol.obj
 0001:00009930       ?GetClientSite@XOleObject@CDsoFramerControl@@UAGJPAPAUIOleClientSite@@@Z 2200a930 f   dsofcontrol.obj
 0001:00009980       ?SetHostNames@XOleObject@CDsoFramerControl@@UAGJPB_W0@Z 2200a980 f   dsofcontrol.obj
 0001:000099a0       ?Close@XOleObject@CDsoFramerControl@@UAGJK@Z 2200a9a0 f   dsofcontrol.obj
 0001:00009a60       ?SetMoniker@XOleObject@CDsoFramerControl@@UAGJKPAUIMoniker@@@Z 2200aa60 f   dsofcontrol.obj
 0001:00009a80       ?GetMoniker@XOleObject@CDsoFramerControl@@UAGJKKPAPAUIMoniker@@@Z 2200aa80 f   dsofcontrol.obj
 0001:00009ab0       ?InitFromData@XOleObject@CDsoFramerControl@@UAGJPAUIDataObject@@HK@Z 2200aab0 f   dsofcontrol.obj
 0001:00009ad0       ?GetClipboardData@XOleObject@CDsoFramerControl@@UAGJKPAPAUIDataObject@@@Z 2200aad0 f   dsofcontrol.obj
 0001:00009b00       ?DoVerb@XOleObject@CDsoFramerControl@@UAGJJPAUtagMSG@@PAUIOleClientSite@@JPAUHWND__@@PBUtagRECT@@@Z 2200ab00 f   dsofcontrol.obj
 0001:00009ba0       ?EnumVerbs@XOleObject@CDsoFramerControl@@UAGJPAPAUIEnumOLEVERB@@@Z 2200aba0 f   dsofcontrol.obj
 0001:00009bd0       ?Update@XOleObject@CDsoFramerControl@@UAGJXZ 2200abd0 f   dsofcontrol.obj
 0001:00009bf0       ?IsUpToDate@XOleObject@CDsoFramerControl@@UAGJXZ 2200abf0 f   dsofcontrol.obj
 0001:00009c10       ?GetUserClassID@XOleObject@CDsoFramerControl@@UAGJPAU_GUID@@@Z 2200ac10 f   dsofcontrol.obj
 0001:00009c50       ?GetUserType@XOleObject@CDsoFramerControl@@UAGJKPAPA_W@Z 2200ac50 f   dsofcontrol.obj
 0001:00009c80       ?SetExtent@XOleObject@CDsoFramerControl@@UAGJKPAUtagSIZE@@@Z 2200ac80 f   dsofcontrol.obj
 0001:00009de0       ?GetExtent@XOleObject@CDsoFramerControl@@UAGJKPAUtagSIZE@@@Z 2200ade0 f   dsofcontrol.obj
 0001:00009e50       ?Advise@XOleObject@CDsoFramerControl@@UAGJPAUIAdviseSink@@PAK@Z 2200ae50 f   dsofcontrol.obj
 0001:00009ec0       ?Unadvise@XOleObject@CDsoFramerControl@@UAGJK@Z 2200aec0 f   dsofcontrol.obj
 0001:00009f10       ?EnumAdvise@XOleObject@CDsoFramerControl@@UAGJPAPAUIEnumSTATDATA@@@Z 2200af10 f   dsofcontrol.obj
 0001:00009f80       ?GetMiscStatus@XOleObject@CDsoFramerControl@@UAGJKPAK@Z 2200af80 f   dsofcontrol.obj
 0001:00009fb0       ?SetColorScheme@XOleObject@CDsoFramerControl@@UAGJPAUtagLOGPALETTE@@@Z 2200afb0 f   dsofcontrol.obj
 0001:00009fd0       ?AddRef@XOleControl@CDsoFramerControl@@UAGKXZ 2200afd0 f   dsofcontrol.obj
 0001:0000a000       ?Release@XOleControl@CDsoFramerControl@@UAGKXZ 2200b000 f   dsofcontrol.obj
 0001:0000a060       ?QueryInterface@XOleControl@CDsoFramerControl@@UAGJABU_GUID@@PAPAX@Z 2200b060 f   dsofcontrol.obj
 0001:0000a090       ?GetControlInfo@XOleControl@CDsoFramerControl@@UAGJPAUtagCONTROLINFO@@@Z 2200b090 f   dsofcontrol.obj
 0001:0000a0d0       ?OnMnemonic@XOleControl@CDsoFramerControl@@UAGJPAUtagMSG@@@Z 2200b0d0 f   dsofcontrol.obj
 0001:0000a100       ?OnAmbientPropertyChange@XOleControl@CDsoFramerControl@@UAGJJ@Z 2200b100 f   dsofcontrol.obj
 0001:0000a150       ?FreezeEvents@XOleControl@CDsoFramerControl@@UAGJH@Z 2200b150 f   dsofcontrol.obj
 0001:0000a1f0       ?AddRef@XOleInplaceObject@CDsoFramerControl@@UAGKXZ 2200b1f0 f   dsofcontrol.obj
 0001:0000a220       ?Release@XOleInplaceObject@CDsoFramerControl@@UAGKXZ 2200b220 f   dsofcontrol.obj
 0001:0000a280       ?QueryInterface@XOleInplaceObject@CDsoFramerControl@@UAGJABU_GUID@@PAPAX@Z 2200b280 f   dsofcontrol.obj
 0001:0000a2b0       ?GetWindow@XOleInplaceObject@CDsoFramerControl@@UAGJPAPAUHWND__@@@Z 2200b2b0 f   dsofcontrol.obj
 0001:0000a300       ?ContextSensitiveHelp@XOleInplaceObject@CDsoFramerControl@@UAGJH@Z 2200b300 f   dsofcontrol.obj
 0001:0000a320       ?InPlaceDeactivate@XOleInplaceObject@CDsoFramerControl@@UAGJXZ 2200b320 f   dsofcontrol.obj
 0001:0000a450       ?UIDeactivate@XOleInplaceObject@CDsoFramerControl@@UAGJXZ 2200b450 f   dsofcontrol.obj
 0001:0000a520       ?SetObjectRects@XOleInplaceObject@CDsoFramerControl@@UAGJPBUtagRECT@@0@Z 2200b520 f   dsofcontrol.obj
 0001:0000a670       ?ReactivateAndUndo@XOleInplaceObject@CDsoFramerControl@@UAGJXZ 2200b670 f   dsofcontrol.obj
 0001:0000a690       ?AddRef@XOleInplaceActiveObject@CDsoFramerControl@@UAGKXZ 2200b690 f   dsofcontrol.obj
 0001:0000a6c0       ?Release@XOleInplaceActiveObject@CDsoFramerControl@@UAGKXZ 2200b6c0 f   dsofcontrol.obj
 0001:0000a720       ?QueryInterface@XOleInplaceActiveObject@CDsoFramerControl@@UAGJABU_GUID@@PAPAX@Z 2200b720 f   dsofcontrol.obj
 0001:0000a750       ?GetWindow@XOleInplaceActiveObject@CDsoFramerControl@@UAGJPAPAUHWND__@@@Z 2200b750 f   dsofcontrol.obj
 0001:0000a790       ?ContextSensitiveHelp@XOleInplaceActiveObject@CDsoFramerControl@@UAGJH@Z 2200b790 f   dsofcontrol.obj
 0001:0000a7b0       ?TranslateAcceleratorA@XOleInplaceActiveObject@CDsoFramerControl@@UAGJPAUtagMSG@@@Z 2200b7b0 f   dsofcontrol.obj
 0001:0000a9d0       ?OnFrameWindowActivate@XOleInplaceActiveObject@CDsoFramerControl@@UAGJH@Z 2200b9d0 f   dsofcontrol.obj
 0001:0000aa20       ?OnDocWindowActivate@XOleInplaceActiveObject@CDsoFramerControl@@UAGJH@Z 2200ba20 f   dsofcontrol.obj
 0001:0000aac0       ?ResizeBorder@XOleInplaceActiveObject@CDsoFramerControl@@UAGJPBUtagRECT@@PAUIOleInPlaceUIWindow@@H@Z 2200bac0 f   dsofcontrol.obj
 0001:0000aae0       ?EnableModeless@XOleInplaceActiveObject@CDsoFramerControl@@UAGJH@Z 2200bae0 f   dsofcontrol.obj
 0001:0000ab30       ?AddRef@XViewObjectEx@CDsoFramerControl@@UAGKXZ 2200bb30 f   dsofcontrol.obj
 0001:0000ab60       ?Release@XViewObjectEx@CDsoFramerControl@@UAGKXZ 2200bb60 f   dsofcontrol.obj
 0001:0000abc0       ?QueryInterface@XViewObjectEx@CDsoFramerControl@@UAGJABU_GUID@@PAPAX@Z 2200bbc0 f   dsofcontrol.obj
 0001:0000abf0       ?Draw@XViewObjectEx@CDsoFramerControl@@UAGJKJPAXPAUtagDVTARGETDEVICE@@PAUHDC__@@2PBU_RECTL@@3P6GHK@ZK@Z 2200bbf0 f   dsofcontrol.obj
 0001:0000ad70       ?GetColorSet@XViewObjectEx@CDsoFramerControl@@UAGJKJPAXPAUtagDVTARGETDEVICE@@PAUHDC__@@PAPAUtagLOGPALETTE@@@Z 2200bd70 f   dsofcontrol.obj
 0001:0000ad90       ?Freeze@XViewObjectEx@CDsoFramerControl@@UAGJKJPAXPAK@Z 2200bd90 f   dsofcontrol.obj
 0001:0000adb0       ?Unfreeze@XViewObjectEx@CDsoFramerControl@@UAGJK@Z 2200bdb0 f   dsofcontrol.obj
 0001:0000add0       ?SetAdvise@XViewObjectEx@CDsoFramerControl@@UAGJKKPAUIAdviseSink@@@Z 2200bdd0 f   dsofcontrol.obj
 0001:0000aed0       ?GetAdvise@XViewObjectEx@CDsoFramerControl@@UAGJPAK0PAPAUIAdviseSink@@@Z 2200bed0 f   dsofcontrol.obj
 0001:0000af80       ?GetExtent@XViewObjectEx@CDsoFramerControl@@UAGJKJPAUtagDVTARGETDEVICE@@PAUtagSIZE@@@Z 2200bf80 f   dsofcontrol.obj
 0001:0000afc0       ?GetRect@XViewObjectEx@CDsoFramerControl@@UAGJKPAU_RECTL@@@Z 2200bfc0 f   dsofcontrol.obj
 0001:0000b030       ?GetViewStatus@XViewObjectEx@CDsoFramerControl@@UAGJPAK@Z 2200c030 f   dsofcontrol.obj
 0001:0000b060       ?QueryHitPoint@XViewObjectEx@CDsoFramerControl@@UAGJKPBUtagRECT@@UtagPOINT@@JPAK@Z 2200c060 f   dsofcontrol.obj
 0001:0000b0b0       ?QueryHitRect@XViewObjectEx@CDsoFramerControl@@UAGJKPBUtagRECT@@0JPAK@Z 2200c0b0 f   dsofcontrol.obj
 0001:0000b100       ?GetNaturalExtent@XViewObjectEx@CDsoFramerControl@@UAGJKJPAUtagDVTARGETDEVICE@@PAUHDC__@@PAUtagExtentInfo@@PAUtagSIZE@@@Z 2200c100 f   dsofcontrol.obj
 0001:0000b120       ?AddRef@XDataObject@CDsoFramerControl@@UAGKXZ 2200c120 f   dsofcontrol.obj
 0001:0000b150       ?Release@XDataObject@CDsoFramerControl@@UAGKXZ 2200c150 f   dsofcontrol.obj
 0001:0000b1b0       ?QueryInterface@XDataObject@CDsoFramerControl@@UAGJABU_GUID@@PAPAX@Z 2200c1b0 f   dsofcontrol.obj
 0001:0000b1e0       ?GetData@XDataObject@CDsoFramerControl@@UAGJPAUtagFORMATETC@@PAUtagSTGMEDIUM@@@Z 2200c1e0 f   dsofcontrol.obj
 0001:0000b3e0       ?GetDataHere@XDataObject@CDsoFramerControl@@UAGJPAUtagFORMATETC@@PAUtagSTGMEDIUM@@@Z 2200c3e0 f   dsofcontrol.obj
 0001:0000b400       ?QueryGetData@XDataObject@CDsoFramerControl@@UAGJPAUtagFORMATETC@@@Z 2200c400 f   dsofcontrol.obj
 0001:0000b4a0       ?GetCanonicalFormatEtc@XDataObject@CDsoFramerControl@@UAGJPAUtagFORMATETC@@0@Z 2200c4a0 f   dsofcontrol.obj
 0001:0000b4c0       ?SetData@XDataObject@CDsoFramerControl@@UAGJPAUtagFORMATETC@@PAUtagSTGMEDIUM@@H@Z 2200c4c0 f   dsofcontrol.obj
 0001:0000b4e0       ?EnumFormatEtc@XDataObject@CDsoFramerControl@@UAGJKPAPAUIEnumFORMATETC@@@Z 2200c4e0 f   dsofcontrol.obj
 0001:0000b510       ?DAdvise@XDataObject@CDsoFramerControl@@UAGJPAUtagFORMATETC@@KPAUIAdviseSink@@PAK@Z 2200c510 f   dsofcontrol.obj
 0001:0000b590       ?DUnadvise@XDataObject@CDsoFramerControl@@UAGJK@Z 2200c590 f   dsofcontrol.obj
 0001:0000b5e0       ?EnumDAdvise@XDataObject@CDsoFramerControl@@UAGJPAPAUIEnumSTATDATA@@@Z 2200c5e0 f   dsofcontrol.obj
 0001:0000b630       ?AddRef@XProvideClassInfo@CDsoFramerControl@@UAGKXZ 2200c630 f   dsofcontrol.obj
 0001:0000b660       ?Release@XProvideClassInfo@CDsoFramerControl@@UAGKXZ 2200c660 f   dsofcontrol.obj
 0001:0000b6c0       ?QueryInterface@XProvideClassInfo@CDsoFramerControl@@UAGJABU_GUID@@PAPAX@Z 2200c6c0 f   dsofcontrol.obj
 0001:0000b6f0       ?GetClassInfoA@XProvideClassInfo@CDsoFramerControl@@UAGJPAPAUITypeInfo@@@Z 2200c6f0 f   dsofcontrol.obj
 0001:0000b730       ?AddRef@XConnectionPointContainer@CDsoFramerControl@@UAGKXZ 2200c730 f   dsofcontrol.obj
 0001:0000b760       ?Release@XConnectionPointContainer@CDsoFramerControl@@UAGKXZ 2200c760 f   dsofcontrol.obj
 0001:0000b7c0       ?QueryInterface@XConnectionPointContainer@CDsoFramerControl@@UAGJABU_GUID@@PAPAX@Z 2200c7c0 f   dsofcontrol.obj
 0001:0000b7f0       ?EnumConnectionPoints@XConnectionPointContainer@CDsoFramerControl@@UAGJPAPAUIEnumConnectionPoints@@@Z 2200c7f0 f   dsofcontrol.obj
 0001:0000b840       ?FindConnectionPoint@XConnectionPointContainer@CDsoFramerControl@@UAGJABU_GUID@@PAPAUIConnectionPoint@@@Z 2200c840 f   dsofcontrol.obj
 0001:0000b8b0       ?AddRef@XEnumConnectionPoints@CDsoFramerControl@@UAGKXZ 2200c8b0 f   dsofcontrol.obj
 0001:0000b8e0       ?Release@XEnumConnectionPoints@CDsoFramerControl@@UAGKXZ 2200c8e0 f   dsofcontrol.obj
 0001:0000b940       ?QueryInterface@XEnumConnectionPoints@CDsoFramerControl@@UAGJABU_GUID@@PAPAX@Z 2200c940 f   dsofcontrol.obj
 0001:0000b970       ?Next@XEnumConnectionPoints@CDsoFramerControl@@UAGJKPAPAUIConnectionPoint@@PAK@Z 2200c970 f   dsofcontrol.obj
 0001:0000ba50       ?Skip@XEnumConnectionPoints@CDsoFramerControl@@UAGJK@Z 2200ca50 f   dsofcontrol.obj
 0001:0000ba60       ?Reset@XEnumConnectionPoints@CDsoFramerControl@@UAGJXZ 2200ca60 f   dsofcontrol.obj
 0001:0000ba70       ?Clone@XEnumConnectionPoints@CDsoFramerControl@@UAGJPAPAUIEnumConnectionPoints@@@Z 2200ca70 f   dsofcontrol.obj
 0001:0000ba90       ?AddRef@XConnectionPoint@CDsoFramerControl@@UAGKXZ 2200ca90 f   dsofcontrol.obj
 0001:0000bac0       ?Release@XConnectionPoint@CDsoFramerControl@@UAGKXZ 2200cac0 f   dsofcontrol.obj
 0001:0000bb20       ?QueryInterface@XConnectionPoint@CDsoFramerControl@@UAGJABU_GUID@@PAPAX@Z 2200cb20 f   dsofcontrol.obj
 0001:0000bb50       ?GetConnectionInterface@XConnectionPoint@CDsoFramerControl@@UAGJPAU_GUID@@@Z 2200cb50 f   dsofcontrol.obj
 0001:0000bb90       ?GetConnectionPointContainer@XConnectionPoint@CDsoFramerControl@@UAGJPAPAUIConnectionPointContainer@@@Z 2200cb90 f   dsofcontrol.obj
 0001:0000bbe0       ?Advise@XConnectionPoint@CDsoFramerControl@@UAGJPAUIUnknown@@PAK@Z 2200cbe0 f   dsofcontrol.obj
 0001:0000bcb0       ?Unadvise@XConnectionPoint@CDsoFramerControl@@UAGJK@Z 2200ccb0 f   dsofcontrol.obj
 0001:0000bd20       ?EnumConnections@XConnectionPoint@CDsoFramerControl@@UAGJPAPAUIEnumConnections@@@Z 2200cd20 f   dsofcontrol.obj
 0001:0000bd40       ?AddRef@XOleCommandTarget@CDsoFramerControl@@UAGKXZ 2200cd40 f   dsofcontrol.obj
 0001:0000bd70       ?Release@XOleCommandTarget@CDsoFramerControl@@UAGKXZ 2200cd70 f   dsofcontrol.obj
 0001:0000bdd0       ?QueryInterface@XOleCommandTarget@CDsoFramerControl@@UAGJABU_GUID@@PAPAX@Z 2200cdd0 f   dsofcontrol.obj
 0001:0000be00       ?QueryStatus@XOleCommandTarget@CDsoFramerControl@@UAGJPBU_GUID@@KQAU_tagOLECMD@@PAU_tagOLECMDTEXT@@@Z 2200ce00 f   dsofcontrol.obj
 0001:0000c000       ?Exec@XOleCommandTarget@CDsoFramerControl@@UAGJPBU_GUID@@KKPAUtagVARIANT@@1@Z 2200d000 f   dsofcontrol.obj
 0001:0000c0b0       ?AddRef@XSupportErrorInfo@CDsoFramerControl@@UAGKXZ 2200d0b0 f   dsofcontrol.obj
 0001:0000c0e0       ?Release@XSupportErrorInfo@CDsoFramerControl@@UAGKXZ 2200d0e0 f   dsofcontrol.obj
 0001:0000c140       ?QueryInterface@XSupportErrorInfo@CDsoFramerControl@@UAGJABU_GUID@@PAPAX@Z 2200d140 f   dsofcontrol.obj
 0001:0000c170       ?InterfaceSupportsErrorInfo@XSupportErrorInfo@CDsoFramerControl@@UAGJABU_GUID@@@Z 2200d170 f   dsofcontrol.obj
 0001:0000c1b0       ?AddRef@XObjectSafety@CDsoFramerControl@@UAGKXZ 2200d1b0 f   dsofcontrol.obj
 0001:0000c1f0       ?Release@XObjectSafety@CDsoFramerControl@@UAGKXZ 2200d1f0 f   dsofcontrol.obj
 0001:0000c250       ?QueryInterface@XObjectSafety@CDsoFramerControl@@UAGJABU_GUID@@PAPAX@Z 2200d250 f   dsofcontrol.obj
 0001:0000c280       ?GetInterfaceSafetyOptions@XObjectSafety@CDsoFramerControl@@UAGJABU_GUID@@PAK1@Z 2200d280 f   dsofcontrol.obj
 0001:0000c2c0       ?SetInterfaceSafetyOptions@XObjectSafety@CDsoFramerControl@@UAGJABU_GUID@@KK@Z 2200d2c0 f   dsofcontrol.obj
 0001:0000c320       ?AddRef@XDsoDocObjectSite@CDsoFramerControl@@UAGKXZ 2200d320 f   dsofcontrol.obj
 0001:0000c360       ?Release@XDsoDocObjectSite@CDsoFramerControl@@UAGKXZ 2200d360 f   dsofcontrol.obj
 0001:0000c3c0       ?QueryInterface@XDsoDocObjectSite@CDsoFramerControl@@UAGJABU_GUID@@PAPAX@Z 2200d3c0 f   dsofcontrol.obj
 0001:0000c3f0       ?QueryService@XDsoDocObjectSite@CDsoFramerControl@@UAGJABU_GUID@@0PAPAX@Z 2200d3f0 f   dsofcontrol.obj
 0001:0000c4f0       ?GetWindow@XDsoDocObjectSite@CDsoFramerControl@@UAGJPAPAUHWND__@@@Z 2200d4f0 f   dsofcontrol.obj
 0001:0000c530       ?GetBorder@XDsoDocObjectSite@CDsoFramerControl@@UAGJPAUtagRECT@@@Z 2200d530 f   dsofcontrol.obj
 0001:0000c560       ?GetHostName@XDsoDocObjectSite@CDsoFramerControl@@UAGJPAPA_W@Z 2200d560 f   dsofcontrol.obj
 0001:0000c5a0       ?SysMenuCommand@XDsoDocObjectSite@CDsoFramerControl@@UAGJI@Z 2200d5a0 f   dsofcontrol.obj
 0001:0000c7f0       ?SetStatusText@XDsoDocObjectSite@CDsoFramerControl@@UAGJPB_W@Z 2200d7f0 f   dsofcontrol.obj
 0001:0000c890       ?RegisterFramerControl@CDsoFrameHookManager@@SGPAV1@PAUHWND__@@0@Z 2200d890 f   dsofcontrol.obj
 0001:0000c990       ?AddComponent@CDsoFrameHookManager@@QAGJPAUHWND__@@0@Z 2200d990 f   dsofcontrol.obj
 0001:0000ca90       ?DetachComponent@CDsoFrameHookManager@@QAGJPAUHWND__@@@Z 2200da90 f   dsofcontrol.obj
 0001:0000cc20       ?SetActiveComponent@CDsoFrameHookManager@@QAGJPAUHWND__@@@Z 2200dc20 f   dsofcontrol.obj
 0001:0000cd10       ?OnComponentNotify@CDsoFrameHookManager@@QAGJKIJ@Z 2200dd10 f   dsofcontrol.obj
 0001:0000cdb0       ?SendNotifyMessageA@CDsoFrameHookManager@@QAGHPAUHWND__@@KIJ@Z 2200ddb0 f   dsofcontrol.obj
 0001:0000ce10       ?AttachToFrameWindow@CDsoFrameWindowHook@@SGPAV1@PAUHWND__@@@Z 2200de10 f   dsofcontrol.obj
 0001:0000d000       ?Detach@CDsoFrameWindowHook@@QAGJXZ 2200e000 f   dsofcontrol.obj
 0001:0000d0e0       ?GetHookFromWindow@CDsoFrameWindowHook@@SGPAV1@PAUHWND__@@@Z 2200e0e0 f   dsofcontrol.obj
 0001:0000d120       ?HostWindowProcHook@CDsoFrameWindowHook@@SGJPAUHWND__@@IIJ@Z 2200e120 f   dsofcontrol.obj
 0001:0000d260       ?QueryInterface@CDsoFramerControl@@UAGJABU_GUID@@PAPAX@Z 2200e260 f i dsofcontrol.obj
 0001:0000d290       ?AddRef@CDsoFramerControl@@UAGKXZ 2200e290 f i dsofcontrol.obj
 0001:0000d2c0       ?Release@CDsoFramerControl@@UAGKXZ 2200e2c0 f i dsofcontrol.obj
 0001:0000d2f0       ??0XInternalUnknown@CDsoFramerControl@@QAE@XZ 2200e2f0 f i dsofcontrol.obj
 0001:0000d320       ??0IUnknown@@QAE@XZ        2200e320 f i dsofcontrol.obj
 0001:0000d330       ??1XInternalUnknown@CDsoFramerControl@@QAE@XZ 2200e330 f i dsofcontrol.obj
 0001:0000d370       ??0XPersistStreamInit@CDsoFramerControl@@QAE@XZ 2200e370 f i dsofcontrol.obj
 0001:0000d3a0       ??1XPersistStreamInit@CDsoFramerControl@@QAE@XZ 2200e3a0 f i dsofcontrol.obj
 0001:0000d3e0       ??0XPersistPropertyBag@CDsoFramerControl@@QAE@XZ 2200e3e0 f i dsofcontrol.obj
 0001:0000d410       ??1XPersistPropertyBag@CDsoFramerControl@@QAE@XZ 2200e410 f i dsofcontrol.obj
 0001:0000d450       ??0XPersistStorage@CDsoFramerControl@@QAE@XZ 2200e450 f i dsofcontrol.obj
 0001:0000d480       ??1XPersistStorage@CDsoFramerControl@@QAE@XZ 2200e480 f i dsofcontrol.obj
 0001:0000d4c0       ??0XOleObject@CDsoFramerControl@@QAE@XZ 2200e4c0 f i dsofcontrol.obj
 0001:0000d4f0       ??1XOleObject@CDsoFramerControl@@QAE@XZ 2200e4f0 f i dsofcontrol.obj
 0001:0000d530       ??0XOleControl@CDsoFramerControl@@QAE@XZ 2200e530 f i dsofcontrol.obj
 0001:0000d560       ??1XOleControl@CDsoFramerControl@@QAE@XZ 2200e560 f i dsofcontrol.obj
 0001:0000d5a0       ??0XOleInplaceObject@CDsoFramerControl@@QAE@XZ 2200e5a0 f i dsofcontrol.obj
 0001:0000d5d0       ??1XOleInplaceObject@CDsoFramerControl@@QAE@XZ 2200e5d0 f i dsofcontrol.obj
 0001:0000d610       ??0XOleInplaceActiveObject@CDsoFramerControl@@QAE@XZ 2200e610 f i dsofcontrol.obj
 0001:0000d640       ??1XOleInplaceActiveObject@CDsoFramerControl@@QAE@XZ 2200e640 f i dsofcontrol.obj
 0001:0000d680       ??0XViewObjectEx@CDsoFramerControl@@QAE@XZ 2200e680 f i dsofcontrol.obj
 0001:0000d6b0       ??1XViewObjectEx@CDsoFramerControl@@QAE@XZ 2200e6b0 f i dsofcontrol.obj
 0001:0000d6f0       ??0XDataObject@CDsoFramerControl@@QAE@XZ 2200e6f0 f i dsofcontrol.obj
 0001:0000d720       ??1XDataObject@CDsoFramerControl@@QAE@XZ 2200e720 f i dsofcontrol.obj
 0001:0000d760       ??0XProvideClassInfo@CDsoFramerControl@@QAE@XZ 2200e760 f i dsofcontrol.obj
 0001:0000d790       ??1XProvideClassInfo@CDsoFramerControl@@QAE@XZ 2200e790 f i dsofcontrol.obj
 0001:0000d7d0       ??0XConnectionPointContainer@CDsoFramerControl@@QAE@XZ 2200e7d0 f i dsofcontrol.obj
 0001:0000d800       ??1XConnectionPointContainer@CDsoFramerControl@@QAE@XZ 2200e800 f i dsofcontrol.obj
 0001:0000d840       ??0XEnumConnectionPoints@CDsoFramerControl@@QAE@XZ 2200e840 f i dsofcontrol.obj
 0001:0000d870       ??1XEnumConnectionPoints@CDsoFramerControl@@QAE@XZ 2200e870 f i dsofcontrol.obj
 0001:0000d8b0       ??0XConnectionPoint@CDsoFramerControl@@QAE@XZ 2200e8b0 f i dsofcontrol.obj
 0001:0000d8e0       ??1XConnectionPoint@CDsoFramerControl@@QAE@XZ 2200e8e0 f i dsofcontrol.obj
 0001:0000d920       ??0XOleCommandTarget@CDsoFramerControl@@QAE@XZ 2200e920 f i dsofcontrol.obj
 0001:0000d950       ??0IOleCommandTarget@@QAE@XZ 2200e950 f i dsofcontrol.obj
 0001:0000d970       ??1XOleCommandTarget@CDsoFramerControl@@QAE@XZ 2200e970 f i dsofcontrol.obj
 0001:0000d9b0       ??0XSupportErrorInfo@CDsoFramerControl@@QAE@XZ 2200e9b0 f i dsofcontrol.obj
 0001:0000d9e0       ??1XSupportErrorInfo@CDsoFramerControl@@QAE@XZ 2200e9e0 f i dsofcontrol.obj
 0001:0000da20       ??0XObjectSafety@CDsoFramerControl@@QAE@XZ 2200ea20 f i dsofcontrol.obj
 0001:0000da50       ??1XObjectSafety@CDsoFramerControl@@QAE@XZ 2200ea50 f i dsofcontrol.obj
 0001:0000da90       ??0XDsoDocObjectSite@CDsoFramerControl@@QAE@XZ 2200ea90 f i dsofcontrol.obj
 0001:0000dac0       ??0IPersistStreamInit@@QAE@XZ 2200eac0 f i dsofcontrol.obj
 0001:0000dae0       ??0IPersistPropertyBag@@QAE@XZ 2200eae0 f i dsofcontrol.obj
 0001:0000db00       ??0IPersistStorage@@QAE@XZ 2200eb00 f i dsofcontrol.obj
 0001:0000db20       ??0IOleObject@@QAE@XZ      2200eb20 f i dsofcontrol.obj
 0001:0000db40       ??0IOleControl@@QAE@XZ     2200eb40 f i dsofcontrol.obj
 0001:0000db60       ??0IOleInPlaceObject@@QAE@XZ 2200eb60 f i dsofcontrol.obj
 0001:0000db80       ??0IOleWindow@@QAE@XZ      2200eb80 f i dsofcontrol.obj
 0001:0000dba0       ??0IOleInPlaceActiveObject@@QAE@XZ 2200eba0 f i dsofcontrol.obj
 0001:0000dbc0       ??0IViewObjectEx@@QAE@XZ   2200ebc0 f i dsofcontrol.obj
 0001:0000dbe0       ??0IDataObject@@QAE@XZ     2200ebe0 f i dsofcontrol.obj
 0001:0000dc00       ??0IProvideClassInfo@@QAE@XZ 2200ec00 f i dsofcontrol.obj
 0001:0000dc20       ??0IConnectionPointContainer@@QAE@XZ 2200ec20 f i dsofcontrol.obj
 0001:0000dc40       ??0IEnumConnectionPoints@@QAE@XZ 2200ec40 f i dsofcontrol.obj
 0001:0000dc60       ??0IConnectionPoint@@QAE@XZ 2200ec60 f i dsofcontrol.obj
 0001:0000dc80       ??0ISupportErrorInfo@@QAE@XZ 2200ec80 f i dsofcontrol.obj
 0001:0000dca0       ??0IObjectSafety@@QAE@XZ   2200eca0 f i dsofcontrol.obj
 0001:0000dcc0       ??0IDsoDocObjectSite@@QAE@XZ 2200ecc0 f i dsofcontrol.obj
 0001:0000dce0       ??0IServiceProvider@@QAE@XZ 2200ece0 f i dsofcontrol.obj
 0001:0000dd00       ??0IPersist@@QAE@XZ        2200ed00 f i dsofcontrol.obj
 0001:0000dd20       ??0IViewObject2@@QAE@XZ    2200ed20 f i dsofcontrol.obj
 0001:0000dd40       ??0IViewObject@@QAE@XZ     2200ed40 f i dsofcontrol.obj
 0001:0000dd60       ??0_FramerControl@@QAE@XZ  2200ed60 f i dsofcontrol.obj
 0001:0000dd80       ??0IDispatch@@QAE@XZ       2200ed80 f i dsofcontrol.obj
 0001:0000dda0       ??1XDsoDocObjectSite@CDsoFramerControl@@QAE@XZ 2200eda0 f i dsofcontrol.obj
 0001:0000dde0       ?FUseFrameHook@CDsoFramerControl@@QAIHXZ 2200ede0 f i dsofcontrol.obj
 0001:0000de00       ?GetSizeRectForDocument@CDsoFramerControl@@QAIXPAUtagRECT@@0@Z 2200ee00 f i dsofcontrol.obj
 0001:0000de60       ?FDrawBitmapOnAppDeactive@CDsoFramerControl@@QAIHXZ 2200ee60 f i dsofcontrol.obj
 0001:0000de80       ?FIPDeactivateOnCompChange@CDsoFramerControl@@QAIHXZ 2200ee80 f i dsofcontrol.obj
 0001:0000dea0       ?FChangeObjActiveOnFocusChange@CDsoFramerControl@@QAIHXZ 2200eea0 f i dsofcontrol.obj
 0001:0000dec0       ?GetMenuHWND@CDsoDocObject@@QAEPAUHWND__@@XZ 2200eec0 f i dsofcontrol.obj
 0001:0000dee0       ?GetMergedMenu@CDsoDocObject@@QAEPAUHMENU__@@XZ 2200eee0 f i dsofcontrol.obj
 0001:0000df00       ?GetDocWindow@CDsoDocObject@@QAEPAUHWND__@@XZ 2200ef00 f i dsofcontrol.obj
 0001:0000df20       ?IsIPActive@CDsoDocObject@@QAEHXZ 2200ef20 f i dsofcontrol.obj
 0001:0000df40       ?GetActiveMenu@CDsoDocObject@@QAEPAUHMENU__@@XZ 2200ef40 f i dsofcontrol.obj
 0001:0000df60       ?SetMergedMenu@CDsoDocObject@@QAEXPAUHMENU__@@@Z 2200ef60 f i dsofcontrol.obj
 0001:0000df80       ?GetServerCLSID@CDsoDocObject@@QAEPAU_GUID@@XZ 2200ef80 f i dsofcontrol.obj
 0001:0000dfa0       ?IsExcelObject@CDsoDocObject@@QAEHXZ 2200efa0 f i dsofcontrol.obj
 0001:0000e050       ?OnWindowEnable@CDsoFramerControl@@QAGXH@Z 2200f050 f i dsofcontrol.obj
 0001:0000e0a0       ??0CDsoFrameHookManager@@QAE@XZ 2200f0a0 f i dsofcontrol.obj
 0001:0000e0e0       ?GetActiveComponentWindow@CDsoFrameHookManager@@QAGPAUHWND__@@XZ 2200f0e0 f i dsofcontrol.obj
 0001:0000e100       ??_GCDsoFrameHookManager@@QAEPAXI@Z 2200f100 f i dsofcontrol.obj
 0001:0000e130       ??1CDsoFrameHookManager@@QAE@XZ 2200f130 f i dsofcontrol.obj
 0001:0000e150       ??0CDsoFrameWindowHook@@QAE@XZ 2200f150 f i dsofcontrol.obj
 0001:0000e190       ?AddRef@CDsoFrameWindowHook@@QAGXXZ 2200f190 f i dsofcontrol.obj
 0001:0000e1b0       ??_GCDsoFrameWindowHook@@QAEPAXI@Z 2200f1b0 f i dsofcontrol.obj
 0001:0000e1e0       ??1CDsoFrameWindowHook@@QAE@XZ 2200f1e0 f i dsofcontrol.obj
 0001:0000e200       ??0CDsoDocObject@@QAE@XZ   2200f200 f   dsofdocobj.obj
 0001:0000e300       ??1CDsoDocObject@@QAE@XZ   2200f300 f   dsofdocobj.obj
 0001:0000e530       ?CreateInstance@CDsoDocObject@@SGPAV1@PAUIDsoDocObjectSite@@@Z 2200f530 f   dsofdocobj.obj
 0001:0000e5f0       ?InitializeNewInstance@CDsoDocObject@@QAGJPAUIDsoDocObjectSite@@@Z 2200f5f0 f   dsofdocobj.obj
 0001:0000e880       ?CreateDocObject@CDsoDocObject@@QAGJABU_GUID@@@Z 2200f880 f   dsofdocobj.obj
 0001:0000eb70       ?CreateDocObject@CDsoDocObject@@QAGJPAUIStorage@@@Z 2200fb70 f   dsofdocobj.obj
 0001:0000ec60       ?CreateFromFile@CDsoDocObject@@QAGJPA_WABU_GUID@@PAUtagBIND_OPTS@@@Z 2200fc60 f   dsofdocobj.obj
 0001:0000f180       ?CreateFromURL@CDsoDocObject@@QAGJPA_WABU_GUID@@PAUtagBIND_OPTS@@00@Z 22010180 f   dsofdocobj.obj
 0001:0000f3e0       ?CreateFromRunningObject@CDsoDocObject@@QAGJPAUIUnknown@@PA_WPAUtagBIND_OPTS@@@Z 220103e0 f   dsofdocobj.obj
 0001:0000f590       ?IPActivateView@CDsoDocObject@@QAGJXZ 22010590 f   dsofdocobj.obj
 0001:0000f770       ?IPDeactivateView@CDsoDocObject@@QAGJXZ 22010770 f   dsofdocobj.obj
 0001:0000f8f0       ?UIActivateView@CDsoDocObject@@QAGJXZ 220108f0 f   dsofdocobj.obj
 0001:0000f9d0       ?UIDeactivateView@CDsoDocObject@@QAGJXZ 220109d0 f   dsofdocobj.obj
 0001:0000fa20       ?IsDirty@CDsoDocObject@@QAGHXZ 22010a20 f   dsofdocobj.obj
 0001:0000faf0       ?Save@CDsoDocObject@@QAGJXZ 22010af0 f   dsofdocobj.obj
 0001:0000fb50       ?SaveToFile@CDsoDocObject@@QAGJPA_WH@Z 22010b50 f   dsofdocobj.obj
 0001:000101f0       ?SaveToURL@CDsoDocObject@@QAGJPA_WH00@Z 220111f0 f   dsofdocobj.obj
 0001:00010560       ?DoOleCommand@CDsoDocObject@@QAGJKKPAUtagVARIANT@@0@Z 22011560 f   dsofdocobj.obj
 0001:00010770       ?Close@CDsoDocObject@@QAGJXZ 22011770 f   dsofdocobj.obj
 0001:00010b50       ?OnNotifySizeChange@CDsoDocObject@@QAGXPAUtagRECT@@@Z 22011b50 f   dsofdocobj.obj
 0001:00010cd0       ?OnNotifyAppActivate@CDsoDocObject@@QAGXHK@Z 22011cd0 f   dsofdocobj.obj
 0001:00010d40       ?OnNotifyControlFocus@CDsoDocObject@@QAGXH@Z 22011d40 f   dsofdocobj.obj
 0001:00010db0       ?OnNotifyPaletteChanged@CDsoDocObject@@QAGXPAUHWND__@@@Z 22011db0 f   dsofdocobj.obj
 0001:00010df0       ?OnNotifyChangeToolState@CDsoDocObject@@QAGXH@Z 22011df0 f   dsofdocobj.obj
 0001:00011000       ?InstantiateDocObjectServer@CDsoDocObject@@IAGJABU_GUID@@PAPAUIOleObject@@@Z 22012000 f   dsofdocobj.obj
 0001:00011090       ?CreateObjectStorage@CDsoDocObject@@IAGJABU_GUID@@@Z 22012090 f   dsofdocobj.obj
 0001:000111f0       ?SaveObjectStorage@CDsoDocObject@@IAGJXZ 220121f0 f   dsofdocobj.obj
 0001:00011320       ?SaveDocToMoniker@CDsoDocObject@@IAGJPAUIMoniker@@PAUIBindCtx@@H@Z 22012320 f   dsofdocobj.obj
 0001:00011400       ?SaveDocToFile@CDsoDocObject@@IAGJPA_WH@Z 22012400 f   dsofdocobj.obj
 0001:00011590       ?ValidateDocObjectServer@CDsoDocObject@@IAGJABU_GUID@@@Z 22012590 f   dsofdocobj.obj
 0001:00011670       ?GetDocumentTypeAndFileExtension@CDsoDocObject@@QAGHPAPA_W0@Z 22012670 f   dsofdocobj.obj
 0001:00011a10       ?ValidateFileExtension@CDsoDocObject@@IAGHPA_WPAPA_W@Z 22012a10 f   dsofdocobj.obj
 0001:00011b00       ?EnsureOleServerRunning@CDsoDocObject@@IAGJH@Z 22012b00 f   dsofdocobj.obj
 0001:00011d10       ?FreeRunningLock@CDsoDocObject@@IAGXXZ 22012d10 f   dsofdocobj.obj
 0001:00011e00       ?SetRunningServerLock@CDsoDocObject@@QAGJH@Z 22012e00 f   dsofdocobj.obj
 0001:00012010       ?CreateIPPBindResource@CDsoDocObject@@IAGPAUIUnknown@@XZ 22013010 f   dsofdocobj.obj
 0001:00012250       ?IPPDownloadWebResource@CDsoDocObject@@IAGJPA_W0PAPAUIStream@@@Z 22013250 f   dsofdocobj.obj
 0001:00012540       ?IPPUploadWebResource@CDsoDocObject@@IAGJPA_WPAPAUIStream@@0H@Z 22013540 f   dsofdocobj.obj
 0001:00012890       ?TurnOffWebToolbar@CDsoDocObject@@IAGXH@Z 22013890 f   dsofdocobj.obj
 0001:00012a90       ?ClearMergedMenu@CDsoDocObject@@IAGXXZ 22013a90 f   dsofdocobj.obj
 0001:00012b10       ?CalcDocNameIndex@CDsoDocObject@@IAGKPB_W@Z 22013b10 f   dsofdocobj.obj
 0001:00012b90       ?OnDraw@CDsoDocObject@@IAGXKPAUHDC__@@PAUtagRECT@@10H@Z 22013b90 f   dsofdocobj.obj
 0001:00012ba0       ?QueryInterface@CDsoDocObject@@UAGJABU_GUID@@PAPAX@Z 22013ba0 f   dsofdocobj.obj
 0001:00012d90       ?AddRef@CDsoDocObject@@UAGKXZ 22013d90 f   dsofdocobj.obj
 0001:00012e00       ?Release@CDsoDocObject@@UAGKXZ 22013e00 f   dsofdocobj.obj
 0001:00012e70       ?AddRef@XOleClientSite@CDsoDocObject@@UAGKXZ 22013e70 f   dsofdocobj.obj
 0001:00012ea0       ?Release@XOleClientSite@CDsoDocObject@@UAGKXZ 22013ea0 f   dsofdocobj.obj
 0001:00012f00       ?QueryInterface@XOleClientSite@CDsoDocObject@@UAGJABU_GUID@@PAPAX@Z 22013f00 f   dsofdocobj.obj
 0001:00012f30       ?SaveObject@XOleClientSite@CDsoDocObject@@UAGJXZ 22013f30 f   dsofdocobj.obj
 0001:00012f50       ?GetMoniker@XOleClientSite@CDsoDocObject@@UAGJKKPAPAUIMoniker@@@Z 22013f50 f   dsofdocobj.obj
 0001:00013020       ?GetContainer@XOleClientSite@CDsoDocObject@@UAGJPAPAUIOleContainer@@@Z 22014020 f   dsofdocobj.obj
 0001:00013050       ?ShowObject@XOleClientSite@CDsoDocObject@@UAGJXZ 22014050 f   dsofdocobj.obj
 0001:00013070       ?OnShowWindow@XOleClientSite@CDsoDocObject@@UAGJH@Z 22014070 f   dsofdocobj.obj
 0001:00013090       ?RequestNewObjectLayout@XOleClientSite@CDsoDocObject@@UAGJXZ 22014090 f   dsofdocobj.obj
 0001:000130b0       ?AddRef@XOleInPlaceSite@CDsoDocObject@@UAGKXZ 220140b0 f   dsofdocobj.obj
 0001:000130e0       ?Release@XOleInPlaceSite@CDsoDocObject@@UAGKXZ 220140e0 f   dsofdocobj.obj
 0001:00013140       ?QueryInterface@XOleInPlaceSite@CDsoDocObject@@UAGJABU_GUID@@PAPAX@Z 22014140 f   dsofdocobj.obj
 0001:00013170       ?GetWindow@XOleInPlaceSite@CDsoDocObject@@UAGJPAPAUHWND__@@@Z 22014170 f   dsofdocobj.obj
 0001:000131b0       ?ContextSensitiveHelp@XOleInPlaceSite@CDsoDocObject@@UAGJH@Z 220141b0 f   dsofdocobj.obj
 0001:000131d0       ?CanInPlaceActivate@XOleInPlaceSite@CDsoDocObject@@UAGJXZ 220141d0 f   dsofdocobj.obj
 0001:000131f0       ?OnInPlaceActivate@XOleInPlaceSite@CDsoDocObject@@UAGJXZ 220141f0 f   dsofdocobj.obj
 0001:00013270       ?OnUIActivate@XOleInPlaceSite@CDsoDocObject@@UAGJXZ 22014270 f   dsofdocobj.obj
 0001:000132d0       ?GetWindowContext@XOleInPlaceSite@CDsoDocObject@@UAGJPAPAUIOleInPlaceFrame@@PAPAUIOleInPlaceUIWindow@@PAUtagRECT@@2PAUtagOIFI@@@Z 220142d0 f   dsofdocobj.obj
 0001:000133a0       ?Scroll@XOleInPlaceSite@CDsoDocObject@@UAGJUtagSIZE@@@Z 220143a0 f   dsofdocobj.obj
 0001:000133c0       ?OnUIDeactivate@XOleInPlaceSite@CDsoDocObject@@UAGJH@Z 220143c0 f   dsofdocobj.obj
 0001:00013420       ?OnInPlaceDeactivate@XOleInPlaceSite@CDsoDocObject@@UAGJXZ 22014420 f   dsofdocobj.obj
 0001:000134d0       ?DiscardUndoState@XOleInPlaceSite@CDsoDocObject@@UAGJXZ 220144d0 f   dsofdocobj.obj
 0001:000134f0       ?DeactivateAndUndo@XOleInPlaceSite@CDsoDocObject@@UAGJXZ 220144f0 f   dsofdocobj.obj
 0001:00013540       ?OnPosRectChange@XOleInPlaceSite@CDsoDocObject@@UAGJPBUtagRECT@@@Z 22014540 f   dsofdocobj.obj
 0001:00013560       ?AddRef@XOleDocumentSite@CDsoDocObject@@UAGKXZ 22014560 f   dsofdocobj.obj
 0001:00013590       ?Release@XOleDocumentSite@CDsoDocObject@@UAGKXZ 22014590 f   dsofdocobj.obj
 0001:000135f0       ?QueryInterface@XOleDocumentSite@CDsoDocObject@@UAGJABU_GUID@@PAPAX@Z 220145f0 f   dsofdocobj.obj
 0001:00013620       ?ActivateMe@XOleDocumentSite@CDsoDocObject@@UAGJPAUIOleDocumentView@@@Z 22014620 f   dsofdocobj.obj
 0001:00013820       ?AddRef@XOleInPlaceFrame@CDsoDocObject@@UAGKXZ 22014820 f   dsofdocobj.obj
 0001:00013850       ?Release@XOleInPlaceFrame@CDsoDocObject@@UAGKXZ 22014850 f   dsofdocobj.obj
 0001:000138b0       ?QueryInterface@XOleInPlaceFrame@CDsoDocObject@@UAGJABU_GUID@@PAPAX@Z 220148b0 f   dsofdocobj.obj
 0001:000138e0       ?GetWindow@XOleInPlaceFrame@CDsoDocObject@@UAGJPAPAUHWND__@@@Z 220148e0 f   dsofdocobj.obj
 0001:00013920       ?ContextSensitiveHelp@XOleInPlaceFrame@CDsoDocObject@@UAGJH@Z 22014920 f   dsofdocobj.obj
 0001:00013960       ?GetBorder@XOleInPlaceFrame@CDsoDocObject@@UAGJPAUtagRECT@@@Z 22014960 f   dsofdocobj.obj
 0001:00013a20       ?RequestBorderSpace@XOleInPlaceFrame@CDsoDocObject@@UAGJPBUtagRECT@@@Z 22014a20 f   dsofdocobj.obj
 0001:00013aa0       ?SetBorderSpace@XOleInPlaceFrame@CDsoDocObject@@UAGJPBUtagRECT@@@Z 22014aa0 f   dsofdocobj.obj
 0001:00013bf0       ?SetActiveObject@XOleInPlaceFrame@CDsoDocObject@@UAGJPAUIOleInPlaceActiveObject@@PB_W@Z 22014bf0 f   dsofdocobj.obj
 0001:00013cd0       ?InsertMenus@XOleInPlaceFrame@CDsoDocObject@@UAGJPAUHMENU__@@PAUtagOleMenuGroupWidths@@@Z 22014cd0 f   dsofdocobj.obj
 0001:00013cf0       ?SetMenu@XOleInPlaceFrame@CDsoDocObject@@UAGJPAUHMENU__@@PAXPAUHWND__@@@Z 22014cf0 f   dsofdocobj.obj
 0001:00013da0       ?RemoveMenus@XOleInPlaceFrame@CDsoDocObject@@UAGJPAUHMENU__@@@Z 22014da0 f   dsofdocobj.obj
 0001:00013dc0       ?SetStatusText@XOleInPlaceFrame@CDsoDocObject@@UAGJPB_W@Z 22014dc0 f   dsofdocobj.obj
 0001:00013e70       ?EnableModeless@XOleInPlaceFrame@CDsoDocObject@@UAGJH@Z 22014e70 f   dsofdocobj.obj
 0001:00013f10       ?TranslateAcceleratorA@XOleInPlaceFrame@CDsoDocObject@@UAGJPAUtagMSG@@G@Z 22014f10 f   dsofdocobj.obj
 0001:00013f30       ?AddRef@XOleCommandTarget@CDsoDocObject@@UAGKXZ 22014f30 f   dsofdocobj.obj
 0001:00013f60       ?Release@XOleCommandTarget@CDsoDocObject@@UAGKXZ 22014f60 f   dsofdocobj.obj
 0001:00013fc0       ?QueryInterface@XOleCommandTarget@CDsoDocObject@@UAGJABU_GUID@@PAPAX@Z 22014fc0 f   dsofdocobj.obj
 0001:00013ff0       ?QueryStatus@XOleCommandTarget@CDsoDocObject@@UAGJPBU_GUID@@KQAU_tagOLECMD@@PAU_tagOLECMDTEXT@@@Z 22014ff0 f   dsofdocobj.obj
 0001:00014040       ?Exec@XOleCommandTarget@CDsoDocObject@@UAGJPBU_GUID@@KKPAUtagVARIANT@@1@Z 22015040 f   dsofdocobj.obj
 0001:000140a0       ?AddRef@XServiceProvider@CDsoDocObject@@UAGKXZ 220150a0 f   dsofdocobj.obj
 0001:000140d0       ?Release@XServiceProvider@CDsoDocObject@@UAGKXZ 220150d0 f   dsofdocobj.obj
 0001:00014130       ?QueryInterface@XServiceProvider@CDsoDocObject@@UAGJABU_GUID@@PAPAX@Z 22015130 f   dsofdocobj.obj
 0001:00014160       ?QueryService@XServiceProvider@CDsoDocObject@@UAGJABU_GUID@@0PAPAX@Z 22015160 f   dsofdocobj.obj
 0001:000141b0       ?AddRef@XAuthenticate@CDsoDocObject@@UAGKXZ 220151b0 f   dsofdocobj.obj
 0001:000141e0       ?Release@XAuthenticate@CDsoDocObject@@UAGKXZ 220151e0 f   dsofdocobj.obj
 0001:00014240       ?QueryInterface@XAuthenticate@CDsoDocObject@@UAGJABU_GUID@@PAPAX@Z 22015240 f   dsofdocobj.obj
 0001:00014270       ?Authenticate@XAuthenticate@CDsoDocObject@@UAGJPAPAUHWND__@@PAPA_W1@Z 22015270 f   dsofdocobj.obj
 0001:00014300       ?AddRef@XContinueCallback@CDsoDocObject@@UAGKXZ 22015300 f   dsofdocobj.obj
 0001:00014330       ?Release@XContinueCallback@CDsoDocObject@@UAGKXZ 22015330 f   dsofdocobj.obj
 0001:00014390       ?QueryInterface@XContinueCallback@CDsoDocObject@@UAGJABU_GUID@@PAPAX@Z 22015390 f   dsofdocobj.obj
 0001:000143c0       ?FContinue@XContinueCallback@CDsoDocObject@@UAGJXZ 220153c0 f   dsofdocobj.obj
 0001:000143d0       ?FContinuePrinting@XContinueCallback@CDsoDocObject@@UAGJJJPA_W@Z 220153d0 f   dsofdocobj.obj
 0001:00014430       ?AddRef@XPreviewCallback@CDsoDocObject@@UAGKXZ 22015430 f   dsofdocobj.obj
 0001:00014460       ?Release@XPreviewCallback@CDsoDocObject@@UAGKXZ 22015460 f   dsofdocobj.obj
 0001:000144c0       ?QueryInterface@XPreviewCallback@CDsoDocObject@@UAGJABU_GUID@@PAPAX@Z 220154c0 f   dsofdocobj.obj
 0001:000144f0       ?Notify@XPreviewCallback@CDsoDocObject@@UAGJKJPA_W@Z 220154f0 f   dsofdocobj.obj
 0001:00014570       ?HrGetDataFromObject@CDsoDocObject@@QAGJPAUtagVARIANT@@0@Z 22015570 f   dsofdocobj.obj
 0001:00014820       ?HrSetDataInObject@CDsoDocObject@@QAGJPAUtagVARIANT@@0H@Z 22015820 f   dsofdocobj.obj
 0001:00014b50       ?FrameWindowProc@CDsoDocObject@@KGJPAUHWND__@@IIJ@Z 22015b50 f   dsofdocobj.obj
 0001:00014cb0       ??0XOleClientSite@CDsoDocObject@@QAE@XZ 22015cb0 f i dsofdocobj.obj
 0001:00014ce0       ??1XOleClientSite@CDsoDocObject@@QAE@XZ 22015ce0 f i dsofdocobj.obj
 0001:00014d20       ??0XOleInPlaceSite@CDsoDocObject@@QAE@XZ 22015d20 f i dsofdocobj.obj
 0001:00014d50       ??1XOleInPlaceSite@CDsoDocObject@@QAE@XZ 22015d50 f i dsofdocobj.obj
 0001:00014d90       ??0XOleDocumentSite@CDsoDocObject@@QAE@XZ 22015d90 f i dsofdocobj.obj
 0001:00014dc0       ??1XOleDocumentSite@CDsoDocObject@@QAE@XZ 22015dc0 f i dsofdocobj.obj
 0001:00014e00       ??0XOleInPlaceFrame@CDsoDocObject@@QAE@XZ 22015e00 f i dsofdocobj.obj
 0001:00014e30       ??1XOleInPlaceFrame@CDsoDocObject@@QAE@XZ 22015e30 f i dsofdocobj.obj
 0001:00014e70       ??0XOleCommandTarget@CDsoDocObject@@QAE@XZ 22015e70 f i dsofdocobj.obj
 0001:00014ea0       ??1XOleCommandTarget@CDsoDocObject@@QAE@XZ 22015ea0 f i dsofdocobj.obj
 0001:00014ee0       ??0XServiceProvider@CDsoDocObject@@QAE@XZ 22015ee0 f i dsofdocobj.obj
 0001:00014f10       ??1XServiceProvider@CDsoDocObject@@QAE@XZ 22015f10 f i dsofdocobj.obj
 0001:00014f50       ??0XAuthenticate@CDsoDocObject@@QAE@XZ 22015f50 f i dsofdocobj.obj
 0001:00014f80       ??1XAuthenticate@CDsoDocObject@@QAE@XZ 22015f80 f i dsofdocobj.obj
 0001:00014fc0       ??0XContinueCallback@CDsoDocObject@@QAE@XZ 22015fc0 f i dsofdocobj.obj
 0001:00014ff0       ??1XContinueCallback@CDsoDocObject@@QAE@XZ 22015ff0 f i dsofdocobj.obj
 0001:00015030       ??0XPreviewCallback@CDsoDocObject@@QAE@XZ 22016030 f i dsofdocobj.obj
 0001:00015060       ??0IOleClientSite@@QAE@XZ  22016060 f i dsofdocobj.obj
 0001:00015080       ??0IOleInPlaceSite@@QAE@XZ 22016080 f i dsofdocobj.obj
 0001:000150a0       ??0IOleDocumentSite@@QAE@XZ 220160a0 f i dsofdocobj.obj
 0001:000150c0       ??0IOleInPlaceFrame@@QAE@XZ 220160c0 f i dsofdocobj.obj
 0001:000150e0       ??0IAuthenticate@@QAE@XZ   220160e0 f i dsofdocobj.obj
 0001:00015100       ??0IContinueCallback@@QAE@XZ 22016100 f i dsofdocobj.obj
 0001:00015120       ??0IOlePreviewCallback@@QAE@XZ 22016120 f i dsofdocobj.obj
 0001:00015140       ??0IOleInPlaceUIWindow@@QAE@XZ 22016140 f i dsofdocobj.obj
 0001:00015160       ??1XPreviewCallback@CDsoDocObject@@QAE@XZ 22016160 f i dsofdocobj.obj
 0001:000151a0       ?IsWordObject@CDsoDocObject@@QAEHXZ 220161a0 f i dsofdocobj.obj
 0001:00015210       ?IsVisioObject@CDsoDocObject@@QAEHXZ 22016210 f i dsofdocobj.obj
 0001:00015240       ?IsPPTObject@CDsoDocObject@@QAEHXZ 22016240 f i dsofdocobj.obj
 0001:000152b0       ?_PrintOutOld@CDsoFramerControl@@UAGJUtagVARIANT@@@Z 220162b0 f   dsofprint.obj
 0001:00015380       ?PrintOut@CDsoFramerControl@@UAGJUtagVARIANT@@00000@Z 22016380 f   dsofprint.obj
 0001:00015590       ?PrintPreview@CDsoFramerControl@@UAGJXZ 22016590 f   dsofprint.obj
 0001:00015620       ?PrintPreviewExit@CDsoFramerControl@@UAGJXZ 22016620 f   dsofprint.obj
 0001:00015680       ?PrintDocument@CDsoDocObject@@QAGJPB_W0IIIH@Z 22016680 f   dsofprint.obj
 0001:00015b10       ?StartPrintPreview@CDsoDocObject@@QAGJXZ 22016b10 f   dsofprint.obj
 0001:00015d50       ?ExitPrintPreview@CDsoDocObject@@QAGJH@Z 22016d50 f   dsofprint.obj
 0001:00015ef0       ?CheckForPPTPreviewChange@CDsoDocObject@@IAGXXZ 22016ef0 f   dsofprint.obj
 0001:00015f80       _DllMain@12                22016f80 f   mainentry.obj
 0001:00016090       _DllCanUnloadNow@0         22017090 f   mainentry.obj
 0001:000160b0       _DllGetClassObject@12      220170b0 f   mainentry.obj
 0001:000161a0       _DllRegisterServer@0       220171a0 f   mainentry.obj
 0001:000167b0       _DllUnregisterServer@0     220177b0 f   mainentry.obj
 0001:00016940       ??0CDsoFramerClassFactory@@QAE@XZ 22017940 f i mainentry.obj
 0001:00016970       ??0IClassFactory@@QAE@XZ   22017970 f i mainentry.obj
 0001:00016990       _HRESULT_FROM_WIN32        22017990 f i mainentry.obj
 0001:000169d0       _DsoMemAlloc@4             220179d0 f   utilities.obj
 0001:00016a00       _DsoMemFree@4              22017a00 f   utilities.obj
 0001:00016a30       ??2@YAPAXI@Z               22017a30 f   utilities.obj
 0001:00016a40       ??3@YAXPAX@Z               22017a40 f   utilities.obj
 0001:00016a50       __purecall                 22017a50 f   utilities.obj
 0001:00016a60       _DsoConvertToUnicodeEx@20  22017a60 f   utilities.obj
 0001:00016b10       _DsoConvertToMBCSEx@20     22017b10 f   utilities.obj
 0001:00016bb0       _DsoConvertToLPWSTR@4      22017bb0 f   utilities.obj
 0001:00016c30       _DsoConvertToMBCS@4        22017c30 f   utilities.obj
 0001:00016cb0       _DsoConvertToBSTR@4        22017cb0 f   utilities.obj
 0001:00016cf0       _DsoConvertToLPOLESTR@4    22017cf0 f   utilities.obj
 0001:00016d50       _DsoCopyString@4           22017d50 f   utilities.obj
 0001:00016db0       _DsoCopyStringCat@8        22017db0 f   utilities.obj
 0001:00016dd0       _DsoCopyStringCatEx@12     22017dd0 f   utilities.obj
 0001:00016f50       _DsoCLSIDtoLPSTR@4         22017f50 f   utilities.obj
 0001:00016f90       _DsoCompareStringsEx@16    22017f90 f   utilities.obj
 0001:00017170       _LooksLikeUNC@4            22018170 f   utilities.obj
 0001:000171c0       _LooksLikeLocalFile@4      220181c0 f   utilities.obj
 0001:00017230       _LooksLikeHTTP@4           22018230 f   utilities.obj
 0001:000172f0       _GetTempPathForURLDownload@8 220182f0 f   utilities.obj
 0001:000174e0       _URLDownloadFile@12        220184e0 f   utilities.obj
 0001:00017550       _DsoHimetricToPixels@8     22018550 f   utilities.obj
 0001:000175d0       _DsoPixelsToHimetric@8     220185d0 f   utilities.obj
 0001:00017650       _DsoGetBitmapFromWindow@4  22018650 f   utilities.obj
 0001:00017740       _IsWindowChild@8           22018740 f   utilities.obj
 0001:000177b0       _DsoGetTypeInfoEx@28       220187b0 f   utilities.obj
 0001:00017880       _DsoDispatchInvoke@28      22018880 f   utilities.obj
 0001:000179d0       _DsoReportError@12         220189d0 f   utilities.obj
 0001:00017bc0       ?DsoPVarFromPVarRef@@YIPAUtagVARIANT@@PAU1@@Z 22018bc0 f   utilities.obj
 0001:00017bf0       ?DsoIsVarParamMissing@@YIHPAUtagVARIANT@@@Z 22018bf0 f   utilities.obj
 0001:00017c30       ?DsoPVarWStrFromPVar@@YIPA_WPAUtagVARIANT@@@Z 22018c30 f   utilities.obj
 0001:00017c80       ?DsoPVarArrayFromPVar@@YIPAUtagSAFEARRAY@@PAUtagVARIANT@@@Z 22018c80 f   utilities.obj
 0001:00017ce0       ?DsoPVarUnkFromPVar@@YIPAUIUnknown@@PAUtagVARIANT@@@Z 22018ce0 f   utilities.obj
 0001:00017d50       ?DsoPVarShortFromPVar@@YIFPAUtagVARIANT@@F@Z 22018d50 f   utilities.obj
 0001:00017db0       ?DsoPVarLongFromPVar@@YIJPAUtagVARIANT@@J@Z 22018db0 f   utilities.obj
 0001:00017e20       ?DsoPVarBoolFromPVar@@YIHPAUtagVARIANT@@H@Z 22018e20 f   utilities.obj
 0001:00017e80       _FFileExists@4             22018e80 f   utilities.obj
 0001:00017ee0       _FOpenLocalFile@20         22018ee0 f   utilities.obj
 0001:00017f80       _FPerformShellOp@12        22018f80 f   utilities.obj
 0001:000180b0       _FGetModuleFileName@8      220190b0 f   utilities.obj
 0001:00018190       _FIsIECacheFile@4          22019190 f   utilities.obj
 0001:00018340       _FDrawText@16              22019340 f   utilities.obj
 0001:000183b0       _FSetRegKeyValue@8         220193b0 f   utilities.obj
 0001:00018430       _FOpenPrinter@8            22019430 f   utilities.obj
 0001:000184d0       _FGetPrinterSettings@24    220194d0 f   utilities.obj
 0001:000188b0       _DsoGetFileFromUser@40     220198b0 f   utilities.obj
 0001:00018b50       _DsoGetOleInsertObjectFromUser@28 22019b50 f   utilities.obj
 0001:00019088       _OleUIInsertObjectA@4      2201a088 f   oledlg:oledlg.dll
 0001:0001908e       _OleUIInsertObjectW@4      2201a08e f   oledlg:oledlg.dll
 0001:00019094       _OutputDebugStringA@4      2201a094 f   kernel32:KERNEL32.dll
 0001:0001909a       _InterlockedDecrement@4    2201a09a f   kernel32:KERNEL32.dll
 0001:000190a0       _InterlockedIncrement@4    2201a0a0 f   kernel32:KERNEL32.dll
 0001:000190a6       _DebugBreak@0              2201a0a6 f   kernel32:KERNEL32.dll
 0001:000190ac       _LeaveCriticalSection@4    2201a0ac f   kernel32:KERNEL32.dll
 0001:000190b2       _EnterCriticalSection@4    2201a0b2 f   kernel32:KERNEL32.dll
 0001:000190b8       _lstrlenA@4                2201a0b8 f   kernel32:KERNEL32.dll
 0001:000190be       _lstrcpyA@8                2201a0be f   kernel32:KERNEL32.dll
 0001:000190c4       _GetTickCount@0            2201a0c4 f   kernel32:KERNEL32.dll
 0001:000190ca       _GetCurrentThreadId@0      2201a0ca f   kernel32:KERNEL32.dll
 0001:000190d0       _GetCurrentProcessId@0     2201a0d0 f   kernel32:KERNEL32.dll
 0001:000190d6       _GlobalUnlock@4            2201a0d6 f   kernel32:KERNEL32.dll
 0001:000190dc       _GlobalLock@4              2201a0dc f   kernel32:KERNEL32.dll
 0001:000190e2       _GlobalAlloc@8             2201a0e2 f   kernel32:KERNEL32.dll
 0001:000190e8       _GetLastError@0            2201a0e8 f   kernel32:KERNEL32.dll
 0001:000190ee       _Sleep@4                   2201a0ee f   kernel32:KERNEL32.dll
 0001:000190f4       _lstrlenW@4                2201a0f4 f   kernel32:KERNEL32.dll
 0001:000190fa       _GetThreadLocale@0         2201a0fa f   kernel32:KERNEL32.dll
 0001:00019100       _CloseHandle@4             2201a100 f   kernel32:KERNEL32.dll
 0001:00019106       _WriteFile@20              2201a106 f   kernel32:KERNEL32.dll
 0001:0001910c       _ReadFile@20               2201a10c f   kernel32:KERNEL32.dll
 0001:00019112       _GlobalSize@4              2201a112 f   kernel32:KERNEL32.dll
 0001:00019118       _DeleteCriticalSection@4   2201a118 f   kernel32:KERNEL32.dll
 0001:0001911e       _HeapDestroy@4             2201a11e f   kernel32:KERNEL32.dll
 0001:00019124       _DisableThreadLibraryCalls@4 2201a124 f   kernel32:KERNEL32.dll
 0001:0001912a       _InitializeCriticalSection@4 2201a12a f   kernel32:KERNEL32.dll
 0001:00019130       _GetVersion@0              2201a130 f   kernel32:KERNEL32.dll
 0001:00019136       _HeapCreate@12             2201a136 f   kernel32:KERNEL32.dll
 0001:0001913c       _HeapAlloc@12              2201a13c f   kernel32:KERNEL32.dll
 0001:00019142       _HeapFree@12               2201a142 f   kernel32:KERNEL32.dll
 0001:00019148       _MultiByteToWideChar@24    2201a148 f   kernel32:KERNEL32.dll
 0001:0001914e       _IsValidCodePage@4         2201a14e f   kernel32:KERNEL32.dll
 0001:00019154       _WideCharToMultiByte@32    2201a154 f   kernel32:KERNEL32.dll
 0001:0001915a       _GetACP@0                  2201a15a f   kernel32:KERNEL32.dll
 0001:00019160       _CompareStringA@24         2201a160 f   kernel32:KERNEL32.dll
 0001:00019166       _CompareStringW@24         2201a166 f   kernel32:KERNEL32.dll
 0001:0001916c       _CreateDirectoryA@8        2201a16c f   kernel32:KERNEL32.dll
 0001:00019172       _lstrcatA@8                2201a172 f   kernel32:KERNEL32.dll
 0001:00019178       _GetTempPathA@8            2201a178 f   kernel32:KERNEL32.dll
 0001:0001917e       _GetProcAddress@8          2201a17e f   kernel32:KERNEL32.dll
 0001:00019184       _LoadLibraryA@4            2201a184 f   kernel32:KERNEL32.dll
 0001:0001918a       _MulDiv@12                 2201a18a f   kernel32:KERNEL32.dll
 0001:00019190       _FormatMessageA@28         2201a190 f   kernel32:KERNEL32.dll
 0001:00019196       _GetFileAttributesA@4      2201a196 f   kernel32:KERNEL32.dll
 0001:0001919c       _GetFileAttributesW@4      2201a19c f   kernel32:KERNEL32.dll
 0001:000191a2       _CreateFileA@28            2201a1a2 f   kernel32:KERNEL32.dll
 0001:000191a8       _CreateFileW@28            2201a1a8 f   kernel32:KERNEL32.dll
 0001:000191ae       _DeleteFileA@4             2201a1ae f   kernel32:KERNEL32.dll
 0001:000191b4       _MoveFileA@8               2201a1b4 f   kernel32:KERNEL32.dll
 0001:000191ba       _CopyFileA@12              2201a1ba f   kernel32:KERNEL32.dll
 0001:000191c0       _DeleteFileW@4             2201a1c0 f   kernel32:KERNEL32.dll
 0001:000191c6       _MoveFileW@8               2201a1c6 f   kernel32:KERNEL32.dll
 0001:000191cc       _CopyFileW@12              2201a1cc f   kernel32:KERNEL32.dll
 0001:000191d2       _GetModuleFileNameA@12     2201a1d2 f   kernel32:KERNEL32.dll
 0001:000191d8       _GetModuleFileNameW@12     2201a1d8 f   kernel32:KERNEL32.dll
 0001:000191de       _SetLastError@4            2201a1de f   kernel32:KERNEL32.dll
 0001:000191e4       _wsprintfA                 2201a1e4 f   user32:USER32.dll
 0001:000191ea       _SetCursor@4               2201a1ea f   user32:USER32.dll
 0001:000191f0       _LoadCursorA@8             2201a1f0 f   user32:USER32.dll
 0001:000191f6       _InvalidateRect@12         2201a1f6 f   user32:USER32.dll
 0001:000191fc       _GetClientRect@8           2201a1fc f   user32:USER32.dll
 0001:00019202       _InflateRect@12            2201a202 f   user32:USER32.dll
 0001:00019208       _SetRect@20                2201a208 f   user32:USER32.dll
 0001:0001920e       _CopyRect@8                2201a20e f   user32:USER32.dll
 0001:00019214       _SetWindowLongA@12         2201a214 f   user32:USER32.dll
 0001:0001921a       _CreateWindowExA@48        2201a21a f   user32:USER32.dll
 0001:00019220       _RegisterClassA@4          2201a220 f   user32:USER32.dll
 0001:00019226       _GetClassInfoA@12          2201a226 f   user32:USER32.dll
 0001:0001922c       _IsWindow@4                2201a22c f   user32:USER32.dll
 0001:00019232       _SetFocus@4                2201a232 f   user32:USER32.dll
 0001:00019238       _ShowWindow@8              2201a238 f   user32:USER32.dll
 0001:0001923e       _IsWindowVisible@4         2201a23e f   user32:USER32.dll
 0001:00019244       _GetMenuStringA@20         2201a244 f   user32:USER32.dll
 0001:0001924a       _GetMenuItemCount@4        2201a24a f   user32:USER32.dll
 0001:00019250       _DrawTextA@20              2201a250 f   user32:USER32.dll
 0001:00019256       _GetSysColor@4             2201a256 f   user32:USER32.dll
 0001:0001925c       _DrawIconEx@36             2201a25c f   user32:USER32.dll
 0001:00019262       _FillRect@12               2201a262 f   user32:USER32.dll
 0001:00019268       _DrawEdge@16               2201a268 f   user32:USER32.dll
 0001:0001926e       _FrameRect@12              2201a26e f   user32:USER32.dll
 0001:00019274       _GetSysColorBrush@4        2201a274 f   user32:USER32.dll
 0001:0001927a       _DestroyMenu@4             2201a27a f   user32:USER32.dll
 0001:00019280       _SetCapture@4              2201a280 f   user32:USER32.dll
 0001:00019286       _ReleaseCapture@0          2201a286 f   user32:USER32.dll
 0001:0001928c       _PtInRect@12               2201a28c f   user32:USER32.dll
 0001:00019292       _GetCursorPos@4            2201a292 f   user32:USER32.dll
 0001:00019298       _GetFocus@0                2201a298 f   user32:USER32.dll
 0001:0001929e       _GetSubMenu@8              2201a29e f   user32:USER32.dll
 0001:000192a4       _TrackPopupMenu@28         2201a2a4 f   user32:USER32.dll
 0001:000192aa       _MapWindowPoints@16        2201a2aa f   user32:USER32.dll
 0001:000192b0       _AppendMenuA@16            2201a2b0 f   user32:USER32.dll
 0001:000192b6       _CreatePopupMenu@0         2201a2b6 f   user32:USER32.dll
 0001:000192bc       _SendMessageA@16           2201a2bc f   user32:USER32.dll
 0001:000192c2       _PostMessageA@16           2201a2c2 f   user32:USER32.dll
 0001:000192c8       _EnableMenuItem@12         2201a2c8 f   user32:USER32.dll
 0001:000192ce       _MessageBoxA@16            2201a2ce f   user32:USER32.dll
 0001:000192d4       _MessageBeep@4             2201a2d4 f   user32:USER32.dll
 0001:000192da       _KillTimer@8               2201a2da f   user32:USER32.dll
 0001:000192e0       _SetTimer@16               2201a2e0 f   user32:USER32.dll
 0001:000192e6       _UpdateWindow@4            2201a2e6 f   user32:USER32.dll
 0001:000192ec       _InsertMenuA@20            2201a2ec f   user32:USER32.dll
 0001:000192f2       _EnumChildWindows@12       2201a2f2 f   user32:USER32.dll
 0001:000192f8       _GetWindowThreadProcessId@8 2201a2f8 f   user32:USER32.dll
 0001:000192fe       _DefWindowProcA@16         2201a2fe f   user32:USER32.dll
 0001:00019304       _EndPaint@8                2201a304 f   user32:USER32.dll
 0001:0001930a       _BeginPaint@8              2201a30a f   user32:USER32.dll
 0001:00019310       _GetWindowLongA@8          2201a310 f   user32:USER32.dll
 0001:00019316       _SetWindowPos@28           2201a316 f   user32:USER32.dll
 0001:0001931c       _GetWindowRect@8           2201a31c f   user32:USER32.dll
 0001:00019322       _DestroyWindow@4           2201a322 f   user32:USER32.dll
 0001:00019328       _SetWindowRgn@12           2201a328 f   user32:USER32.dll
 0001:0001932e       _OffsetRect@12             2201a32e f   user32:USER32.dll
 0001:00019334       _EqualRect@8               2201a334 f   user32:USER32.dll
 0001:0001933a       _IntersectRect@12          2201a33a f   user32:USER32.dll
 0001:00019340       _GetKeyState@4             2201a340 f   user32:USER32.dll
 0001:00019346       _GetParent@4               2201a346 f   user32:USER32.dll
 0001:0001934c       _SetPropA@12               2201a34c f   user32:USER32.dll
 0001:00019352       _SetWindowLongW@12         2201a352 f   user32:USER32.dll
 0001:00019358       _SetPropW@12               2201a358 f   user32:USER32.dll
 0001:0001935e       _IsWindowUnicode@4         2201a35e f   user32:USER32.dll
 0001:00019364       _RemovePropA@8             2201a364 f   user32:USER32.dll
 0001:0001936a       _RemovePropW@8             2201a36a f   user32:USER32.dll
 0001:00019370       _GetPropA@8                2201a370 f   user32:USER32.dll
 0001:00019376       _GetPropW@8                2201a376 f   user32:USER32.dll
 0001:0001937c       _DefWindowProcW@16         2201a37c f   user32:USER32.dll
 0001:00019382       _CallWindowProcA@20        2201a382 f   user32:USER32.dll
 0001:00019388       _CallWindowProcW@20        2201a388 f   user32:USER32.dll
 0001:0001938e       _BringWindowToTop@4        2201a38e f   user32:USER32.dll
 0001:00019394       _RemoveMenu@12             2201a394 f   user32:USER32.dll
 0001:0001939a       _SetRectEmpty@4            2201a39a f   user32:USER32.dll
 0001:000193a0       _RegisterClipboardFormatA@4 2201a3a0 f   user32:USER32.dll
 0001:000193a6       _LoadImageA@24             2201a3a6 f   user32:USER32.dll
 0001:000193ac       _ReleaseDC@8               2201a3ac f   user32:USER32.dll
 0001:000193b2       _GetDC@4                   2201a3b2 f   user32:USER32.dll
 0001:000193b8       _LoadStringA@16            2201a3b8 f   user32:USER32.dll
 0001:000193be       _DrawTextW@20              2201a3be f   user32:USER32.dll
 0001:000193c4       _DeleteDC@4                2201a3c4 f   gdi32:GDI32.dll
 0001:000193ca       _BitBlt@36                 2201a3ca f   gdi32:GDI32.dll
 0001:000193d0       _StretchBlt@44             2201a3d0 f   gdi32:GDI32.dll
 0001:000193d6       _GetObjectA@12             2201a3d6 f   gdi32:GDI32.dll
 0001:000193dc       _CreateCompatibleDC@4      2201a3dc f   gdi32:GDI32.dll
 0001:000193e2       _GetTextExtentPoint32A@16  2201a3e2 f   gdi32:GDI32.dll
 0001:000193e8       _DeleteObject@4            2201a3e8 f   gdi32:GDI32.dll
 0001:000193ee       _SetTextColor@8            2201a3ee f   gdi32:GDI32.dll
 0001:000193f4       _SetMapMode@8              2201a3f4 f   gdi32:GDI32.dll
 0001:000193fa       _SetBkMode@8               2201a3fa f   gdi32:GDI32.dll
 0001:00019400       _SelectObject@8            2201a400 f   gdi32:GDI32.dll
 0001:00019406       _CreateFontIndirectA@4     2201a406 f   gdi32:GDI32.dll
 0001:0001940c       _CreateSolidBrush@4        2201a40c f   gdi32:GDI32.dll
 0001:00019412       _RealizePalette@4          2201a412 f   gdi32:GDI32.dll
 0001:00019418       _SelectPalette@12          2201a418 f   gdi32:GDI32.dll
 0001:0001941e       _CreateHalftonePalette@4   2201a41e f   gdi32:GDI32.dll
 0001:00019424       _GetDeviceCaps@8           2201a424 f   gdi32:GDI32.dll
 0001:0001942a       _CreateRectRgnIndirect@4   2201a42a f   gdi32:GDI32.dll
 0001:00019430       _RestoreDC@8               2201a430 f   gdi32:GDI32.dll
 0001:00019436       _SetWindowOrgEx@16         2201a436 f   gdi32:GDI32.dll
 0001:0001943c       _SetViewportOrgEx@16       2201a43c f   gdi32:GDI32.dll
 0001:00019442       _LPtoDP@12                 2201a442 f   gdi32:GDI32.dll
 0001:00019448       _SaveDC@4                  2201a448 f   gdi32:GDI32.dll
 0001:0001944e       _DeleteMetaFile@4          2201a44e f   gdi32:GDI32.dll
 0001:00019454       _CloseMetaFile@4           2201a454 f   gdi32:GDI32.dll
 0001:0001945a       _SetWindowExtEx@16         2201a45a f   gdi32:GDI32.dll
 0001:00019460       _CreateMetaFileW@4         2201a460 f   gdi32:GDI32.dll
 0001:00019466       _CreateCompatibleBitmap@12 2201a466 f   gdi32:GDI32.dll
 0001:0001946c       _ClosePrinter@4            2201a46c f   winspool:WINSPOOL.DRV
 0001:00019472       _OpenPrinterA@12           2201a472 f   winspool:WINSPOOL.DRV
 0001:00019478       _OpenPrinterW@12           2201a478 f   winspool:WINSPOOL.DRV
 0001:0001947e       _GetPrinterA@20            2201a47e f   winspool:WINSPOOL.DRV
 0001:00019484       _GetPrinterW@20            2201a484 f   winspool:WINSPOOL.DRV
 0001:0001948a       _GetOpenFileNameA@4        2201a48a f   comdlg32:COMDLG32.dll
 0001:00019490       _GetSaveFileNameA@4        2201a490 f   comdlg32:COMDLG32.dll
 0001:00019496       _GetOpenFileNameW@4        2201a496 f   comdlg32:COMDLG32.dll
 0001:0001949c       _GetSaveFileNameW@4        2201a49c f   comdlg32:COMDLG32.dll
 0001:000194a2       _RegCloseKey@4             2201a4a2 f   advapi32:ADVAPI32.dll
 0001:000194a8       _RegOpenKeyExA@20          2201a4a8 f   advapi32:ADVAPI32.dll
 0001:000194ae       _RegQueryValueExA@24       2201a4ae f   advapi32:ADVAPI32.dll
 0001:000194b4       _GetUserNameA@8            2201a4b4 f   advapi32:ADVAPI32.dll
 0001:000194ba       _RegSetValueExA@24         2201a4ba f   advapi32:ADVAPI32.dll
 0001:000194c0       _RegCreateKeyExA@36        2201a4c0 f   advapi32:ADVAPI32.dll
 0001:000194c6       _RegDeleteKeyA@8           2201a4c6 f   advapi32:ADVAPI32.dll
 0001:000194cc       _RegEnumKeyExA@32          2201a4cc f   advapi32:ADVAPI32.dll
 0001:000194d2       _RegQueryValueExW@24       2201a4d2 f   advapi32:ADVAPI32.dll
 0001:000194d8       _RegOpenKeyA@12            2201a4d8 f   advapi32:ADVAPI32.dll
 0001:000194de       _RegSetValueExW@24         2201a4de f   advapi32:ADVAPI32.dll
 0001:000194e4       _RegEnumKeyA@16            2201a4e4 f   advapi32:ADVAPI32.dll
 0001:000194ea       _DragAcceptFiles@8         2201a4ea f   shell32:SHELL32.dll
 0001:000194f0       _DragQueryFileA@16         2201a4f0 f   shell32:SHELL32.dll
 0001:000194f6       _CLSIDFromProgID@8         2201a4f6 f   ole32:ole32.dll
 0001:000194fc       _ReadClassStg@8            2201a4fc f   ole32:ole32.dll
 0001:00019502       _StgOpenStorage@24         2201a502 f   ole32:ole32.dll
 0001:00019508       _StgIsStorageFile@4        2201a508 f   ole32:ole32.dll
 0001:0001950e       _OleRegEnumVerbs@8         2201a50e f   ole32:ole32.dll
 0001:00019514       _OleRegGetUserType@12      2201a514 f   ole32:ole32.dll
 0001:0001951a       _CreateOleAdviseHolder@4   2201a51a f   ole32:ole32.dll
 0001:00019520       _OleRegEnumFormatEtc@12    2201a520 f   ole32:ole32.dll
 0001:00019526       _CreateDataAdviseHolder@4  2201a526 f   ole32:ole32.dll
 0001:0001952c       _StgCreateDocfile@16       2201a52c f   ole32:ole32.dll
 0001:00019532       _OleDoAutoConvert@8        2201a532 f   ole32:ole32.dll
 0001:00019538       _OleGetAutoConvert@8       2201a538 f   ole32:ole32.dll
 0001:0001953e       _CreateFileMoniker@8       2201a53e f   ole32:ole32.dll
 0001:00019544       _CreateBindCtx@8           2201a544 f   ole32:ole32.dll
 0001:0001954a       _GetClassFile@8            2201a54a f   ole32:ole32.dll
 0001:00019550       _WriteClassStg@8           2201a550 f   ole32:ole32.dll
 0001:00019556       _CoDisconnectObject@8      2201a556 f   ole32:ole32.dll
 0001:0001955c       _CoCreateInstance@20       2201a55c f   ole32:ole32.dll
 0001:00019562       _CoTaskMemFree@4           2201a562 f   ole32:ole32.dll
 0001:00019568       _CoGetClassObject@20       2201a568 f   ole32:ole32.dll
 0001:0001956e       _ReleaseStgMedium@4        2201a56e f   ole32:ole32.dll
 0001:00019574       _CoTaskMemAlloc@4          2201a574 f   ole32:ole32.dll
 0001:0001957a       _StringFromCLSID@8         2201a57a f   ole32:ole32.dll
 0001:00019580       _ProgIDFromCLSID@8         2201a580 f   ole32:ole32.dll
 0001:00019586       _CLSIDFromString@8         2201a586 f   ole32:ole32.dll
 0001:0001958c       _SysFreeString@4           2201a58c f   oleaut32:OLEAUT32.dll
 0001:00019592       _VariantClear@4            2201a592 f   oleaut32:OLEAUT32.dll
 0001:00019598       _SysAllocString@4          2201a598 f   oleaut32:OLEAUT32.dll
 0001:0001959e       _SysStringLen@4            2201a59e f   oleaut32:OLEAUT32.dll
 0001:000195a4       _VariantInit@4             2201a5a4 f   oleaut32:OLEAUT32.dll
 0001:000195aa       _OleTranslateColor@12      2201a5aa f   oleaut32:OLEAUT32.dll
 0001:000195b0       _SysStringByteLen@4        2201a5b0 f   oleaut32:OLEAUT32.dll
 0001:000195b6       _SafeArrayUnaccessData@4   2201a5b6 f   oleaut32:OLEAUT32.dll
 0001:000195bc       _SafeArrayAccessData@8     2201a5bc f   oleaut32:OLEAUT32.dll
 0001:000195c2       _SafeArrayCreateVector@12  2201a5c2 f   oleaut32:OLEAUT32.dll
 0001:000195c8       _SafeArrayGetElemsize@4    2201a5c8 f   oleaut32:OLEAUT32.dll
 0001:000195ce       _SafeArrayGetUBound@12     2201a5ce f   oleaut32:OLEAUT32.dll
 0001:000195d4       _SafeArrayGetLBound@12     2201a5d4 f   oleaut32:OLEAUT32.dll
 0001:000195da       _SafeArrayGetDim@4         2201a5da f   oleaut32:OLEAUT32.dll
 0001:000195e0       _RegisterTypeLib@12        2201a5e0 f   oleaut32:OLEAUT32.dll
 0001:000195e6       _LoadTypeLib@8             2201a5e6 f   oleaut32:OLEAUT32.dll
 0001:000195ec       _LoadRegTypeLib@20         2201a5ec f   oleaut32:OLEAUT32.dll
 0001:000195f2       _SetErrorInfo@8            2201a5f2 f   oleaut32:OLEAUT32.dll
 0001:000195f8       _CreateErrorInfo@4         2201a5f8 f   oleaut32:OLEAUT32.dll
 0001:00019600       _memcmp                    2201a600 f   LIBCMTD:memcmp.obj
 0001:0001a070       @__security_check_cookie@4 2201b070 f   LIBCMTD:secchk.obj
 0001:0001a080       ?name@type_info@@QBEPBDPAU__type_info_node@@@Z 2201b080 f   LIBCMTD:typinfo.obj
 0001:0001a0a0       ??1type_info@@UAE@XZ       2201b0a0 f   LIBCMTD:typinfo.obj
 0001:0001a0d0       ??_Gtype_info@@UAEPAXI@Z   2201b0d0 f i LIBCMTD:typinfo.obj
 0001:0001a0d0       ??_Etype_info@@UAEPAXI@Z   2201b0d0 f i LIBCMTD:typinfo.obj
 0001:0001a100       ?_name_internal_method@type_info@@QBEPBDPAU__type_info_node@@@Z 2201b100 f   LIBCMTD:typinfo.obj
 0001:0001a120       ?_type_info_dtor_internal_method@type_info@@QAEXXZ 2201b120 f   LIBCMTD:typinfo.obj
 0001:0001a140       ??8type_info@@QBE_NABV0@@Z 2201b140 f   LIBCMTD:typinfo.obj
 0001:0001a170       ??9type_info@@QBE_NABV0@@Z 2201b170 f   LIBCMTD:typinfo.obj
 0001:0001a1a0       ?before@type_info@@QBEHABV1@@Z 2201b1a0 f   LIBCMTD:typinfo.obj
 0001:0001a1d0       ?raw_name@type_info@@QBEPBDXZ 2201b1d0 f   LIBCMTD:typinfo.obj
 0001:0001a1f0       ??0type_info@@AAE@ABV0@@Z  2201b1f0 f   LIBCMTD:typinfo.obj
 0001:0001a210       ??4type_info@@AAEAAV0@ABV0@@Z 2201b210 f   LIBCMTD:typinfo.obj
 0001:0001a230       ?_JumpToContinuation@@YGXPAXPAUEHRegistrationNode@@@Z 2201b230 f   LIBCMTD:_trnsctrl_.obj
 0001:0001a270       ?_CallMemberFunction0@@YGXPAX0@Z 2201b270 f   LIBCMTD:_trnsctrl_.obj
 0001:0001a280       ?_CallMemberFunction1@@YGXPAX00@Z 2201b280 f   LIBCMTD:_trnsctrl_.obj
 0001:0001a290       ?_CallMemberFunction2@@YGXPAX00H@Z 2201b290 f   LIBCMTD:_trnsctrl_.obj
 0001:0001a2a0       ?_UnwindNestedFrames@@YGXPAUEHRegistrationNode@@PAUEHExceptionRecord@@@Z 2201b2a0 f   LIBCMTD:_trnsctrl_.obj
 0001:0001a300       ___CxxFrameHandler         2201b300 f   LIBCMTD:_trnsctrl_.obj
 0001:0001a340       ___CxxFrameHandler3        2201b340 f   LIBCMTD:_trnsctrl_.obj
 0001:0001a380       ___CxxFrameHandler2        2201b380 f   LIBCMTD:_trnsctrl_.obj
 0001:0001a3c0       ___CxxLongjmpUnwind@4      2201b3c0 f   LIBCMTD:_trnsctrl_.obj
 0001:0001a3f0       ?_CallCatchBlock2@@YAPAXPAUEHRegistrationNode@@PBU_s_FuncInfo@@PAXHK@Z 2201b3f0 f   LIBCMTD:_trnsctrl_.obj
 0001:0001a4b0       ?_CallSETranslator@@YAHPAUEHExceptionRecord@@PAUEHRegistrationNode@@PAX2PBU_s_FuncInfo@@H1@Z 2201b4b0 f   LIBCMTD:_trnsctrl_.obj
 0001:0001a650       ?_GetRangeOfTrysToCheck@@YAPBU_s_TryBlockMapEntry@@PBU_s_FuncInfo@@HHPAI1@Z 2201b650 f   LIBCMTD:_trnsctrl_.obj
 0001:0001a6d0       __CreateFrameInfo          2201b6d0 f   LIBCMTD:_trnsctrl_.obj
 0001:0001a700       __IsExceptionObjectToBeDestroyed 2201b700 f   LIBCMTD:_trnsctrl_.obj
 0001:0001a730       __FindAndUnlinkFrame       2201b730 f   LIBCMTD:_trnsctrl_.obj
 0001:0001a790       __except_handler4          2201b790 f   LIBCMTD:chandler4.obj
 0001:0001a9b0       _memset                    2201b9b0 f   LIBCMTD:memset.obj
 0001:0001aa30       _memcpy                    2201ba30 f   LIBCMTD:memcpy.obj
 0001:0001ada0       __chkstk                   2201bda0 f   LIBCMTD:chkstk.obj
 0001:0001ada0       __alloca_probe             2201bda0     LIBCMTD:chkstk.obj
 0001:0001add0       __CRT_INIT@12              2201bdd0 f   LIBCMTD:dllcrt0.obj
 0001:0001aff0       __DllMainCRTStartup@12     2201bff0 f   LIBCMTD:dllcrt0.obj
 0001:0001b1e0       ___report_gsfailure        2201c1e0 f   LIBCMTD:gs_report.obj
 0001:0001b2f0       ?_Type_info_dtor@type_info@@CAXPAV1@@Z 2201c2f0 f   LIBCMTD:typname.obj
 0001:0001b400       ?_Name_base@type_info@@CAPBDPBV1@PAU__type_info_node@@@Z 2201c400 f   LIBCMTD:typname.obj
 0001:0001b5b0       __invoke_watson_if_error   2201c5b0 f i LIBCMTD:typname.obj
 0001:0001b5e0       ?_Type_info_dtor_internal@type_info@@CAXPAV1@@Z 2201c5e0 f   LIBCMTD:typname.obj
 0001:0001b6f0       ___unDNameHelper           2201c6f0 f   LIBCMTD:typname.obj
 0001:0001b730       ?_Name_base_internal@type_info@@CAPBDPBV1@PAU__type_info_node@@@Z 2201c730 f   LIBCMTD:typname.obj
 0001:0001b8f0       ___clean_type_info_names_internal 2201c8f0 f   LIBCMTD:typname.obj
 0001:0001b9b0       _strcmp                    2201c9b0 f   LIBCMTD:strcmp.obj
 0001:0001ba40       ___InternalCxxFrameHandler 2201ca40 f   LIBCMTD:frame.obj
 0001:0001c040       ??0bad_exception@std@@QAE@PBD@Z 2201d040 f i LIBCMTD:frame.obj
 0001:0001c070       ??1bad_exception@std@@UAE@XZ 2201d070 f i LIBCMTD:frame.obj
 0001:0001c090       ??_Ebad_exception@std@@UAEPAXI@Z 2201d090 f i LIBCMTD:frame.obj
 0001:0001c090       ??_Gbad_exception@std@@UAEPAXI@Z 2201d090 f i LIBCMTD:frame.obj
 0001:0001c0c0       ??0bad_exception@std@@QAE@ABV01@@Z 2201d0c0 f i LIBCMTD:frame.obj
 0001:0001c280       ___TypeMatch               2201d280 f   LIBCMTD:frame.obj
 0001:0001c330       ___FrameUnwindFilter       2201d330 f   LIBCMTD:frame.obj
 0001:0001c3b0       ___FrameUnwindToState      2201d3b0 f   LIBCMTD:frame.obj
 0001:0001c8f0       ___BuildCatchObjectHelper  2201d8f0 f   LIBCMTD:frame.obj
 0001:0001cb60       ___BuildCatchObject        2201db60 f   LIBCMTD:frame.obj
 0001:0001cc70       ___DestructExceptionObject 2201dc70 f   LIBCMTD:frame.obj
 0001:0001cd20       ___AdjustPointer           2201dd20 f   LIBCMTD:frame.obj
 0001:0001cd70       ?__uncaught_exception@@YA_NXZ 2201dd70 f   LIBCMTD:frame.obj
 0001:0001cd90       ___CxxExceptionFilter      2201dd90 f   LIBCMTD:frame.obj
 0001:0001cf90       ___CxxRegisterExceptionObject 2201df90 f   LIBCMTD:frame.obj
 0001:0001d0c0       ___CxxDetectRethrow        2201e0c0 f   LIBCMTD:frame.obj
 0001:0001d150       ___CxxUnregisterExceptionObject 2201e150 f   LIBCMTD:frame.obj
 0001:0001d2d0       ___CxxQueryExceptionSize   2201e2d0 f   LIBCMTD:frame.obj
 0001:0001d2e0       ___CxxCallUnwindDtor       2201e2e0 f   LIBCMTD:frame.obj
 0001:0001d360       ___CxxCallUnwindDelDtor    2201e360 f   LIBCMTD:frame.obj
 0001:0001d3e0       ___CxxCallUnwindStdDelDtor 2201e3e0 f   LIBCMTD:frame.obj
 0001:0001d460       ___CxxCallUnwindVecDtor    2201e460 f   LIBCMTD:frame.obj
 0001:0001d690       ?_is_exception_typeof@@YAHABVtype_info@@PAU_EXCEPTION_POINTERS@@@Z 2201e690 f   LIBCMTD:frame.obj
 0001:0001d770       __CallSettingFrame@12      2201e770 f   LIBCMTD:lowhelpr.obj
 0001:0001d797       __NLG_Return               2201e797     LIBCMTD:lowhelpr.obj
 0001:0001d7c0       __encoded_null             2201e7c0 f   LIBCMTD:tidtable.obj
 0001:0001d7d0       ___crtTlsAlloc@4           2201e7d0 f   LIBCMTD:tidtable.obj
 0001:0001d7e0       ___fls_getvalue@4          2201e7e0 f   LIBCMTD:tidtable.obj
 0001:0001d800       ___get_flsindex            2201e800 f   LIBCMTD:tidtable.obj
 0001:0001d810       ___set_flsgetvalue         2201e810 f   LIBCMTD:tidtable.obj
 0001:0001d860       ___fls_setvalue@8          2201e860 f   LIBCMTD:tidtable.obj
 0001:0001d880       __mtinit                   2201e880 f   LIBCMTD:tidtable.obj
 0001:0001da80       __mtterm                   2201ea80 f   LIBCMTD:tidtable.obj
 0001:0001dae0       __initptd                  2201eae0 f   LIBCMTD:tidtable.obj
 0001:0001dc10       __getptd_noexit            2201ec10 f   LIBCMTD:tidtable.obj
 0001:0001dcd0       __getptd                   2201ecd0 f   LIBCMTD:tidtable.obj
 0001:0001dd00       __freefls@4                2201ed00 f   LIBCMTD:tidtable.obj
 0001:0001df10       __freeptd                  2201ef10 f   LIBCMTD:tidtable.obj
 0001:0001df90       ___threadid                2201ef90 f   LIBCMTD:tidtable.obj
 0001:0001dfa0       ___threadhandle            2201efa0 f   LIBCMTD:tidtable.obj
 0001:0001dfb0       __initp_eh_hooks           2201efb0 f   LIBCMTD:hooks.obj
 0001:0001dfd0       ?terminate@@YAXXZ          2201efd0 f   LIBCMTD:hooks.obj
 0001:0001e050       ?unexpected@@YAXXZ         2201f050 f   LIBCMTD:hooks.obj
 0001:0001e080       ?_inconsistency@@YAXXZ     2201f080 f   LIBCMTD:hooks.obj
 0001:0001e110       __local_unwind4            2201f110 f   LIBCMTD:exsup4.obj
 0001:0001e1e6       __seh_longjmp_unwind4@4    2201f1e6 f   LIBCMTD:exsup4.obj
 0001:0001e202       @_EH4_CallFilterFunc@8     2201f202 f   LIBCMTD:exsup4.obj
 0001:0001e219       @_EH4_TransferToHandler@8  2201f219 f   LIBCMTD:exsup4.obj
 0001:0001e232       @_EH4_GlobalUnwind2@8      2201f232 f   LIBCMTD:exsup4.obj
 0001:0001e24b       @_EH4_LocalUnwind@16       2201f24b f   LIBCMTD:exsup4.obj
 0001:0001e270       __ValidateImageBase        2201f270 f   LIBCMTD:pesect.obj
 0001:0001e2d0       __FindPESection            2201f2d0 f   LIBCMTD:pesect.obj
 0001:0001e350       __IsNonwritableInCurrentImage 2201f350 f   LIBCMTD:pesect.obj
 0001:0001e470       __VEC_memzero              2201f470 f   LIBCMTD:p4_memset.obj
 0001:0001e530       ___sse2_available_init     2201f530 f   LIBCMTD:cpu_disp.obj
 0001:0001e550       __VEC_memcpy               2201f550 f   LIBCMTD:p4_memcpy.obj
 0001:0001e660       __malloc_dbg               2201f660 f   LIBCMTD:dbgheap.obj
 0001:0001e690       __nh_malloc                2201f690 f   LIBCMTD:dbgheap.obj
 0001:0001e6b0       __nh_malloc_dbg            2201f6b0 f   LIBCMTD:dbgheap.obj
 0001:0001e790       __heap_alloc               2201f790 f   LIBCMTD:dbgheap.obj
 0001:0001eb70       __heap_alloc_dbg           2201fb70 f   LIBCMTD:dbgheap.obj
 0001:0001ebd0       __calloc_dbg_impl          2201fbd0 f   LIBCMTD:dbgheap.obj
 0001:0001ec50       __calloc_dbg               2201fc50 f   LIBCMTD:dbgheap.obj
 0001:0001ecb0       __recalloc                 2201fcb0 f   LIBCMTD:dbgheap.obj
 0001:0001ece0       __realloc_dbg              2201fce0 f   LIBCMTD:dbgheap.obj
 0001:0001f380       __recalloc_dbg             22020380 f   LIBCMTD:dbgheap.obj
 0001:0001f430       __expand                   22020430 f   LIBCMTD:dbgheap.obj
 0001:0001f460       __expand_dbg               22020460 f   LIBCMTD:dbgheap.obj
 0001:0001f570       __free_nolock              22020570 f   LIBCMTD:dbgheap.obj
 0001:0001f590       __free_dbg                 22020590 f   LIBCMTD:dbgheap.obj
 0001:0001f610       __free_dbg_nolock          22020610 f   LIBCMTD:dbgheap.obj
 0001:0001faf0       __msize                    22020af0 f   LIBCMTD:dbgheap.obj
 0001:0001fb10       __msize_dbg                22020b10 f   LIBCMTD:dbgheap.obj
 0001:0001fd00       __CrtSetBreakAlloc         22020d00 f   LIBCMTD:dbgheap.obj
 0001:0001fd20       __CrtSetDbgBlockType       22020d20 f   LIBCMTD:dbgheap.obj
 0001:0001fe10       __CrtSetAllocHook          22020e10 f   LIBCMTD:dbgheap.obj
 0001:0001fe30       __CrtGetAllocHook          22020e30 f   LIBCMTD:dbgheap.obj
 0001:0001fe80       __CrtCheckMemory           22020e80 f   LIBCMTD:dbgheap.obj
 0001:000202e0       __CrtSetDbgFlag            220212e0 f   LIBCMTD:dbgheap.obj
 0001:00020430       __CrtDoForAllClientObjects 22021430 f   LIBCMTD:dbgheap.obj
 0001:00020550       __CrtIsValidPointer        22021550 f   LIBCMTD:dbgheap.obj
 0001:00020560       __CrtIsValidHeapPointer    22021560 f   LIBCMTD:dbgheap.obj
 0001:000205b0       __CrtIsMemoryBlock         220215b0 f   LIBCMTD:dbgheap.obj
 0001:00020720       __CrtReportBlockType       22021720 f   LIBCMTD:dbgheap.obj
 0001:00020750       __CrtSetDumpClient         22021750 f   LIBCMTD:dbgheap.obj
 0001:00020770       __CrtGetDumpClient         22021770 f   LIBCMTD:dbgheap.obj
 0001:00020780       __CrtMemCheckpoint         22021780 f   LIBCMTD:dbgheap.obj
 0001:000209a0       __CrtMemDifference         220219a0 f   LIBCMTD:dbgheap.obj
 0001:00020bc0       __CrtMemDumpAllObjectsSince 22021bc0 f   LIBCMTD:dbgheap.obj
 0001:00020c00       ??0_LocaleUpdate@@QAE@PAUlocaleinfo_struct@@@Z 22021c00 f i LIBCMTD:dbgheap.obj
 0001:00020ce0       ??1_LocaleUpdate@@QAE@XZ   22021ce0 f i LIBCMTD:dbgheap.obj
 0001:00020d10       ?GetLocaleT@_LocaleUpdate@@QAEPAUlocaleinfo_struct@@XZ 22021d10 f i LIBCMTD:dbgheap.obj
 0001:000211d0       __invoke_watson_if_oneof   220221d0 f i LIBCMTD:dbgheap.obj
 0001:00021210       __CrtDumpMemoryLeaks       22022210 f   LIBCMTD:dbgheap.obj
 0001:00021290       __CrtMemDumpStatistics     22022290 f   LIBCMTD:dbgheap.obj
 0001:000213a0       __aligned_malloc           220223a0 f   LIBCMTD:dbgheap.obj
 0001:000213c0       __aligned_malloc_dbg       220223c0 f   LIBCMTD:dbgheap.obj
 0001:000213f0       __aligned_realloc          220223f0 f   LIBCMTD:dbgheap.obj
 0001:00021420       __aligned_recalloc         22022420 f   LIBCMTD:dbgheap.obj
 0001:00021450       __aligned_realloc_dbg      22022450 f   LIBCMTD:dbgheap.obj
 0001:00021480       __aligned_recalloc_dbg     22022480 f   LIBCMTD:dbgheap.obj
 0001:000214b0       __aligned_offset_malloc    220224b0 f   LIBCMTD:dbgheap.obj
 0001:000214d0       __aligned_offset_malloc_dbg 220224d0 f   LIBCMTD:dbgheap.obj
 0001:00021690       __aligned_offset_realloc   22022690 f   LIBCMTD:dbgheap.obj
 0001:000216c0       __aligned_offset_recalloc  220226c0 f   LIBCMTD:dbgheap.obj
 0001:000216f0       __aligned_offset_realloc_dbg 220226f0 f   LIBCMTD:dbgheap.obj
 0001:000219e0       __aligned_offset_recalloc_dbg 220229e0 f   LIBCMTD:dbgheap.obj
 0001:00021aa0       __aligned_free             22022aa0 f   LIBCMTD:dbgheap.obj
 0001:00021ac0       __aligned_free_dbg         22022ac0 f   LIBCMTD:dbgheap.obj
 0001:00021b70       __CrtSetDebugFillThreshold 22022b70 f   LIBCMTD:dbgheap.obj
 0001:00021b90       __CrtSetCheckCount         22022b90 f   LIBCMTD:dbgheap.obj
 0001:00021bb0       __CrtGetCheckCount         22022bb0 f   LIBCMTD:dbgheap.obj
 0001:00021bc0       __aligned_msize            22022bc0 f   LIBCMTD:dbgheap.obj
 0001:00021be0       __aligned_msize_dbg        22022be0 f   LIBCMTD:dbgheap.obj
 0001:00021cf0       __cinit                    22022cf0 f   LIBCMTD:crt0dat.obj
 0001:00021d90       _exit                      22022d90 f   LIBCMTD:crt0dat.obj
 0001:00021db0       __exit                     22022db0 f   LIBCMTD:crt0dat.obj
 0001:00021dd0       __cexit                    22022dd0 f   LIBCMTD:crt0dat.obj
 0001:00021df0       __c_exit                   22022df0 f   LIBCMTD:crt0dat.obj
 0001:00021e10       __amsg_exit                22022e10 f   LIBCMTD:crt0dat.obj
 0001:00021e40       ___freeCrtMemory           22022e40 f   LIBCMTD:crt0dat.obj
 0001:00022180       ___crtCorExitProcess       22023180 f   LIBCMTD:crt0dat.obj
 0001:000221c0       ___crtExitProcess          220231c0 f   LIBCMTD:crt0dat.obj
 0001:000221e0       __lockexit                 220231e0 f   LIBCMTD:crt0dat.obj
 0001:00022200       __unlockexit               22023200 f   LIBCMTD:crt0dat.obj
 0001:00022220       __init_pointers            22023220 f   LIBCMTD:crt0dat.obj
 0001:000222b0       __initterm_e               220232b0 f   LIBCMTD:crt0dat.obj
 0001:000222f0       __get_wpgmptr              220232f0 f   LIBCMTD:crt0dat.obj
 0001:000223e0       __get_pgmptr               220233e0 f   LIBCMTD:crt0dat.obj
 0001:000224d0       __ioinit                   220234d0 f   LIBCMTD:ioinit.obj
 0001:000228e0       __ioterm                   220238e0 f   LIBCMTD:ioinit.obj
 0001:00022980       __setenvp                  22023980 f   LIBCMTD:stdenvp.obj
 0001:00022b20       __setargv                  22023b20 f   LIBCMTD:stdargv.obj
 0001:00022c40       __set_pgmptr               22023c40 f i LIBCMTD:stdargv.obj
 0001:00022fb0       ___crtGetEnvironmentStringsA 22023fb0 f   LIBCMTD:a_env.obj
 0001:000230b0       __RTC_Initialize           220240b0 f   LIBCMTD:_initsect_.obj
 0001:000230e0       __RTC_Terminate            220240e0 f   LIBCMTD:_initsect_.obj
 0001:00023110       __heap_init                22024110 f   LIBCMTD:heapinit.obj
 0001:00023150       __heap_term                22024150 f   LIBCMTD:heapinit.obj
 0001:00023170       __get_heap_handle          22024170 f   LIBCMTD:heapinit.obj
 0001:000231b0       ___security_init_cookie    220241b0 f   LIBCMTD:gs_support.obj
 0001:00023290       ___CppXcptFilter           22024290 f   LIBCMTD:winxfltr.obj
 0001:000232c0       __XcptFilter               220242c0 f   LIBCMTD:winxfltr.obj
 0001:00023520       __CrtDefaultAllocHook      22024520 f   LIBCMTD:dbghook.obj
 0001:00023530       __crt_debugger_hook        22024530 f   LIBCMTD:dbghook.obj
 0001:00023550       __mtinitlocks              22024550 f   LIBCMTD:mlock.obj
 0001:000235e0       __mtdeletelocks            220245e0 f   LIBCMTD:mlock.obj
 0001:000236a0       __mtinitlocknum            220246a0 f   LIBCMTD:mlock.obj
 0001:000237f0       __lock                     220247f0 f   LIBCMTD:mlock.obj
 0001:00023830       __unlock                   22024830 f   LIBCMTD:mlock.obj
 0001:00023850       __lockerr_exit             22024850 f   LIBCMTD:mlock.obj
 0001:00023870       __CrtSetReportHookW2       22024870 f   LIBCMTD:dbgrptw.obj
 0001:00023ba0       __CrtDbgReportW            22024ba0 f   LIBCMTD:dbgrptw.obj
 0001:00023be0       __CrtDbgReportWV           22024be0 f i LIBCMTD:dbgrptw.obj
 0001:00023c10       ___crtMessageWindowW       22024c10 f   LIBCMTD:dbgrptw.obj
 0001:00024010       ?_CrtDbgReportW@@YAHHPBGH00ZZ 22025010 f   LIBCMTD:dbgrptw.obj
 0001:00024050       _free                      22025050 f   LIBCMTD:dbgfree.obj
 0001:00024070       _strcpy_s                  22025070 f   LIBCMTD:strcpy_s.obj
 0001:00024350       _malloc                    22025350 f   LIBCMTD:dbgmalloc.obj
 0001:00024380       _strlen                    22025380 f   LIBCMTD:strlen.obj
 0001:00024410       ___unDName                 22025410 f   LIBCMTD:undname.obj
 0001:000244f0       ?Constructor@_HeapManager@@QAEXP6APAXI@ZP6AXPAX@Z@Z 220254f0 f i LIBCMTD:undname.obj
 0001:00024530       ?Destructor@_HeapManager@@QAEXXZ 22025530 f i LIBCMTD:undname.obj
 0001:00024580       ___unDNameEx               22025580 f   LIBCMTD:undname.obj
 0001:00024660       ??0UnDecorator@@QAE@PADPBDHP6APADJ@ZK@Z 22025660 f i LIBCMTD:undname.obj
 0001:00024700       ??BUnDecorator@@QAEPADXZ   22025700 f i LIBCMTD:undname.obj
 0001:00024930       ?dbGetString@DName@@QBEPADXZ 22025930 f   LIBCMTD:undname.obj
 0001:00024960       ?getDecoratedName@UnDecorator@@CA?AVDName@@XZ 22025960 f   LIBCMTD:undname.obj
 0001:00024c70       ?getSymbolName@UnDecorator@@CA?AVDName@@XZ 22025c70 f i LIBCMTD:undname.obj
 0001:00024cf0       ?getZName@UnDecorator@@CA?AVDName@@_N0@Z 22025cf0 f   LIBCMTD:undname.obj
 0001:00024fa0       ?getOperatorName@UnDecorator@@CA?AVDName@@_NPA_N@Z 22025fa0 f i LIBCMTD:undname.obj
 0001:00025910       ?getStringEncoding@UnDecorator@@CA?AVDName@@PADH@Z 22026910 f   LIBCMTD:undname.obj
 0001:00025a10       ?getScope@UnDecorator@@CA?AVDName@@XZ 22026a10 f   LIBCMTD:undname.obj
 0001:00025df0       ?getSignedDimension@UnDecorator@@CA?AVDName@@XZ 22026df0 f   LIBCMTD:undname.obj
 0001:00025e70       ?getDimension@UnDecorator@@CA?AVDName@@_N@Z 22026e70 f   LIBCMTD:undname.obj
 0001:00026120       ?getNumberOfDimensions@UnDecorator@@CAHXZ 22027120 f   LIBCMTD:undname.obj
 0001:00026220       ?getTemplateName@UnDecorator@@CA?AVDName@@_N@Z 22027220 f   LIBCMTD:undname.obj
 0001:000263e0       ?getTemplateArgumentList@UnDecorator@@CA?AVDName@@XZ 220273e0 f   LIBCMTD:undname.obj
 0001:00026660       ?getTemplateConstant@UnDecorator@@CA?AVDName@@XZ 22027660 f   LIBCMTD:undname.obj
 0001:00026af0       ?composeDeclaration@UnDecorator@@CA?AVDName@@ABV2@@Z 22027af0 f i LIBCMTD:undname.obj
 0001:000280f0       ?getTypeEncoding@UnDecorator@@CAHXZ 220290f0 f i LIBCMTD:undname.obj
 0001:00028b30       ?getBasedType@UnDecorator@@CA?AVDName@@XZ 22029b30 f   LIBCMTD:undname.obj
 0001:00028bf0       ?getScopedName@UnDecorator@@CA?AVDName@@XZ 22029bf0 f   LIBCMTD:undname.obj
 0001:00028d10       ?getCallingConvention@UnDecorator@@CA?AVDName@@XZ 22029d10 f   LIBCMTD:undname.obj
 0001:00028e90       ?getReturnType@UnDecorator@@CA?AVDName@@PAV2@@Z 22029e90 f   LIBCMTD:undname.obj
 0001:00028ee0       ?getDataType@UnDecorator@@CA?AVDName@@PAV2@@Z 22029ee0 f   LIBCMTD:undname.obj
 0001:00029000       ?getPrimaryDataType@UnDecorator@@CA?AVDName@@ABV2@@Z 2202a000 f   LIBCMTD:undname.obj
 0001:000293a0       ?getArgumentTypes@UnDecorator@@CA?AVDName@@XZ 2202a3a0 f   LIBCMTD:undname.obj
 0001:00029500       ?getArgumentList@UnDecorator@@CA?AVDName@@XZ 2202a500 f   LIBCMTD:undname.obj
 0001:00029650       ?getThrowTypes@UnDecorator@@CA?AVDName@@XZ 2202a650 f   LIBCMTD:undname.obj
 0001:00029700       ?getBasicDataType@UnDecorator@@CA?AVDName@@ABV2@@Z 2202a700 f   LIBCMTD:undname.obj
 0001:00029cc0       ?getECSUDataType@UnDecorator@@CA?AVDName@@XZ 2202acc0 f   LIBCMTD:undname.obj
 0001:00029e90       ?getECSUName@UnDecorator@@CA?AVDName@@XZ 2202ae90 f i LIBCMTD:undname.obj
 0001:00029eb0       ?getEnumType@UnDecorator@@CA?AVDName@@XZ 2202aeb0 f i LIBCMTD:undname.obj
 0001:0002a000       ?getFunctionIndirectType@UnDecorator@@CA?AVDName@@ABV2@@Z 2202b000 f   LIBCMTD:undname.obj
 0001:0002a440       ?getPtrRefType@UnDecorator@@CA?AVDName@@ABV2@0PBD@Z 2202b440 f   LIBCMTD:undname.obj
 0001:0002a5a0       ?getExtendedDataIndirectType@UnDecorator@@CA?AVDName@@AAPBDAA_NH@Z 2202b5a0 f   LIBCMTD:undname.obj
 0001:0002a7c0       ?getDataIndirectType@UnDecorator@@CA?AVDName@@ABV2@PBD0H@Z 2202b7c0 f   LIBCMTD:undname.obj
 0001:0002aec0       ?getPtrRefDataType@UnDecorator@@CA?AVDName@@ABV2@H@Z 2202bec0 f i LIBCMTD:undname.obj
 0001:0002b000       ?getArrayType@UnDecorator@@CA?AVDName@@ABV2@@Z 2202c000 f i LIBCMTD:undname.obj
 0001:0002b230       ?getLexicalFrame@UnDecorator@@CA?AVDName@@XZ 2202c230 f i LIBCMTD:undname.obj
 0001:0002b270       ?getThisType@UnDecorator@@CA?AVDName@@XZ 2202c270 f i LIBCMTD:undname.obj
 0001:0002b2b0       ?getPointerType@UnDecorator@@CA?AVDName@@ABV2@0@Z 2202c2b0 f i LIBCMTD:undname.obj
 0001:0002b2e0       ?getPointerTypeArray@UnDecorator@@CA?AVDName@@ABV2@0@Z 2202c2e0 f i LIBCMTD:undname.obj
 0001:0002b310       ?getReferenceType@UnDecorator@@CA?AVDName@@ABV2@0PBD@Z 2202c310 f i LIBCMTD:undname.obj
 0001:0002b340       ?getDisplacement@UnDecorator@@CA?AVDName@@XZ 2202c340 f i LIBCMTD:undname.obj
 0001:0002b360       ?getCallIndex@UnDecorator@@CA?AVDName@@XZ 2202c360 f i LIBCMTD:undname.obj
 0001:0002b380       ?getGuardNumber@UnDecorator@@CA?AVDName@@XZ 2202c380 f i LIBCMTD:undname.obj
 0001:0002b3a0       ?getVbTableType@UnDecorator@@CA?AVDName@@ABV2@@Z 2202c3a0 f i LIBCMTD:undname.obj
 0001:0002b3c0       ?getVCallThunkType@UnDecorator@@CA?AVDName@@XZ 2202c3c0 f i LIBCMTD:undname.obj
 0001:0002b420       ?getVfTableType@UnDecorator@@CA?AVDName@@ABV2@@Z 2202c420 f i LIBCMTD:undname.obj
 0001:0002b5e0       ?getStorageConvention@UnDecorator@@CA?AVDName@@XZ 2202c5e0 f i LIBCMTD:undname.obj
 0001:0002b600       ?getDataIndirectType@UnDecorator@@CA?AVDName@@XZ 2202c600 f i LIBCMTD:undname.obj
 0001:0002b640       ?getVdispMapType@UnDecorator@@CA?AVDName@@ABV2@@Z 2202c640 f i LIBCMTD:undname.obj
 0001:0002b6b0       ?getExternalDataType@UnDecorator@@CA?AVDName@@ABV2@@Z 2202c6b0 f i LIBCMTD:undname.obj
 0001:0002b740       ?doMSKeywords@UnDecorator@@SAHXZ 2202c740 f i LIBCMTD:undname.obj
 0001:0002b760       ?doPtr64@UnDecorator@@SAHXZ 2202c760 f i LIBCMTD:undname.obj
 0001:0002b780       ?doFunctionReturns@UnDecorator@@SAHXZ 2202c780 f i LIBCMTD:undname.obj
 0001:0002b7a0       ?doAllocationModel@UnDecorator@@SAHXZ 2202c7a0 f i LIBCMTD:undname.obj
 0001:0002b7c0       ?doAllocationLanguage@UnDecorator@@SAHXZ 2202c7c0 f i LIBCMTD:undname.obj
 0001:0002b7e0       ?doThisTypes@UnDecorator@@SAHXZ 2202c7e0 f i LIBCMTD:undname.obj
 0001:0002b800       ?doAccessSpecifiers@UnDecorator@@SAHXZ 2202c800 f i LIBCMTD:undname.obj
 0001:0002b820       ?doThrowTypes@UnDecorator@@SAHXZ 2202c820 f i LIBCMTD:undname.obj
 0001:0002b840       ?doMemberTypes@UnDecorator@@SAHXZ 2202c840 f i LIBCMTD:undname.obj
 0001:0002b860       ?doNameOnly@UnDecorator@@SAHXZ 2202c860 f i LIBCMTD:undname.obj
 0001:0002b880       ?doTypeOnly@UnDecorator@@SAHXZ 2202c880 f i LIBCMTD:undname.obj
 0001:0002b8a0       ?haveTemplateParameters@UnDecorator@@SAHXZ 2202c8a0 f i LIBCMTD:undname.obj
 0001:0002b8c0       ?doEcsu@UnDecorator@@SAHXZ 2202c8c0 f i LIBCMTD:undname.obj
 0001:0002b8e0       ?doEllipsis@UnDecorator@@SAHXZ 2202c8e0 f i LIBCMTD:undname.obj
 0001:0002b900       ?UScore@UnDecorator@@SAPBDW4Tokens@@@Z 2202c900 f   LIBCMTD:undname.obj
 0001:0002b930       ?doUnderScore@UnDecorator@@SAHXZ 2202c930 f i LIBCMTD:undname.obj
 0001:0002b950       ??2@YAPAXIAAV_HeapManager@@H@Z 2202c950 f i LIBCMTD:undname.obj
 0001:0002b970       ?getMemory@_HeapManager@@QAEPAXIH@Z 2202c970 f   LIBCMTD:undname.obj
 0001:0002ba80       ??0Block@_HeapManager@@QAE@XZ 2202ca80 f i LIBCMTD:undname.obj
 0001:0002baa0       ??H@YA?AVDName@@DABV0@@Z   2202caa0 f i LIBCMTD:undname.obj
 0001:0002bad0       ??H@YA?AVDName@@W4DNameStatus@@ABV0@@Z 2202cad0 f i LIBCMTD:undname.obj
 0001:0002bb00       ??H@YA?AVDName@@PBDABV0@@Z 2202cb00 f i LIBCMTD:undname.obj
 0001:0002bb30       ??0DName@@QAE@XZ           2202cb30 f i LIBCMTD:undname.obj
 0001:0002bbf0       ??0DName@@QAE@D@Z          2202cbf0 f   LIBCMTD:undname.obj
 0001:0002bcd0       ??0DName@@QAE@ABV0@@Z      2202ccd0 f i LIBCMTD:undname.obj
 0001:0002bd00       ??0DName@@QAE@PAV0@@Z      2202cd00 f   LIBCMTD:undname.obj
 0001:0002be30       ??0DName@@QAE@PBD@Z        2202ce30 f   LIBCMTD:undname.obj
 0001:0002bf20       ??0DName@@QAE@AAPBDD@Z     2202cf20 f   LIBCMTD:undname.obj
 0001:0002c1e0       ?doNoIdentCharCheck@UnDecorator@@SAHXZ 2202d1e0 f i LIBCMTD:undname.obj
 0001:0002c200       ??0DName@@QAE@_K@Z         2202d200 f   LIBCMTD:undname.obj
 0001:0002c340       ??0DName@@QAE@_J@Z         2202d340 f   LIBCMTD:undname.obj
 0001:0002c4c0       ??0DName@@QAE@W4DNameStatus@@@Z 2202d4c0 f   LIBCMTD:undname.obj
 0001:0002c5e0       ?isValid@DName@@QBEHXZ     2202d5e0 f i LIBCMTD:undname.obj
 0001:0002c610       ?isEmpty@DName@@QBEHXZ     2202d610 f i LIBCMTD:undname.obj
 0001:0002c630       ?status@DName@@QBE?AW4DNameStatus@@XZ 2202d630 f i LIBCMTD:undname.obj
 0001:0002c650       ?setPtrRef@DName@@QAEAAV1@XZ 2202d650 f i LIBCMTD:undname.obj
 0001:0002c680       ?isPtrRef@DName@@QBEHXZ    2202d680 f i LIBCMTD:undname.obj
 0001:0002c6a0       ?isUDC@DName@@QBEHXZ       2202d6a0 f i LIBCMTD:undname.obj
 0001:0002c6e0       ?setIsUDC@DName@@QAEXXZ    2202d6e0 f i LIBCMTD:undname.obj
 0001:0002c710       ?isUDTThunk@DName@@QBEHXZ  2202d710 f i LIBCMTD:undname.obj
 0001:0002c750       ?setIsArray@DName@@QAEXXZ  2202d750 f i LIBCMTD:undname.obj
 0001:0002c770       ?isArray@DName@@QBEHXZ     2202d770 f i LIBCMTD:undname.obj
 0001:0002c790       ?isNoTE@DName@@QBEHXZ      2202d790 f i LIBCMTD:undname.obj
 0001:0002c7b0       ?setIsNoTE@DName@@QAEXXZ   2202d7b0 f i LIBCMTD:undname.obj
 0001:0002c7d0       ?isPinPtr@DName@@QBEHXZ    2202d7d0 f i LIBCMTD:undname.obj
 0001:0002c7f0       ?setIsPinPtr@DName@@QAEXXZ 2202d7f0 f i LIBCMTD:undname.obj
 0001:0002c810       ?isComArray@DName@@QBEHXZ  2202d810 f i LIBCMTD:undname.obj
 0001:0002c830       ?setIsComArray@DName@@QAEXXZ 2202d830 f i LIBCMTD:undname.obj
 0001:0002c850       ?isVCallThunk@DName@@QBEHXZ 2202d850 f i LIBCMTD:undname.obj
 0001:0002c870       ?setIsVCallThunk@DName@@QAEXXZ 2202d870 f i LIBCMTD:undname.obj
 0001:0002c890       ?length@DName@@QBEHXZ      2202d890 f i LIBCMTD:undname.obj
 0001:0002c8c0       ?getLastChar@DName@@QBEDXZ 2202d8c0 f i LIBCMTD:undname.obj
 0001:0002c8f0       ?getString@DName@@QBEPADPADH@Z 2202d8f0 f i LIBCMTD:undname.obj
 0001:0002c980       ?getString@DName@@QBEPADPAD0@Z 2202d980 f i LIBCMTD:undname.obj
 0001:0002c9c0       ??HDName@@QBE?AV0@D@Z      2202d9c0 f   LIBCMTD:undname.obj
 0001:0002ca00       ??HDName@@QBE?AV0@PBD@Z    2202da00 f   LIBCMTD:undname.obj
 0001:0002ca40       ??HDName@@QBE?AV0@ABV0@@Z  2202da40 f   LIBCMTD:undname.obj
 0001:0002ca80       ??HDName@@QBE?AV0@PAV0@@Z  2202da80 f   LIBCMTD:undname.obj
 0001:0002cac0       ??HDName@@QBE?AV0@W4DNameStatus@@@Z 2202dac0 f   LIBCMTD:undname.obj
 0001:0002cb00       ?append@DName@@AAEXPAVDNameNode@@@Z 2202db00 f   LIBCMTD:undname.obj
 0001:0002cb90       ??YDName@@QAEAAV0@D@Z      2202db90 f   LIBCMTD:undname.obj
 0001:0002cc20       ??YDName@@QAEAAV0@PBD@Z    2202dc20 f   LIBCMTD:undname.obj
 0001:0002ccc0       ??YDName@@QAEAAV0@ABV0@@Z  2202dcc0 f   LIBCMTD:undname.obj
 0001:0002cd30       ??YDName@@QAEAAV0@PAV0@@Z  2202dd30 f   LIBCMTD:undname.obj
 0001:0002cdf0       ??YDName@@QAEAAV0@W4DNameStatus@@@Z 2202ddf0 f   LIBCMTD:undname.obj
 0001:0002ce60       ??_5DName@@QAEAAV0@ABV0@@Z 2202de60 f   LIBCMTD:undname.obj
 0001:0002cec0       ??4DName@@QAEAAV0@D@Z      2202dec0 f i LIBCMTD:undname.obj
 0001:0002cfa0       ??4DName@@QAEAAV0@PBD@Z    2202dfa0 f   LIBCMTD:undname.obj
 0001:0002d080       ??4DName@@QAEAAV0@ABV0@@Z  2202e080 f   LIBCMTD:undname.obj
 0001:0002d0b0       ??4DName@@QAEAAV0@PAV0@@Z  2202e0b0 f   LIBCMTD:undname.obj
 0001:0002d1f0       ??4DName@@QAEAAV0@W4DNameStatus@@@Z 2202e1f0 f   LIBCMTD:undname.obj
 0001:0002d2f0       ?doPchar@DName@@AAEXPBDH@Z 2202e2f0 f   LIBCMTD:undname.obj
 0001:0002d430       ?isFull@Replicator@@QBEHXZ 2202e430 f i LIBCMTD:undname.obj
 0001:0002d450       ??0Replicator@@QAE@XZ      2202e450 f i LIBCMTD:undname.obj
 0001:0002d470       ??YReplicator@@QAEAAV0@ABVDName@@@Z 2202e470 f   LIBCMTD:undname.obj
 0001:0002d500       ??AReplicator@@QBE?AVDName@@H@Z 2202e500 f   LIBCMTD:undname.obj
 0001:0002d570       ??0DNameNode@@IAE@XZ       2202e570 f   LIBCMTD:undname.obj
 0001:0002d590       ??0charNode@@QAE@D@Z       2202e590 f   LIBCMTD:undname.obj
 0001:0002d5c0       ?length@charNode@@UBEHXZ   2202e5c0 f i LIBCMTD:undname.obj
 0001:0002d5e0       ?getLastChar@charNode@@UBEDXZ 2202e5e0 f i LIBCMTD:undname.obj
 0001:0002d600       ?getString@charNode@@UBEPADPAD0@Z 2202e600 f i LIBCMTD:undname.obj
 0001:0002d630       ??0pcharNode@@QAE@PBDH@Z   2202e630 f   LIBCMTD:undname.obj
 0001:0002d6c0       ?length@pcharNode@@UBEHXZ  2202e6c0 f i LIBCMTD:undname.obj
 0001:0002d6e0       ?getLastChar@pcharNode@@UBEDXZ 2202e6e0 f i LIBCMTD:undname.obj
 0001:0002d720       ?getString@pcharNode@@UBEPADPAD0@Z 2202e720 f i LIBCMTD:undname.obj
 0001:0002d750       ?getStringHelper@@YAPADPAD00H@Z 2202e750 f i LIBCMTD:undname.obj
 0001:0002d790       ??0pDNameNode@@QAE@PAVDName@@@Z 2202e790 f   LIBCMTD:undname.obj
 0001:0002d7f0       ?length@pDNameNode@@UBEHXZ 2202e7f0 f i LIBCMTD:undname.obj
 0001:0002d830       ?getLastChar@pDNameNode@@UBEDXZ 2202e830 f i LIBCMTD:undname.obj
 0001:0002d860       ?getString@pDNameNode@@UBEPADPAD0@Z 2202e860 f i LIBCMTD:undname.obj
 0001:0002d8a0       ??0DNameStatusNode@@AAE@W4DNameStatus@@@Z 2202e8a0 f   LIBCMTD:undname.obj
 0001:0002d8f0       ?length@DNameStatusNode@@UBEHXZ 2202e8f0 f i LIBCMTD:undname.obj
 0001:0002d910       ?getLastChar@DNameStatusNode@@UBEDXZ 2202e910 f i LIBCMTD:undname.obj
 0001:0002d930       ?getString@DNameStatusNode@@UBEPADPAD0@Z 2202e930 f i LIBCMTD:undname.obj
 0001:0002d970       ?make@DNameStatusNode@@SAPAV1@W4DNameStatus@@@Z 2202e970 f i LIBCMTD:undname.obj
 0001:0002da20       ??0pairNode@@QAE@PAVDNameNode@@0@Z 2202ea20 f   LIBCMTD:undname.obj
 0001:0002da60       ?length@pairNode@@UBEHXZ   2202ea60 f i LIBCMTD:undname.obj
 0001:0002dab0       ?getLastChar@pairNode@@UBEDXZ 2202eab0 f i LIBCMTD:undname.obj
 0001:0002db00       ?getString@pairNode@@UBEPADPAD0@Z 2202eb00 f i LIBCMTD:undname.obj
 0001:0002dc40       __malloc_base              2202ec40 f   LIBCMTD:malloc.obj
 0001:0002dcd0       __heap_alloc_base          2202ecd0 f i LIBCMTD:malloc.obj
 0001:0002dd30       __free_base                2202ed30 f   LIBCMTD:free.obj
 0001:0002dd80       __initp_misc_invarg        2202ed80 f   LIBCMTD:invarg.obj
 0001:0002dd90       __invalid_parameter        2202ed90 f   LIBCMTD:invarg.obj
 0001:0002ddf0       __invoke_watson            2202edf0 f   LIBCMTD:invarg.obj
 0001:0002de20       __call_reportfault         2202ee20 f   LIBCMTD:invarg.obj
 0001:0002df70       __set_invalid_parameter_handler 2202ef70 f   LIBCMTD:invarg.obj
 0001:0002dfb0       __get_invalid_parameter_handler 2202efb0 f   LIBCMTD:invarg.obj
 0001:0002dfe0       ?_invalid_parameter@@YAXPBG00II@Z 2202efe0 f   LIBCMTD:invarg.obj
 0001:0002e010       ?_invoke_watson@@YAXPBG00II@Z 2202f010 f   LIBCMTD:invarg.obj
 0001:0002e030       ?_ValidateRead@@YAHPBXI@Z  2202f030 f   LIBCMTD:validate.obj
 0001:0002e060       ?_ValidateWrite@@YAHPAXI@Z 2202f060 f   LIBCMTD:validate.obj
 0001:0002e090       ?_ValidateExecute@@YAHP6GHXZ@Z 2202f090 f   LIBCMTD:validate.obj
 0001:0002e0c0       __CxxThrowException@8      2202f0c0 f   LIBCMTD:throw.obj
 0001:0002e120       ??0exception@std@@QAE@XZ   2202f120 f   LIBCMTD:stdexcpt.obj
 0001:0002e150       ??_Eexception@std@@UAEPAXI@Z 2202f150 f i LIBCMTD:stdexcpt.obj
 0001:0002e150       ??_Gexception@std@@UAEPAXI@Z 2202f150 f i LIBCMTD:stdexcpt.obj
 0001:0002e180       ??0exception@std@@QAE@ABQBD@Z 2202f180 f   LIBCMTD:stdexcpt.obj
 0001:0002e1c0       ??0exception@std@@QAE@ABQBDH@Z 2202f1c0 f   LIBCMTD:stdexcpt.obj
 0001:0002e1f0       ??0exception@std@@QAE@ABV01@@Z 2202f1f0 f   LIBCMTD:stdexcpt.obj
 0001:0002e230       ??4exception@std@@QAEAAV01@ABV01@@Z 2202f230 f   LIBCMTD:stdexcpt.obj
 0001:0002e280       ??1exception@std@@UAE@XZ   2202f280 f   LIBCMTD:stdexcpt.obj
 0001:0002e2a0       ?what@exception@std@@UBEPBDXZ 2202f2a0 f   LIBCMTD:stdexcpt.obj
 0001:0002e2d0       ?_Copy_str@exception@std@@AAEXPBD@Z 2202f2d0 f   LIBCMTD:stdexcpt.obj
 0001:0002e340       ?_Tidy@exception@std@@AAEXXZ 2202f340 f   LIBCMTD:stdexcpt.obj
 0001:0002e380       ??0bad_cast@std@@QAE@PBD@Z 2202f380 f   LIBCMTD:stdexcpt.obj
 0001:0002e3b0       ??_Gbad_cast@std@@UAEPAXI@Z 2202f3b0 f i LIBCMTD:stdexcpt.obj
 0001:0002e3b0       ??_Ebad_cast@std@@UAEPAXI@Z 2202f3b0 f i LIBCMTD:stdexcpt.obj
 0001:0002e3e0       ??0bad_cast@std@@QAE@ABV01@@Z 2202f3e0 f   LIBCMTD:stdexcpt.obj
 0001:0002e410       ??1bad_cast@std@@UAE@XZ    2202f410 f   LIBCMTD:stdexcpt.obj
 0001:0002e430       ??0bad_typeid@std@@QAE@PBD@Z 2202f430 f   LIBCMTD:stdexcpt.obj
 0001:0002e460       ??_Ebad_typeid@std@@UAEPAXI@Z 2202f460 f i LIBCMTD:stdexcpt.obj
 0001:0002e460       ??_Gbad_typeid@std@@UAEPAXI@Z 2202f460 f i LIBCMTD:stdexcpt.obj
 0001:0002e490       ??0bad_typeid@std@@QAE@ABV01@@Z 2202f490 f   LIBCMTD:stdexcpt.obj
 0001:0002e4c0       ??1bad_typeid@std@@UAE@XZ  2202f4c0 f   LIBCMTD:stdexcpt.obj
 0001:0002e4e0       ??0__non_rtti_object@std@@QAE@PBD@Z 2202f4e0 f   LIBCMTD:stdexcpt.obj
 0001:0002e510       ??_E__non_rtti_object@std@@UAEPAXI@Z 2202f510 f i LIBCMTD:stdexcpt.obj
 0001:0002e510       ??_G__non_rtti_object@std@@UAEPAXI@Z 2202f510 f i LIBCMTD:stdexcpt.obj
 0001:0002e540       ??0__non_rtti_object@std@@QAE@ABV01@@Z 2202f540 f   LIBCMTD:stdexcpt.obj
 0001:0002e570       ??1__non_rtti_object@std@@UAE@XZ 2202f570 f   LIBCMTD:stdexcpt.obj
 0001:0002e590       _memmove                   2202f590 f   LIBCMTD:memmove.obj
 0001:0002e900       __global_unwind2           2202f900 f   LIBCMTD:exsup.obj
 0001:0002e965       __local_unwind2            2202f965 f   LIBCMTD:exsup.obj
 0001:0002e9e9       __abnormal_termination     2202f9e9 f   LIBCMTD:exsup.obj
 0001:0002ea0c       __NLG_Notify1              2202fa0c f   LIBCMTD:exsup.obj
 0001:0002ea15       __NLG_Notify               2202fa15 f   LIBCMTD:exsup.obj
 0001:0002ea2c       __NLG_Dispatch             2202fa2c     LIBCMTD:exsup.obj
 0001:0002ea2c       __NLG_Dispatch2            2202fa2c     LIBCMTD:exsup.obj
 0001:0002ea34       __NLG_Call                 2202fa34 f   LIBCMTD:exsup.obj
 0001:0002ea36       __NLG_Return2              2202fa36     LIBCMTD:exsup.obj
 0001:0002ea40       ___addlocaleref            2202fa40 f   LIBCMTD:localref.obj
 0001:0002eb60       ___removelocaleref         2202fb60 f   LIBCMTD:localref.obj
 0001:0002ec90       ___freetlocinfo            2202fc90 f   LIBCMTD:localref.obj
 0001:0002ef70       __updatetlocinfoEx_nolock  2202ff70 f   LIBCMTD:localref.obj
 0001:0002f000       ___updatetlocinfo          22030000 f   LIBCMTD:localref.obj
 0001:0002f0d0       ___updatetmbcinfo          220300d0 f   LIBCMTD:mbctype.obj
 0001:0002f1e0       __setmbcp                  220301e0 f   LIBCMTD:mbctype.obj
 0001:0002f590       __setmbcp_nolock           22030590 f   LIBCMTD:mbctype.obj
 0001:0002fd80       __getmbcp                  22030d80 f   LIBCMTD:mbctype.obj
 0001:0002fdf0       ___initmbctable            22030df0 f   LIBCMTD:mbctype.obj
 0001:0002fe20       _abort                     22030e20 f   LIBCMTD:abort.obj
 0001:0002fe80       __set_abort_behavior       22030e80 f   LIBCMTD:abort.obj
 0001:0002feb0       __dosmaperr                22030eb0 f   LIBCMTD:dosmap.obj
 0001:0002fee0       __get_errno_from_oserr     22030ee0 f   LIBCMTD:dosmap.obj
 0001:0002ff60       __set_errno                22030f60 f   LIBCMTD:dosmap.obj
 0001:0002ff90       __get_errno                22030f90 f   LIBCMTD:dosmap.obj
 0001:00030010       __set_doserrno             22031010 f   LIBCMTD:dosmap.obj
 0001:00030040       __get_doserrno             22031040 f   LIBCMTD:dosmap.obj
 0001:000300c0       __errno                    220310c0 f   LIBCMTD:dosmap.obj
 0001:000300f0       ___doserrno                220310f0 f   LIBCMTD:dosmap.obj
 0001:00030120       __initp_heap_handler       22031120 f   LIBCMTD:handler.obj
 0001:00030130       ?_set_new_handler@@YAP6AHI@ZP6AHI@Z@Z 22031130 f   LIBCMTD:handler.obj
 0001:00030170       ?_set_new_handler@@YAP6AHI@ZH@Z 22031170 f   LIBCMTD:handler.obj
 0001:000301b0       ?_query_new_handler@@YAP6AHI@ZXZ 220311b0 f   LIBCMTD:handler.obj
 0001:000301d0       __callnewh                 220311d0 f   LIBCMTD:handler.obj
 0001:00030210       __CrtSetReportHook2        22031210 f   LIBCMTD:dbgrpt.obj
 0001:00030540       __CrtDbgReport             22031540 f   LIBCMTD:dbgrpt.obj
 0001:00030580       __CrtDbgReportV            22031580 f i LIBCMTD:dbgrpt.obj
 0001:000305b0       ___crtMessageWindowA       220315b0 f   LIBCMTD:dbgrpt.obj
 0001:000309b0       __expand_base              220319b0 f   LIBCMTD:expand.obj
 0001:00030b10       __realloc_base             22031b10 f   LIBCMTD:realloc.obj
 0001:00030c10       __heapchk                  22031c10 f   LIBCMTD:heapchk.obj
 0001:00030c40       __heapset                  22031c40 f   LIBCMTD:heapchk.obj
 0001:00030c50       _sprintf                   22031c50 f   LIBCMTD:sprintf.obj
 0001:00030df0       __sprintf_l                22031df0 f   LIBCMTD:sprintf.obj
 0001:00030e20       _sprintf_s                 22031e20 f   LIBCMTD:sprintf.obj
 0001:00030e50       __sprintf_s_l              22031e50 f   LIBCMTD:sprintf.obj
 0001:00030e80       __snprintf_s               22031e80 f   LIBCMTD:sprintf.obj
 0001:00030eb0       __snprintf_s_l             22031eb0 f   LIBCMTD:sprintf.obj
 0001:00030ee0       __sprintf_p                22031ee0 f   LIBCMTD:sprintf.obj
 0001:00030f10       __sprintf_p_l              22031f10 f   LIBCMTD:sprintf.obj
 0001:00030f40       __scprintf                 22031f40 f   LIBCMTD:sprintf.obj
 0001:00030f60       __scprintf_p               22031f60 f   LIBCMTD:sprintf.obj
 0001:00030f80       __scprintf_l               22031f80 f   LIBCMTD:sprintf.obj
 0001:00030fb0       __scprintf_p_l             22031fb0 f   LIBCMTD:sprintf.obj
 0001:00030fe0       __chvalidator              22031fe0 f   LIBCMTD:isctype.obj
 0001:00031030       __chvalidator_l            22032030 f   LIBCMTD:isctype.obj
 0001:000310e0       __isctype_l                220320e0 f   LIBCMTD:isctype.obj
 0001:00031200       __isctype                  22032200 f   LIBCMTD:isctype.obj
 0001:00031240       __onexit                   22032240 f   LIBCMTD:onexit.obj
 0001:00031410       _atexit                    22032410 f   LIBCMTD:onexit.obj
 0001:00031430       ___onexitinit              22032430 f   LIBCMTD:onexit.obj
 0001:00031490       __initp_misc_cfltcvt_tab   22032490 f   LIBCMTD:cmiscdat.obj
 0001:000314d0       __FF_MSGBANNER             220324d0 f   LIBCMTD:crt0msg.obj
 0001:00031520       __GET_RTERRMSG             22032520 f   LIBCMTD:crt0msg.obj
 0001:00031570       __NMSG_WRITE               22032570 f   LIBCMTD:crt0msg.obj
 0001:000318b0       __initp_misc_winsig        220328b0 f   LIBCMTD:winsig.obj
 0001:000318e0       _signal                    220328e0 f   LIBCMTD:winsig.obj
 0001:00031d80       _raise                     22032d80 f   LIBCMTD:winsig.obj
 0001:000320f0       ___get_sigabrt             220330f0 f   LIBCMTD:winsig.obj
 0001:00032110       ___fpecode                 22033110 f   LIBCMTD:winsig.obj
 0001:00032120       ___pxcptinfoptrs           22033120 f   LIBCMTD:winsig.obj
 0001:00032130       __initp_misc_rand_s        22033130 f   LIBCMTD:rand_s.obj
 0001:00032140       _rand_s                    22033140 f   LIBCMTD:rand_s.obj
 0001:00032360       ___getlocaleinfo           22033360 f   LIBCMTD:inithelp.obj
 0001:00032640       __initp_misc_purevirt      22033640 f   LIBCMTD:inithelp.obj
 0001:00032650       __ismbbkalnum_l            22033650 f   LIBCMTD:ismbbyte.obj
 0001:00032670       __ismbbkalnum              22033670 f   LIBCMTD:ismbbyte.obj
 0001:00032690       __ismbbkprint_l            22033690 f   LIBCMTD:ismbbyte.obj
 0001:000326b0       __ismbbkprint              220336b0 f   LIBCMTD:ismbbyte.obj
 0001:000326d0       __ismbbkpunct_l            220336d0 f   LIBCMTD:ismbbyte.obj
 0001:000326f0       __ismbbkpunct              220336f0 f   LIBCMTD:ismbbyte.obj
 0001:00032710       __ismbbalnum_l             22033710 f   LIBCMTD:ismbbyte.obj
 0001:00032730       __ismbbalnum               22033730 f   LIBCMTD:ismbbyte.obj
 0001:00032750       __ismbbalpha_l             22033750 f   LIBCMTD:ismbbyte.obj
 0001:00032770       __ismbbalpha               22033770 f   LIBCMTD:ismbbyte.obj
 0001:00032790       __ismbbgraph_l             22033790 f   LIBCMTD:ismbbyte.obj
 0001:000327b0       __ismbbgraph               220337b0 f   LIBCMTD:ismbbyte.obj
 0001:000327d0       __ismbbprint_l             220337d0 f   LIBCMTD:ismbbyte.obj
 0001:000327f0       __ismbbprint               220337f0 f   LIBCMTD:ismbbyte.obj
 0001:00032810       __ismbbpunct_l             22033810 f   LIBCMTD:ismbbyte.obj
 0001:00032830       __ismbbpunct               22033830 f   LIBCMTD:ismbbyte.obj
 0001:00032850       __ismbblead_l              22033850 f   LIBCMTD:ismbbyte.obj
 0001:00032870       __ismbblead                22033870 f   LIBCMTD:ismbbyte.obj
 0001:00032890       __ismbbtrail_l             22033890 f   LIBCMTD:ismbbyte.obj
 0001:000328b0       __ismbbtrail               220338b0 f   LIBCMTD:ismbbyte.obj
 0001:000328d0       __ismbbkana_l              220338d0 f   LIBCMTD:ismbbyte.obj
 0001:00032940       __ismbbkana                22033940 f   LIBCMTD:ismbbyte.obj
 0001:00032a30       __CrtDbgBreak              22033a30 f   LIBCMTD:dbgrptt.obj
 0001:00032a40       __CrtSetReportMode         22033a40 f   LIBCMTD:dbgrptt.obj
 0001:00032b80       __CrtSetReportFile         22033b80 f   LIBCMTD:dbgrptt.obj
 0001:00032c80       __CrtSetReportHook         22033c80 f   LIBCMTD:dbgrptt.obj
 0001:00032ca0       __CrtGetReportHook         22033ca0 f   LIBCMTD:dbgrptt.obj
 0001:00032cb0       __VCrtDbgReportA           22033cb0 f   LIBCMTD:dbgrptt.obj
 0001:000334e0       __VCrtDbgReportW           220344e0 f   LIBCMTD:dbgrptt.obj
 0001:00033e10       ___crtMessageBoxW          22034e10 f   LIBCMTD:crtmboxw.obj
 0001:00034030       __swprintf                 22035030 f   LIBCMTD:swprintf.obj
 0001:00034230       ___swprintf_l              22035230 f   LIBCMTD:swprintf.obj
 0001:00034260       _swprintf_s                22035260 f   LIBCMTD:swprintf.obj
 0001:00034290       __snwprintf_s              22035290 f   LIBCMTD:swprintf.obj
 0001:000342c0       __swprintf_p               220352c0 f   LIBCMTD:swprintf.obj
 0001:000342f0       __swprintf_s_l             220352f0 f   LIBCMTD:swprintf.obj
 0001:00034320       __snwprintf_s_l            22035320 f   LIBCMTD:swprintf.obj
 0001:00034350       __swprintf_p_l             22035350 f   LIBCMTD:swprintf.obj
 0001:00034380       __scwprintf                22035380 f   LIBCMTD:swprintf.obj
 0001:000343a0       __scwprintf_p              220353a0 f   LIBCMTD:swprintf.obj
 0001:000343c0       __scwprintf_l              220353c0 f   LIBCMTD:swprintf.obj
 0001:000343f0       __scwprintf_p_l            220353f0 f   LIBCMTD:swprintf.obj
 0001:00034420       _memcpy_s                  22035420 f   LIBCMTD:memcpy_s.obj
 0001:000345b0       _wcslen                    220355b0 f   LIBCMTD:wcslen.obj
 0001:000345e0       _wcscpy_s                  220355e0 f   LIBCMTD:wcscpy_s.obj
 0001:000348c0       _atol                      220358c0 f   LIBCMTD:atox.obj
 0001:000348e0       __atol_l                   220358e0 f   LIBCMTD:atox.obj
 0001:00034900       _atoi                      22035900 f   LIBCMTD:atox.obj
 0001:00034920       __atoi_l                   22035920 f   LIBCMTD:atox.obj
 0001:00034940       __atoi64                   22035940 f   LIBCMTD:atox.obj
 0001:00034960       __atoi64_l                 22035960 f   LIBCMTD:atox.obj
 0001:00034980       __allshl                   22035980 f   LIBCMTD:llshl.obj
 0001:000349a0       __aulldiv                  220359a0 f   LIBCMTD:ulldiv.obj
 0001:00034a10       __aullrem                  22035a10 f   LIBCMTD:ullrem.obj
 0001:00034a90       ___init_time               22035a90 f   LIBCMTD:inittime.obj
 0001:000357c0       ___free_lc_time            220367c0 f   LIBCMTD:inittime.obj
 0001:00035e30       ___init_numeric            22036e30 f   LIBCMTD:initnum.obj
 0001:000361e0       ___free_lconv_num          220371e0 f   LIBCMTD:initnum.obj
 0001:00036290       ___init_monetary           22037290 f   LIBCMTD:initmon.obj
 0001:00036880       ___free_lconv_mon          22037880 f   LIBCMTD:initmon.obj
 0001:00036a30       _localeconv                22037a30 f   LIBCMTD:lconv.obj
 0001:00036a80       ___pwctype_func            22037a80 f   LIBCMTD:ctype.obj
 0001:00036a90       ___pctype_func             22037a90 f   LIBCMTD:ctype.obj
 0001:00036ae0       ___crtLCMapStringA         22037ae0 f   LIBCMTD:a_map.obj
 0001:00036dd0       __MarkAllocaS              22037dd0 f i LIBCMTD:a_map.obj
 0001:00036e00       __freea                    22037e00 f i LIBCMTD:a_map.obj
 0001:00036ec0       ___crtGetStringTypeA       22037ec0 f   LIBCMTD:a_str.obj
 0001:00037030       ___crtMessageBoxA          22038030 f   LIBCMTD:crtmbox.obj
 0001:00037250       __flsbuf                   22038250 f   LIBCMTD:_flsbuf.obj
 0001:00037510       __output_l                 22038510 f   LIBCMTD:output.obj
 0001:00038980       _get_int_arg               22039980 f i LIBCMTD:output.obj
 0001:000389a0       _get_int64_arg             220399a0 f i LIBCMTD:output.obj
 0001:000389c0       _get_short_arg             220399c0 f i LIBCMTD:output.obj
 0001:000389e0       __vsprintf_l               220399e0 f   LIBCMTD:vsprintf.obj
 0001:00038b80       _vsprintf                  22039b80 f   LIBCMTD:vsprintf.obj
 0001:00038ba0       __vscprintf_helper         22039ba0 f   LIBCMTD:vsprintf.obj
 0001:00038c80       __vscprintf                22039c80 f   LIBCMTD:vsprintf.obj
 0001:00038ca0       __vscprintf_l              22039ca0 f   LIBCMTD:vsprintf.obj
 0001:00038cc0       __vscprintf_p              22039cc0 f   LIBCMTD:vsprintf.obj
 0001:00038ce0       __vscprintf_p_l            22039ce0 f   LIBCMTD:vsprintf.obj
 0001:00038d00       __vsnprintf_helper         22039d00 f   LIBCMTD:vsnprnc.obj
 0001:00038ef0       __vsnprintf_c              22039ef0 f   LIBCMTD:vsnprnc.obj
 0001:00038f40       __vsnprintf_c_l            22039f40 f   LIBCMTD:vsnprnc.obj
 0001:00038f90       __vsprintf_s_l             22039f90 f   LIBCMTD:vsnprnc.obj
 0001:00039200       _vsprintf_s                2203a200 f   LIBCMTD:vsnprnc.obj
 0001:00039230       __vsnprintf_s_l            2203a230 f   LIBCMTD:vsnprnc.obj
 0001:000395d0       __vsnprintf_s              2203a5d0 f   LIBCMTD:vsnprnc.obj
 0001:00039600       __vsprintf_p               2203a600 f   LIBCMTD:vsnprnc.obj
 0001:00039650       __vsprintf_p_l             2203a650 f   LIBCMTD:vsnprnc.obj
 0001:000396a0       __isleadbyte_l             2203a6a0 f i LIBCMTD:_wctype.obj
 0001:000396f0       _isleadbyte                2203a6f0 f i LIBCMTD:_wctype.obj
 0001:00039710       __iswalpha_l               2203a710 f i LIBCMTD:_wctype.obj
 0001:00039730       _iswalpha                  2203a730 f i LIBCMTD:_wctype.obj
 0001:00039750       __iswupper_l               2203a750 f i LIBCMTD:_wctype.obj
 0001:00039770       _iswupper                  2203a770 f i LIBCMTD:_wctype.obj
 0001:00039790       __iswlower_l               2203a790 f i LIBCMTD:_wctype.obj
 0001:000397b0       _iswlower                  2203a7b0 f i LIBCMTD:_wctype.obj
 0001:000397d0       __iswdigit_l               2203a7d0 f i LIBCMTD:_wctype.obj
 0001:000397f0       _iswdigit                  2203a7f0 f i LIBCMTD:_wctype.obj
 0001:00039810       __iswxdigit_l              2203a810 f i LIBCMTD:_wctype.obj
 0001:00039830       _iswxdigit                 2203a830 f i LIBCMTD:_wctype.obj
 0001:00039850       __iswspace_l               2203a850 f i LIBCMTD:_wctype.obj
 0001:00039870       _iswspace                  2203a870 f i LIBCMTD:_wctype.obj
 0001:00039890       __iswpunct_l               2203a890 f i LIBCMTD:_wctype.obj
 0001:000398b0       _iswpunct                  2203a8b0 f i LIBCMTD:_wctype.obj
 0001:000398d0       __iswalnum_l               2203a8d0 f i LIBCMTD:_wctype.obj
 0001:000398f0       _iswalnum                  2203a8f0 f i LIBCMTD:_wctype.obj
 0001:00039910       __iswprint_l               2203a910 f i LIBCMTD:_wctype.obj
 0001:00039930       _iswprint                  2203a930 f i LIBCMTD:_wctype.obj
 0001:00039950       __iswgraph_l               2203a950 f i LIBCMTD:_wctype.obj
 0001:00039970       _iswgraph                  2203a970 f i LIBCMTD:_wctype.obj
 0001:00039990       __iswcntrl_l               2203a990 f i LIBCMTD:_wctype.obj
 0001:000399b0       _iswcntrl                  2203a9b0 f i LIBCMTD:_wctype.obj
 0001:000399d0       _iswascii                  2203a9d0 f i LIBCMTD:_wctype.obj
 0001:000399f0       __iswcsym_l                2203a9f0 f i LIBCMTD:_wctype.obj
 0001:00039a30       ___iswcsym                 2203aa30 f i LIBCMTD:_wctype.obj
 0001:00039a70       __iswcsymf_l               2203aa70 f i LIBCMTD:_wctype.obj
 0001:00039ab0       ___iswcsymf                2203aab0 f i LIBCMTD:_wctype.obj
 0001:00039af0       ____setlc_active_func      2203aaf0 f   LIBCMTD:setlocal.obj
 0001:00039b00       ____unguarded_readlc_active_add_func 2203ab00 f   LIBCMTD:setlocal.obj
 0001:00039b10       __configthreadlocale       2203ab10 f   LIBCMTD:setlocal.obj
 0001:00039c20       __locterm                  2203ac20 f   LIBCMTD:setlocal.obj
 0001:00039cc0       __free_locale              2203acc0 f   LIBCMTD:setlocal.obj
 0001:00039e00       ___free_locale             2203ae00 f   LIBCMTD:setlocal.obj
 0001:00039e20       __create_locale            2203ae20 f   LIBCMTD:setlocal.obj
 0001:0003a050       ___create_locale           2203b050 f   LIBCMTD:setlocal.obj
 0001:0003a070       __get_current_locale       2203b070 f   LIBCMTD:setlocal.obj
 0001:0003a190       ___get_current_locale      2203b190 f   LIBCMTD:setlocal.obj
 0001:0003a1a0       _setlocale                 2203b1a0 f   LIBCMTD:setlocal.obj
 0001:0003b050       __expandlocale             2203c050 f   LIBCMTD:setlocal.obj
 0001:0003b300       ___init_dummy              2203c300 f   LIBCMTD:setlocal.obj
 0001:0003b310       __strcats                  2203c310 f   LIBCMTD:setlocal.obj
 0001:0003b390       ___lc_strtolc              2203c390 f   LIBCMTD:setlocal.obj
 0001:0003b590       ___lc_lctostr              2203c590 f   LIBCMTD:setlocal.obj
 0001:0003b630       __fptrap                   2203c630 f   LIBCMTD:crt0fp.obj
 0001:0003b650       __set_error_mode           2203c650 f   LIBCMTD:errmode.obj
 0001:0003b710       ___set_app_type            2203c710 f   LIBCMTD:errmode.obj
 0001:0003b720       _wcscat_s                  2203c720 f   LIBCMTD:wcscat_s.obj
 0001:0003bb10       _wcsncpy_s                 2203cb10 f   LIBCMTD:wcsncpy_s.obj
 0001:0003bf20       _strncpy_s                 2203cf20 f   LIBCMTD:strncpy_s.obj
 0001:0003c310       ___crtGetLocaleInfoA       2203d310 f   LIBCMTD:a_loc.obj
 0001:0003c470       __mbstowcs_l_helper        2203d470 f   LIBCMTD:mbstowcs.obj
 0001:0003c7c0       __mbstowcs_l               2203d7c0 f   LIBCMTD:mbstowcs.obj
 0001:0003c7e0       _mbstowcs                  2203d7e0 f   LIBCMTD:mbstowcs.obj
 0001:0003c830       __mbstowcs_s_l             2203d830 f   LIBCMTD:mbstowcs.obj
 0001:0003cbb0       _mbstowcs_s                2203dbb0 f   LIBCMTD:mbstowcs.obj
 0001:0003cbe0       _strcat_s                  2203dbe0 f   LIBCMTD:strcat_s.obj
 0001:0003cfc0       __itoa_s                   2203dfc0 f   LIBCMTD:xtoas.obj
 0001:0003d390       __ltoa_s                   2203e390 f   LIBCMTD:xtoas.obj
 0001:0003d3d0       __ultoa_s                  2203e3d0 f   LIBCMTD:xtoas.obj
 0001:0003d3f0       __i64toa_s                 2203e3f0 f   LIBCMTD:xtoas.obj
 0001:0003d7f0       __ui64toa_s                2203e7f0 f   LIBCMTD:xtoas.obj
 0001:0003d810       __wcstombs_l_helper        2203e810 f   LIBCMTD:wcstombs.obj
 0001:0003dd50       __wcstombs_l               2203ed50 f   LIBCMTD:wcstombs.obj
 0001:0003dd70       _wcstombs                  2203ed70 f   LIBCMTD:wcstombs.obj
 0001:0003dd90       __wcstombs_s_l             2203ed90 f   LIBCMTD:wcstombs.obj
 0001:0003e0c0       _wcstombs_s                2203f0c0 f   LIBCMTD:wcstombs.obj
 0001:0003e0f0       __vswprintf_helper         2203f0f0 f   LIBCMTD:vswprnc.obj
 0001:0003e350       __vswprintf_c              2203f350 f   LIBCMTD:vswprnc.obj
 0001:0003e3a0       __vswprintf_c_l            2203f3a0 f   LIBCMTD:vswprnc.obj
 0001:0003e3f0       __vswprintf_s_l            2203f3f0 f   LIBCMTD:vswprnc.obj
 0001:0003e660       _vswprintf_s               2203f660 f   LIBCMTD:vswprnc.obj
 0001:0003e690       __vsnwprintf_s_l           2203f690 f   LIBCMTD:vswprnc.obj
 0001:0003ea40       __vsnwprintf_s             2203fa40 f   LIBCMTD:vswprnc.obj
 0001:0003ea70       __vswprintf_p              2203fa70 f   LIBCMTD:vswprnc.obj
 0001:0003eac0       __vswprintf_p_l            2203fac0 f   LIBCMTD:vswprnc.obj
 0001:0003eb10       __itow_s                   2203fb10 f   LIBCMTD:xtows.obj
 0001:0003eef0       __ltow_s                   2203fef0 f   LIBCMTD:xtows.obj
 0001:0003ef30       __ultow_s                  2203ff30 f   LIBCMTD:xtows.obj
 0001:0003ef50       __i64tow_s                 2203ff50 f   LIBCMTD:xtows.obj
 0001:0003f380       __ui64tow_s                22040380 f   LIBCMTD:xtows.obj
 0001:0003f3a0       __woutput_l                220403a0 f   LIBCMTD:woutput.obj
 0001:000405a0       __vswprintf_l              220415a0 f   LIBCMTD:vswprint.obj
 0001:00040790       __vswprintf                22041790 f   LIBCMTD:vswprint.obj
 0001:000407b0       ___vswprintf_l             220417b0 f   LIBCMTD:vswprint.obj
 0001:000407d0       __vscwprintf_helper        220417d0 f   LIBCMTD:vswprint.obj
 0001:000408b0       __vscwprintf               220418b0 f   LIBCMTD:vswprint.obj
 0001:000408d0       __vscwprintf_l             220418d0 f   LIBCMTD:vswprint.obj
 0001:000408f0       __vscwprintf_p             220418f0 f   LIBCMTD:vswprint.obj
 0001:00040910       __vscwprintf_p_l           22041910 f   LIBCMTD:vswprint.obj
 0001:00040930       _strtol                    22041930 f   LIBCMTD:strtol.obj
 0001:00040e60       __strtol_l                 22041e60 f   LIBCMTD:strtol.obj
 0001:00040e90       _strtoul                   22041e90 f   LIBCMTD:strtol.obj
 0001:00040ee0       __strtoul_l                22041ee0 f   LIBCMTD:strtol.obj
 0001:00040f10       __strtoi64                 22041f10 f   LIBCMTD:strtoq.obj
 0001:00041480       __strtoi64_l               22042480 f   LIBCMTD:strtoq.obj
 0001:000414b0       __strtoui64                220424b0 f   LIBCMTD:strtoq.obj
 0001:00041500       __strtoui64_l              22042500 f   LIBCMTD:strtoq.obj
 0001:00041530       __lseeki64                 22042530 f   LIBCMTD:lseeki64.obj
 0001:00041780       __lseeki64_nolock          22042780 f   LIBCMTD:lseeki64.obj
 0001:00041870       __write                    22042870 f   LIBCMTD:write.obj
 0001:00041aa0       __write_nolock             22042aa0 f   LIBCMTD:write.obj
 0001:000425e0       __getbuf                   220435e0 f   LIBCMTD:_getbuf.obj
 0001:000426b0       __isatty                   220436b0 f   LIBCMTD:isatty.obj
 0001:00042770       ___iob_func                22043770 f   LIBCMTD:_file.obj
 0001:00042780       ___initstdio               22043780 f   LIBCMTD:_file.obj
 0001:000428d0       ___endstdio                220438d0 f   LIBCMTD:_file.obj
 0001:00042900       __lock_file                22043900 f   LIBCMTD:_file.obj
 0001:00042960       __lock_file2               22043960 f   LIBCMTD:_file.obj
 0001:000429a0       __unlock_file              220439a0 f   LIBCMTD:_file.obj
 0001:00042a00       __unlock_file2             22043a00 f   LIBCMTD:_file.obj
 0001:00042a40       __fileno                   22043a40 f   LIBCMTD:fileno.obj
 0001:00042ac0       _printf                    22043ac0 f   LIBCMTD:printf.obj
 0001:00042c00       __printf_l                 22043c00 f   LIBCMTD:printf.obj
 0001:00042c30       __printf_s_l               22043c30 f   LIBCMTD:printf.obj
 0001:00042c60       _printf_s                  22043c60 f   LIBCMTD:printf.obj
 0001:00042c90       __printf_p_l               22043c90 f   LIBCMTD:printf.obj
 0001:00042cc0       __printf_p                 22043cc0 f   LIBCMTD:printf.obj
 0001:00042cf0       __set_printf_count_output  22043cf0 f   LIBCMTD:printf.obj
 0001:00042d40       __get_printf_count_output  22043d40 f   LIBCMTD:printf.obj
 0001:00042d60       __wctomb_s_l               22043d60 f   LIBCMTD:wctomb.obj
 0001:00043060       _wctomb_s                  22044060 f   LIBCMTD:wctomb.obj
 0001:00043090       __wctomb_l                 22044090 f   LIBCMTD:wctomb.obj
 0001:00043110       _wctomb                    22044110 f   LIBCMTD:wctomb.obj
 0001:00043160       __validate_param_reuseA    22044160 f   LIBCMTD:outputp.obj
 0001:000433d0       __output_p_l               220443d0 f   LIBCMTD:outputp.obj
 0001:00046fd0       _get_crtdouble_arg         22047fd0 f i LIBCMTD:outputp.obj
 0001:00046ff0       __output_s_l               22047ff0 f   LIBCMTD:outputs.obj
 0001:000485b0       __iswctype_l               220495b0 f   LIBCMTD:iswctype.obj
 0001:000485d0       _iswctype                  220495d0 f   LIBCMTD:iswctype.obj
 0001:00048630       _is_wctype                 22049630 f   LIBCMTD:iswctype.obj
 0001:00048650       ___init_ctype              22049650 f   LIBCMTD:initctyp.obj
 0001:00048c00       ____mb_cur_max_func        22049c00 f   LIBCMTD:initctyp.obj
 0001:00048c50       ____mb_cur_max_l_func      22049c50 f   LIBCMTD:initctyp.obj
 0001:00048c80       ____lc_codepage_func       22049c80 f   LIBCMTD:initctyp.obj
 0001:00048cd0       ____lc_collate_cp_func     22049cd0 f   LIBCMTD:initctyp.obj
 0001:00048d20       ____lc_handle_func         22049d20 f   LIBCMTD:initctyp.obj
 0001:00048d70       ___init_collate            22049d70 f   LIBCMTD:initcoll.obj
 0001:00048d80       _strcspn                   22049d80 f   LIBCMTD:strcspn.obj
 0001:00048dd0       _strncmp                   22049dd0 f   LIBCMTD:strncmp.obj
 0001:00048f50       _strpbrk                   22049f50 f   LIBCMTD:strpbrk.obj
 0001:00048f90       ___get_qualified_locale    22049f90 f   LIBCMTD:getqloc.obj
 0001:00049df0       __woutput_s_l              2204adf0 f   LIBCMTD:woutputs.obj
 0001:0004b140       __validate_param_reuseW    2204c140 f   LIBCMTD:woutputp.obj
 0001:0004b3b0       __woutput_p_l              2204c3b0 f   LIBCMTD:woutputp.obj
 0001:0004eb30       __mbtowc_l                 2204fb30 f   LIBCMTD:mbtowc.obj
 0001:0004ed50       _mbtowc                    2204fd50 f   LIBCMTD:mbtowc.obj
 0001:0004ed70       _fputwc                    2204fd70 f   LIBCMTD:fputwc.obj
 0001:0004ee70       __fputwc_nolock            2204fe70 f   LIBCMTD:fputwc.obj
 0001:0004f160       _putwc                     22050160 f   LIBCMTD:fputwc.obj
 0001:0004f180       __allmul                   22050180 f   LIBCMTD:llmul.obj
 0001:0004f1c0       __alloc_osfhnd             220501c0 f   LIBCMTD:osfinfo.obj
 0001:0004f470       __set_osfhnd               22050470 f   LIBCMTD:osfinfo.obj
 0001:0004f540       __free_osfhnd              22050540 f   LIBCMTD:osfinfo.obj
 0001:0004f630       __get_osfhandle            22050630 f   LIBCMTD:osfinfo.obj
 0001:0004f7a0       __open_osfhandle           220507a0 f   LIBCMTD:osfinfo.obj
 0001:0004f9d0       ___lock_fhandle            220509d0 f   LIBCMTD:osfinfo.obj
 0001:0004fad0       __unlock_fhandle           22050ad0 f   LIBCMTD:osfinfo.obj
 0001:0004fb00       __putwch                   22050b00 f   LIBCMTD:putwch.obj
 0001:0004fb90       __putwch_nolock            22050b90 f   LIBCMTD:putwch.obj
 0001:0004fbe0       __fcloseall                22050be0 f   LIBCMTD:closeall.obj
 0001:0004fd10       _fflush                    22050d10 f   LIBCMTD:fflush.obj
 0001:0004fdb0       __fflush_nolock            22050db0 f   LIBCMTD:fflush.obj
 0001:0004fe10       __flush                    22050e10 f   LIBCMTD:fflush.obj
 0001:0004fed0       __flushall                 22050ed0 f   LIBCMTD:fflush.obj
 0001:000500a0       __stbuf                    220510a0 f   LIBCMTD:_sftbuf.obj
 0001:00050200       __ftbuf                    22051200 f   LIBCMTD:_sftbuf.obj
 0001:00050290       _vprintf_helper            22051290 f   LIBCMTD:vprintf.obj
 0001:000503b0       __vprintf_l                220513b0 f   LIBCMTD:vprintf.obj
 0001:000503d0       __vprintf_s_l              220513d0 f   LIBCMTD:vprintf.obj
 0001:000503f0       __vprintf_p_l              220513f0 f   LIBCMTD:vprintf.obj
 0001:00050410       _vprintf                   22051410 f   LIBCMTD:vprintf.obj
 0001:00050430       _vprintf_s                 22051430 f   LIBCMTD:vprintf.obj
 0001:00050450       __vprintf_p                22051450 f   LIBCMTD:vprintf.obj
 0001:00050470       __stricmp_l                22051470 f   LIBCMTD:stricmp.obj
 0001:00050620       ___ascii_stricmp           22051620 f   LIBCMTD:stricmp.obj
 0001:000506a0       __stricmp                  220516a0 f   LIBCMTD:stricmp.obj
 0001:000507b0       __strnicmp_l               220517b0 f   LIBCMTD:strnicmp.obj
 0001:000509f0       __strnicmp                 220519f0 f   LIBCMTD:strnicmp.obj
 0001:00050b80       _wcstol                    22051b80 f   LIBCMTD:wcstol.obj
 0001:00050f50       __wcstol_l                 22051f50 f   LIBCMTD:wcstol.obj
 0001:00050f70       _wcstoul                   22051f70 f   LIBCMTD:wcstol.obj
 0001:00050f90       __wcstoul_l                22051f90 f   LIBCMTD:wcstol.obj
 0001:00050fb0       __flswbuf                  22051fb0 f   LIBCMTD:_flswbuf.obj
 0001:00051290       ___initconout              22052290 f   LIBCMTD:initcon.obj
 0001:000512c0       ___termconout              220522c0 f   LIBCMTD:initcon.obj
 0001:000512f0       _fclose                    220522f0 f   LIBCMTD:fclose.obj
 0001:00051400       __fclose_nolock            22052400 f   LIBCMTD:fclose.obj
 0001:00051500       __commit                   22052500 f   LIBCMTD:commit.obj
 0001:00051720       __tolower                  22052720 f   LIBCMTD:tolower.obj
 0001:00051730       __tolower_l                22052730 f   LIBCMTD:tolower.obj
 0001:00051910       _tolower                   22052910 f   LIBCMTD:tolower.obj
 0001:00051960       ___ascii_strnicmp          22052960 f   LIBCMTD:_strnicm.obj
 0001:000519d0       __wchartodigit             220529d0 f   LIBCMTD:wchtodig.obj
 0001:00051d00       __close                    22052d00 f   LIBCMTD:close.obj
 0001:00051f10       __close_nolock             22052f10 f   LIBCMTD:close.obj
 0001:00051fe0       __freebuf                  22052fe0 f   LIBCMTD:_freebuf.obj
 0001:00052064       _RtlUnwind@16              22053064 f   kernel32:KERNEL32.dll
 0001:0005206a       _DecodePointer@4           2205306a f   kernel32:KERNEL32.dll
 0001:00052070       _GetCommandLineA@0         22053070 f   kernel32:KERNEL32.dll
 0001:00052076       _TerminateProcess@8        22053076 f   kernel32:KERNEL32.dll
 0001:0005207c       _GetCurrentProcess@0       2205307c f   kernel32:KERNEL32.dll
 0001:00052082       _UnhandledExceptionFilter@4 22053082 f   kernel32:KERNEL32.dll
 0001:00052088       _SetUnhandledExceptionFilter@4 22053088 f   kernel32:KERNEL32.dll
 0001:0005208e       _IsDebuggerPresent@0       2205308e f   kernel32:KERNEL32.dll
 0001:00052094       _EncodePointer@4           22053094 f   kernel32:KERNEL32.dll
 0001:0005209a       _TlsAlloc@0                2205309a f   kernel32:KERNEL32.dll
 0001:000520a0       _TlsGetValue@4             220530a0 f   kernel32:KERNEL32.dll
 0001:000520a6       _TlsSetValue@8             220530a6 f   kernel32:KERNEL32.dll
 0001:000520ac       _TlsFree@4                 220530ac f   kernel32:KERNEL32.dll
 0001:000520b2       _GetModuleHandleW@4        220530b2 f   kernel32:KERNEL32.dll
 0001:000520b8       _GetCurrentThread@0        220530b8 f   kernel32:KERNEL32.dll
 0001:000520be       _IsProcessorFeaturePresent@4 220530be f   kernel32:KERNEL32.dll
 0001:000520c4       _HeapValidate@12           220530c4 f   kernel32:KERNEL32.dll
 0001:000520ca       _IsBadReadPtr@8            220530ca f   kernel32:KERNEL32.dll
 0001:000520d0       _ExitProcess@4             220530d0 f   kernel32:KERNEL32.dll
 0001:000520d6       _SetHandleCount@4          220530d6 f   kernel32:KERNEL32.dll
 0001:000520dc       _GetStdHandle@4            220530dc f   kernel32:KERNEL32.dll
 0001:000520e2       _InitializeCriticalSectionAndSpinCount@8 220530e2 f   kernel32:KERNEL32.dll
 0001:000520e8       _GetFileType@4             220530e8 f   kernel32:KERNEL32.dll
 0001:000520ee       _GetStartupInfoW@4         220530ee f   kernel32:KERNEL32.dll
 0001:000520f4       _FreeEnvironmentStringsW@4 220530f4 f   kernel32:KERNEL32.dll
 0001:000520fa       _GetEnvironmentStringsW@0  220530fa f   kernel32:KERNEL32.dll
 0001:00052100       _QueryPerformanceCounter@4 22053100 f   kernel32:KERNEL32.dll
 0001:00052106       _GetSystemTimeAsFileTime@4 22053106 f   kernel32:KERNEL32.dll
 0001:0005210c       _FatalAppExitA@8           2205310c f   kernel32:KERNEL32.dll
 0001:00052112       _RaiseException@16         22053112 f   kernel32:KERNEL32.dll
 0001:00052118       _GetOEMCP@0                22053118 f   kernel32:KERNEL32.dll
 0001:0005211e       _GetCPInfo@8               2205311e f   kernel32:KERNEL32.dll
 0001:00052124       _HeapReAlloc@16            22053124 f   kernel32:KERNEL32.dll
 0001:0005212a       _HeapSize@12               2205312a f   kernel32:KERNEL32.dll
 0001:00052130       _HeapQueryInformation@20   22053130 f   kernel32:KERNEL32.dll
 0001:00052136       _SetConsoleCtrlHandler@8   22053136 f   kernel32:KERNEL32.dll
 0001:0005213c       _FreeLibrary@4             2205313c f   kernel32:KERNEL32.dll
 0001:00052142       _InterlockedExchange@8     22053142 f   kernel32:KERNEL32.dll
 0001:00052148       _LoadLibraryW@4            22053148 f   kernel32:KERNEL32.dll
 0001:0005214e       _GetLocaleInfoW@16         2205314e f   kernel32:KERNEL32.dll
 0001:00052154       _WriteConsoleW@20          22053154 f   kernel32:KERNEL32.dll
 0001:0005215a       _OutputDebugStringW@4      2205315a f   kernel32:KERNEL32.dll
 0001:00052160       _LCMapStringW@24           22053160 f   kernel32:KERNEL32.dll
 0001:00052166       _GetStringTypeW@16         22053166 f   kernel32:KERNEL32.dll
 0001:0005216c       _SetFilePointer@16         2205316c f   kernel32:KERNEL32.dll
 0001:00052172       _GetConsoleCP@0            22053172 f   kernel32:KERNEL32.dll
 0001:00052178       _GetConsoleMode@8          22053178 f   kernel32:KERNEL32.dll
 0001:0005217e       _GetLocaleInfoA@16         2205317e f   kernel32:KERNEL32.dll
 0001:00052184       _IsValidLocale@8           22053184 f   kernel32:KERNEL32.dll
 0001:0005218a       _EnumSystemLocalesA@8      2205318a f   kernel32:KERNEL32.dll
 0001:00052190       _GetUserDefaultLCID@0      22053190 f   kernel32:KERNEL32.dll
 0001:00052196       _SetStdHandle@8            22053196 f   kernel32:KERNEL32.dll
 0001:0005219c       _FlushFileBuffers@4        2205319c f   kernel32:KERNEL32.dll
 0002:00000000       __imp__RegSetValueExW@24   22054000     advapi32:ADVAPI32.dll
 0002:00000004       __imp__RegOpenKeyA@12      22054004     advapi32:ADVAPI32.dll
 0002:00000008       __imp__RegQueryValueExW@24 22054008     advapi32:ADVAPI32.dll
 0002:0000000c       __imp__RegEnumKeyExA@32    2205400c     advapi32:ADVAPI32.dll
 0002:00000010       __imp__RegDeleteKeyA@8     22054010     advapi32:ADVAPI32.dll
 0002:00000014       __imp__RegCreateKeyExA@36  22054014     advapi32:ADVAPI32.dll
 0002:00000018       __imp__RegSetValueExA@24   22054018     advapi32:ADVAPI32.dll
 0002:0000001c       __imp__GetUserNameA@8      2205401c     advapi32:ADVAPI32.dll
 0002:00000020       __imp__RegQueryValueExA@24 22054020     advapi32:ADVAPI32.dll
 0002:00000024       __imp__RegOpenKeyExA@20    22054024     advapi32:ADVAPI32.dll
 0002:00000028       __imp__RegCloseKey@4       22054028     advapi32:ADVAPI32.dll
 0002:0000002c       __imp__RegEnumKeyA@16      2205402c     advapi32:ADVAPI32.dll
 0002:00000030       \177ADVAPI32_NULL_THUNK_DATA 22054030     advapi32:ADVAPI32.dll
 0002:00000034       __imp__GetSaveFileNameA@4  22054034     comdlg32:COMDLG32.dll
 0002:00000038       __imp__GetSaveFileNameW@4  22054038     comdlg32:COMDLG32.dll
 0002:0000003c       __imp__GetOpenFileNameW@4  2205403c     comdlg32:COMDLG32.dll
 0002:00000040       __imp__GetOpenFileNameA@4  22054040     comdlg32:COMDLG32.dll
 0002:00000044       \177COMDLG32_NULL_THUNK_DATA 22054044     comdlg32:COMDLG32.dll
 0002:00000048       __imp__SetWindowOrgEx@16   22054048     gdi32:GDI32.dll
 0002:0000004c       __imp__SetViewportOrgEx@16 2205404c     gdi32:GDI32.dll
 0002:00000050       __imp__LPtoDP@12           22054050     gdi32:GDI32.dll
 0002:00000054       __imp__SaveDC@4            22054054     gdi32:GDI32.dll
 0002:00000058       __imp__StretchBlt@44       22054058     gdi32:GDI32.dll
 0002:0000005c       __imp__RestoreDC@8         2205405c     gdi32:GDI32.dll
 0002:00000060       __imp__SetWindowExtEx@16   22054060     gdi32:GDI32.dll
 0002:00000064       __imp__CreateMetaFileW@4   22054064     gdi32:GDI32.dll
 0002:00000068       __imp__CreateCompatibleBitmap@12 22054068     gdi32:GDI32.dll
 0002:0000006c       __imp__CreateRectRgnIndirect@4 2205406c     gdi32:GDI32.dll
 0002:00000070       __imp__BitBlt@36           22054070     gdi32:GDI32.dll
 0002:00000074       __imp__GetDeviceCaps@8     22054074     gdi32:GDI32.dll
 0002:00000078       __imp__DeleteDC@4          22054078     gdi32:GDI32.dll
 0002:0000007c       __imp__CloseMetaFile@4     2205407c     gdi32:GDI32.dll
 0002:00000080       __imp__GetObjectA@12       22054080     gdi32:GDI32.dll
 0002:00000084       __imp__CreateCompatibleDC@4 22054084     gdi32:GDI32.dll
 0002:00000088       __imp__GetTextExtentPoint32A@16 22054088     gdi32:GDI32.dll
 0002:0000008c       __imp__DeleteObject@4      2205408c     gdi32:GDI32.dll
 0002:00000090       __imp__SetMapMode@8        22054090     gdi32:GDI32.dll
 0002:00000094       __imp__SetBkMode@8         22054094     gdi32:GDI32.dll
 0002:00000098       __imp__SelectObject@8      22054098     gdi32:GDI32.dll
 0002:0000009c       __imp__CreateFontIndirectA@4 2205409c     gdi32:GDI32.dll
 0002:000000a0       __imp__CreateSolidBrush@4  220540a0     gdi32:GDI32.dll
 0002:000000a4       __imp__RealizePalette@4    220540a4     gdi32:GDI32.dll
 0002:000000a8       __imp__SelectPalette@12    220540a8     gdi32:GDI32.dll
 0002:000000ac       __imp__DeleteMetaFile@4    220540ac     gdi32:GDI32.dll
 0002:000000b0       __imp__SetTextColor@8      220540b0     gdi32:GDI32.dll
 0002:000000b4       __imp__CreateHalftonePalette@4 220540b4     gdi32:GDI32.dll
 0002:000000b8       \177GDI32_NULL_THUNK_DATA  220540b8     gdi32:GDI32.dll
 0002:000000bc       __imp__GetFileAttributesW@4 220540bc     kernel32:KERNEL32.dll
 0002:000000c0       __imp__CreateFileA@28      220540c0     kernel32:KERNEL32.dll
 0002:000000c4       __imp__CreateFileW@28      220540c4     kernel32:KERNEL32.dll
 0002:000000c8       __imp__DeleteFileA@4       220540c8     kernel32:KERNEL32.dll
 0002:000000cc       __imp__MoveFileA@8         220540cc     kernel32:KERNEL32.dll
 0002:000000d0       __imp__CopyFileA@12        220540d0     kernel32:KERNEL32.dll
 0002:000000d4       __imp__DeleteFileW@4       220540d4     kernel32:KERNEL32.dll
 0002:000000d8       __imp__MoveFileW@8         220540d8     kernel32:KERNEL32.dll
 0002:000000dc       __imp__CopyFileW@12        220540dc     kernel32:KERNEL32.dll
 0002:000000e0       __imp__GetModuleFileNameA@12 220540e0     kernel32:KERNEL32.dll
 0002:000000e4       __imp__GetModuleFileNameW@12 220540e4     kernel32:KERNEL32.dll
 0002:000000e8       __imp__SetLastError@4      220540e8     kernel32:KERNEL32.dll
 0002:000000ec       __imp__EnumSystemLocalesA@8 220540ec     kernel32:KERNEL32.dll
 0002:000000f0       __imp__IsValidLocale@8     220540f0     kernel32:KERNEL32.dll
 0002:000000f4       __imp__GetLocaleInfoA@16   220540f4     kernel32:KERNEL32.dll
 0002:000000f8       __imp__GetConsoleMode@8    220540f8     kernel32:KERNEL32.dll
 0002:000000fc       __imp__GetConsoleCP@0      220540fc     kernel32:KERNEL32.dll
 0002:00000100       __imp__SetFilePointer@16   22054100     kernel32:KERNEL32.dll
 0002:00000104       __imp__GetStringTypeW@16   22054104     kernel32:KERNEL32.dll
 0002:00000108       __imp__LCMapStringW@24     22054108     kernel32:KERNEL32.dll
 0002:0000010c       __imp__OutputDebugStringW@4 2205410c     kernel32:KERNEL32.dll
 0002:00000110       __imp__WriteConsoleW@20    22054110     kernel32:KERNEL32.dll
 0002:00000114       __imp__GetLocaleInfoW@16   22054114     kernel32:KERNEL32.dll
 0002:00000118       __imp__LoadLibraryW@4      22054118     kernel32:KERNEL32.dll
 0002:0000011c       __imp__InterlockedExchange@8 2205411c     kernel32:KERNEL32.dll
 0002:00000120       __imp__FreeLibrary@4       22054120     kernel32:KERNEL32.dll
 0002:00000124       __imp__SetConsoleCtrlHandler@8 22054124     kernel32:KERNEL32.dll
 0002:00000128       __imp__HeapQueryInformation@20 22054128     kernel32:KERNEL32.dll
 0002:0000012c       __imp__HeapSize@12         2205412c     kernel32:KERNEL32.dll
 0002:00000130       __imp__HeapReAlloc@16      22054130     kernel32:KERNEL32.dll
 0002:00000134       __imp__GetFileAttributesA@4 22054134     kernel32:KERNEL32.dll
 0002:00000138       __imp__GetOEMCP@0          22054138     kernel32:KERNEL32.dll
 0002:0000013c       __imp__RaiseException@16   2205413c     kernel32:KERNEL32.dll
 0002:00000140       __imp__FatalAppExitA@8     22054140     kernel32:KERNEL32.dll
 0002:00000144       __imp__GetSystemTimeAsFileTime@4 22054144     kernel32:KERNEL32.dll
 0002:00000148       __imp__QueryPerformanceCounter@4 22054148     kernel32:KERNEL32.dll
 0002:0000014c       __imp__GetEnvironmentStringsW@0 2205414c     kernel32:KERNEL32.dll
 0002:00000150       __imp__FreeEnvironmentStringsW@4 22054150     kernel32:KERNEL32.dll
 0002:00000154       __imp__GetStartupInfoW@4   22054154     kernel32:KERNEL32.dll
 0002:00000158       __imp__GetFileType@4       22054158     kernel32:KERNEL32.dll
 0002:0000015c       __imp__InitializeCriticalSectionAndSpinCount@8 2205415c     kernel32:KERNEL32.dll
 0002:00000160       __imp__GetStdHandle@4      22054160     kernel32:KERNEL32.dll
 0002:00000164       __imp__SetHandleCount@4    22054164     kernel32:KERNEL32.dll
 0002:00000168       __imp__ExitProcess@4       22054168     kernel32:KERNEL32.dll
 0002:0000016c       __imp__IsBadReadPtr@8      2205416c     kernel32:KERNEL32.dll
 0002:00000170       __imp__HeapValidate@12     22054170     kernel32:KERNEL32.dll
 0002:00000174       __imp__IsProcessorFeaturePresent@4 22054174     kernel32:KERNEL32.dll
 0002:00000178       __imp__GetCurrentThread@0  22054178     kernel32:KERNEL32.dll
 0002:0000017c       __imp__GetModuleHandleW@4  2205417c     kernel32:KERNEL32.dll
 0002:00000180       __imp__TlsFree@4           22054180     kernel32:KERNEL32.dll
 0002:00000184       __imp__TlsSetValue@8       22054184     kernel32:KERNEL32.dll
 0002:00000188       __imp__TlsGetValue@4       22054188     kernel32:KERNEL32.dll
 0002:0000018c       __imp__TlsAlloc@0          2205418c     kernel32:KERNEL32.dll
 0002:00000190       __imp__EncodePointer@4     22054190     kernel32:KERNEL32.dll
 0002:00000194       __imp__IsDebuggerPresent@0 22054194     kernel32:KERNEL32.dll
 0002:00000198       __imp__SetUnhandledExceptionFilter@4 22054198     kernel32:KERNEL32.dll
 0002:0000019c       __imp__UnhandledExceptionFilter@4 2205419c     kernel32:KERNEL32.dll
 0002:000001a0       __imp__GetCurrentProcess@0 220541a0     kernel32:KERNEL32.dll
 0002:000001a4       __imp__TerminateProcess@8  220541a4     kernel32:KERNEL32.dll
 0002:000001a8       __imp__GetCommandLineA@0   220541a8     kernel32:KERNEL32.dll
 0002:000001ac       __imp__DecodePointer@4     220541ac     kernel32:KERNEL32.dll
 0002:000001b0       __imp__RtlUnwind@16        220541b0     kernel32:KERNEL32.dll
 0002:000001b4       __imp__FormatMessageA@28   220541b4     kernel32:KERNEL32.dll
 0002:000001b8       __imp__MulDiv@12           220541b8     kernel32:KERNEL32.dll
 0002:000001bc       __imp__LoadLibraryA@4      220541bc     kernel32:KERNEL32.dll
 0002:000001c0       __imp__GetProcAddress@8    220541c0     kernel32:KERNEL32.dll
 0002:000001c4       __imp__GetTempPathA@8      220541c4     kernel32:KERNEL32.dll
 0002:000001c8       __imp__lstrcatA@8          220541c8     kernel32:KERNEL32.dll
 0002:000001cc       __imp__CreateDirectoryA@8  220541cc     kernel32:KERNEL32.dll
 0002:000001d0       __imp__CompareStringW@24   220541d0     kernel32:KERNEL32.dll
 0002:000001d4       __imp__CompareStringA@24   220541d4     kernel32:KERNEL32.dll
 0002:000001d8       __imp__GetACP@0            220541d8     kernel32:KERNEL32.dll
 0002:000001dc       __imp__WideCharToMultiByte@32 220541dc     kernel32:KERNEL32.dll
 0002:000001e0       __imp__IsValidCodePage@4   220541e0     kernel32:KERNEL32.dll
 0002:000001e4       __imp__MultiByteToWideChar@24 220541e4     kernel32:KERNEL32.dll
 0002:000001e8       __imp__HeapFree@12         220541e8     kernel32:KERNEL32.dll
 0002:000001ec       __imp__HeapAlloc@12        220541ec     kernel32:KERNEL32.dll
 0002:000001f0       __imp__HeapCreate@12       220541f0     kernel32:KERNEL32.dll
 0002:000001f4       __imp__GetVersion@0        220541f4     kernel32:KERNEL32.dll
 0002:000001f8       __imp__InitializeCriticalSection@4 220541f8     kernel32:KERNEL32.dll
 0002:000001fc       __imp__DisableThreadLibraryCalls@4 220541fc     kernel32:KERNEL32.dll
 0002:00000200       __imp__HeapDestroy@4       22054200     kernel32:KERNEL32.dll
 0002:00000204       __imp__DeleteCriticalSection@4 22054204     kernel32:KERNEL32.dll
 0002:00000208       __imp__GlobalSize@4        22054208     kernel32:KERNEL32.dll
 0002:0000020c       __imp__ReadFile@20         2205420c     kernel32:KERNEL32.dll
 0002:00000210       __imp__WriteFile@20        22054210     kernel32:KERNEL32.dll
 0002:00000214       __imp__CloseHandle@4       22054214     kernel32:KERNEL32.dll
 0002:00000218       __imp__GetThreadLocale@0   22054218     kernel32:KERNEL32.dll
 0002:0000021c       __imp__lstrlenW@4          2205421c     kernel32:KERNEL32.dll
 0002:00000220       __imp__Sleep@4             22054220     kernel32:KERNEL32.dll
 0002:00000224       __imp__GetLastError@0      22054224     kernel32:KERNEL32.dll
 0002:00000228       __imp__GlobalAlloc@8       22054228     kernel32:KERNEL32.dll
 0002:0000022c       __imp__GlobalLock@4        2205422c     kernel32:KERNEL32.dll
 0002:00000230       __imp__GlobalUnlock@4      22054230     kernel32:KERNEL32.dll
 0002:00000234       __imp__GetCurrentProcessId@0 22054234     kernel32:KERNEL32.dll
 0002:00000238       __imp__GetCurrentThreadId@0 22054238     kernel32:KERNEL32.dll
 0002:0000023c       __imp__GetTickCount@0      2205423c     kernel32:KERNEL32.dll
 0002:00000240       __imp__lstrcpyA@8          22054240     kernel32:KERNEL32.dll
 0002:00000244       __imp__lstrlenA@4          22054244     kernel32:KERNEL32.dll
 0002:00000248       __imp__EnterCriticalSection@4 22054248     kernel32:KERNEL32.dll
 0002:0000024c       __imp__FlushFileBuffers@4  2205424c     kernel32:KERNEL32.dll
 0002:00000250       __imp__LeaveCriticalSection@4 22054250     kernel32:KERNEL32.dll
 0002:00000254       __imp__DebugBreak@0        22054254     kernel32:KERNEL32.dll
 0002:00000258       __imp__InterlockedIncrement@4 22054258     kernel32:KERNEL32.dll
 0002:0000025c       __imp__InterlockedDecrement@4 2205425c     kernel32:KERNEL32.dll
 0002:00000260       __imp__OutputDebugStringA@4 22054260     kernel32:KERNEL32.dll
 0002:00000264       __imp__GetUserDefaultLCID@0 22054264     kernel32:KERNEL32.dll
 0002:00000268       __imp__SetStdHandle@8      22054268     kernel32:KERNEL32.dll
 0002:0000026c       __imp__GetCPInfo@8         2205426c     kernel32:KERNEL32.dll
 0002:00000270       \177KERNEL32_NULL_THUNK_DATA 22054270     kernel32:KERNEL32.dll
 0002:00000274       __imp__SysStringLen@4      22054274     oleaut32:OLEAUT32.dll
 0002:00000278       __imp__CreateErrorInfo@4   22054278     oleaut32:OLEAUT32.dll
 0002:0000027c       __imp__SetErrorInfo@8      2205427c     oleaut32:OLEAUT32.dll
 0002:00000280       __imp__LoadRegTypeLib@20   22054280     oleaut32:OLEAUT32.dll
 0002:00000284       __imp__LoadTypeLib@8       22054284     oleaut32:OLEAUT32.dll
 0002:00000288       __imp__RegisterTypeLib@12  22054288     oleaut32:OLEAUT32.dll
 0002:0000028c       __imp__SafeArrayGetDim@4   2205428c     oleaut32:OLEAUT32.dll
 0002:00000290       __imp__SafeArrayGetLBound@12 22054290     oleaut32:OLEAUT32.dll
 0002:00000294       __imp__SafeArrayGetUBound@12 22054294     oleaut32:OLEAUT32.dll
 0002:00000298       __imp__SafeArrayGetElemsize@4 22054298     oleaut32:OLEAUT32.dll
 0002:0000029c       __imp__SafeArrayCreateVector@12 2205429c     oleaut32:OLEAUT32.dll
 0002:000002a0       __imp__SafeArrayAccessData@8 220542a0     oleaut32:OLEAUT32.dll
 0002:000002a4       __imp__SafeArrayUnaccessData@4 220542a4     oleaut32:OLEAUT32.dll
 0002:000002a8       __imp__SysStringByteLen@4  220542a8     oleaut32:OLEAUT32.dll
 0002:000002ac       __imp__OleTranslateColor@12 220542ac     oleaut32:OLEAUT32.dll
 0002:000002b0       __imp__VariantInit@4       220542b0     oleaut32:OLEAUT32.dll
 0002:000002b4       __imp__SysAllocString@4    220542b4     oleaut32:OLEAUT32.dll
 0002:000002b8       __imp__VariantClear@4      220542b8     oleaut32:OLEAUT32.dll
 0002:000002bc       __imp__SysFreeString@4     220542bc     oleaut32:OLEAUT32.dll
 0002:000002c0       \177OLEAUT32_NULL_THUNK_DATA 220542c0     oleaut32:OLEAUT32.dll
 0002:000002c4       __imp__DragAcceptFiles@8   220542c4     shell32:SHELL32.dll
 0002:000002c8       __imp__DragQueryFileA@16   220542c8     shell32:SHELL32.dll
 0002:000002cc       \177SHELL32_NULL_THUNK_DATA 220542cc     shell32:SHELL32.dll
 0002:000002d0       __imp__IsWindowUnicode@4   220542d0     user32:USER32.dll
 0002:000002d4       __imp__SetPropW@12         220542d4     user32:USER32.dll
 0002:000002d8       __imp__SetWindowLongW@12   220542d8     user32:USER32.dll
 0002:000002dc       __imp__SetPropA@12         220542dc     user32:USER32.dll
 0002:000002e0       __imp__GetParent@4         220542e0     user32:USER32.dll
 0002:000002e4       __imp__GetKeyState@4       220542e4     user32:USER32.dll
 0002:000002e8       __imp__RemovePropA@8       220542e8     user32:USER32.dll
 0002:000002ec       __imp__EqualRect@8         220542ec     user32:USER32.dll
 0002:000002f0       __imp__OffsetRect@12       220542f0     user32:USER32.dll
 0002:000002f4       __imp__SetWindowRgn@12     220542f4     user32:USER32.dll
 0002:000002f8       __imp__DestroyWindow@4     220542f8     user32:USER32.dll
 0002:000002fc       __imp__GetWindowRect@8     220542fc     user32:USER32.dll
 0002:00000300       __imp__SetWindowPos@28     22054300     user32:USER32.dll
 0002:00000304       __imp__GetWindowLongA@8    22054304     user32:USER32.dll
 0002:00000308       __imp__RemovePropW@8       22054308     user32:USER32.dll
 0002:0000030c       __imp__IntersectRect@12    2205430c     user32:USER32.dll
 0002:00000310       __imp__GetPropA@8          22054310     user32:USER32.dll
 0002:00000314       __imp__SetRect@20          22054314     user32:USER32.dll
 0002:00000318       __imp__CopyRect@8          22054318     user32:USER32.dll
 0002:0000031c       __imp__SetWindowLongA@12   2205431c     user32:USER32.dll
 0002:00000320       __imp__GetPropW@8          22054320     user32:USER32.dll
 0002:00000324       __imp__RegisterClassA@4    22054324     user32:USER32.dll
 0002:00000328       __imp__GetClassInfoA@12    22054328     user32:USER32.dll
 0002:0000032c       __imp__IsWindow@4          2205432c     user32:USER32.dll
 0002:00000330       __imp__SetFocus@4          22054330     user32:USER32.dll
 0002:00000334       __imp__ShowWindow@8        22054334     user32:USER32.dll
 0002:00000338       __imp__IsWindowVisible@4   22054338     user32:USER32.dll
 0002:0000033c       __imp__GetMenuStringA@20   2205433c     user32:USER32.dll
 0002:00000340       __imp__GetMenuItemCount@4  22054340     user32:USER32.dll
 0002:00000344       __imp__DrawTextA@20        22054344     user32:USER32.dll
 0002:00000348       __imp__GetSysColor@4       22054348     user32:USER32.dll
 0002:0000034c       __imp__DrawIconEx@36       2205434c     user32:USER32.dll
 0002:00000350       __imp__FillRect@12         22054350     user32:USER32.dll
 0002:00000354       __imp__DrawEdge@16         22054354     user32:USER32.dll
 0002:00000358       __imp__FrameRect@12        22054358     user32:USER32.dll
 0002:0000035c       __imp__GetSysColorBrush@4  2205435c     user32:USER32.dll
 0002:00000360       __imp__DestroyMenu@4       22054360     user32:USER32.dll
 0002:00000364       __imp__SetCapture@4        22054364     user32:USER32.dll
 0002:00000368       __imp__ReleaseCapture@0    22054368     user32:USER32.dll
 0002:0000036c       __imp__PtInRect@12         2205436c     user32:USER32.dll
 0002:00000370       __imp__GetCursorPos@4      22054370     user32:USER32.dll
 0002:00000374       __imp__GetFocus@0          22054374     user32:USER32.dll
 0002:00000378       __imp__GetSubMenu@8        22054378     user32:USER32.dll
 0002:0000037c       __imp__InflateRect@12      2205437c     user32:USER32.dll
 0002:00000380       __imp__GetClientRect@8     22054380     user32:USER32.dll
 0002:00000384       __imp__InvalidateRect@12   22054384     user32:USER32.dll
 0002:00000388       __imp__LoadCursorA@8       22054388     user32:USER32.dll
 0002:0000038c       __imp__SetCursor@4         2205438c     user32:USER32.dll
 0002:00000390       __imp__wsprintfA           22054390     user32:USER32.dll
 0002:00000394       __imp__DefWindowProcW@16   22054394     user32:USER32.dll
 0002:00000398       __imp__CallWindowProcA@20  22054398     user32:USER32.dll
 0002:0000039c       __imp__CallWindowProcW@20  2205439c     user32:USER32.dll
 0002:000003a0       __imp__BringWindowToTop@4  220543a0     user32:USER32.dll
 0002:000003a4       __imp__RemoveMenu@12       220543a4     user32:USER32.dll
 0002:000003a8       __imp__SetRectEmpty@4      220543a8     user32:USER32.dll
 0002:000003ac       __imp__RegisterClipboardFormatA@4 220543ac     user32:USER32.dll
 0002:000003b0       __imp__LoadImageA@24       220543b0     user32:USER32.dll
 0002:000003b4       __imp__ReleaseDC@8         220543b4     user32:USER32.dll
 0002:000003b8       __imp__GetDC@4             220543b8     user32:USER32.dll
 0002:000003bc       __imp__LoadStringA@16      220543bc     user32:USER32.dll
 0002:000003c0       __imp__DrawTextW@20        220543c0     user32:USER32.dll
 0002:000003c4       __imp__CreateWindowExA@48  220543c4     user32:USER32.dll
 0002:000003c8       __imp__BeginPaint@8        220543c8     user32:USER32.dll
 0002:000003cc       __imp__EndPaint@8          220543cc     user32:USER32.dll
 0002:000003d0       __imp__DefWindowProcA@16   220543d0     user32:USER32.dll
 0002:000003d4       __imp__GetWindowThreadProcessId@8 220543d4     user32:USER32.dll
 0002:000003d8       __imp__EnumChildWindows@12 220543d8     user32:USER32.dll
 0002:000003dc       __imp__InsertMenuA@20      220543dc     user32:USER32.dll
 0002:000003e0       __imp__UpdateWindow@4      220543e0     user32:USER32.dll
 0002:000003e4       __imp__SetTimer@16         220543e4     user32:USER32.dll
 0002:000003e8       __imp__KillTimer@8         220543e8     user32:USER32.dll
 0002:000003ec       __imp__MessageBeep@4       220543ec     user32:USER32.dll
 0002:000003f0       __imp__MessageBoxA@16      220543f0     user32:USER32.dll
 0002:000003f4       __imp__EnableMenuItem@12   220543f4     user32:USER32.dll
 0002:000003f8       __imp__PostMessageA@16     220543f8     user32:USER32.dll
 0002:000003fc       __imp__SendMessageA@16     220543fc     user32:USER32.dll
 0002:00000400       __imp__CreatePopupMenu@0   22054400     user32:USER32.dll
 0002:00000404       __imp__AppendMenuA@16      22054404     user32:USER32.dll
 0002:00000408       __imp__MapWindowPoints@16  22054408     user32:USER32.dll
 0002:0000040c       __imp__TrackPopupMenu@28   2205440c     user32:USER32.dll
 0002:00000410       \177USER32_NULL_THUNK_DATA 22054410     user32:USER32.dll
 0002:00000414       __imp__ClosePrinter@4      22054414     winspool:WINSPOOL.DRV
 0002:00000418       __imp__OpenPrinterW@12     22054418     winspool:WINSPOOL.DRV
 0002:0000041c       __imp__GetPrinterA@20      2205441c     winspool:WINSPOOL.DRV
 0002:00000420       __imp__GetPrinterW@20      22054420     winspool:WINSPOOL.DRV
 0002:00000424       __imp__OpenPrinterA@12     22054424     winspool:WINSPOOL.DRV
 0002:00000428       \177WINSPOOL_NULL_THUNK_DATA 22054428     winspool:WINSPOOL.DRV
 0002:0000042c       __imp__CoGetClassObject@20 2205442c     ole32:ole32.dll
 0002:00000430       __imp__CoTaskMemFree@4     22054430     ole32:ole32.dll
 0002:00000434       __imp__CoCreateInstance@20 22054434     ole32:ole32.dll
 0002:00000438       __imp__CoDisconnectObject@8 22054438     ole32:ole32.dll
 0002:0000043c       __imp__WriteClassStg@8     2205443c     ole32:ole32.dll
 0002:00000440       __imp__GetClassFile@8      22054440     ole32:ole32.dll
 0002:00000444       __imp__CreateBindCtx@8     22054444     ole32:ole32.dll
 0002:00000448       __imp__CreateFileMoniker@8 22054448     ole32:ole32.dll
 0002:0000044c       __imp__OleGetAutoConvert@8 2205444c     ole32:ole32.dll
 0002:00000450       __imp__ReleaseStgMedium@4  22054450     ole32:ole32.dll
 0002:00000454       __imp__StgCreateDocfile@16 22054454     ole32:ole32.dll
 0002:00000458       __imp__CreateDataAdviseHolder@4 22054458     ole32:ole32.dll
 0002:0000045c       __imp__OleRegEnumFormatEtc@12 2205445c     ole32:ole32.dll
 0002:00000460       __imp__CreateOleAdviseHolder@4 22054460     ole32:ole32.dll
 0002:00000464       __imp__OleRegGetUserType@12 22054464     ole32:ole32.dll
 0002:00000468       __imp__OleRegEnumVerbs@8   22054468     ole32:ole32.dll
 0002:0000046c       __imp__StgIsStorageFile@4  2205446c     ole32:ole32.dll
 0002:00000470       __imp__StgOpenStorage@24   22054470     ole32:ole32.dll
 0002:00000474       __imp__ReadClassStg@8      22054474     ole32:ole32.dll
 0002:00000478       __imp__CLSIDFromProgID@8   22054478     ole32:ole32.dll
 0002:0000047c       __imp__CoTaskMemAlloc@4    2205447c     ole32:ole32.dll
 0002:00000480       __imp__StringFromCLSID@8   22054480     ole32:ole32.dll
 0002:00000484       __imp__ProgIDFromCLSID@8   22054484     ole32:ole32.dll
 0002:00000488       __imp__CLSIDFromString@8   22054488     ole32:ole32.dll
 0002:0000048c       __imp__OleDoAutoConvert@8  2205448c     ole32:ole32.dll
 0002:00000490       \177ole32_NULL_THUNK_DATA  22054490     ole32:ole32.dll
 0002:00000494       __imp__OleUIInsertObjectW@4 22054494     oledlg:oledlg.dll
 0002:00000498       __imp__OleUIInsertObjectA@4 22054498     oledlg:oledlg.dll
 0002:0000049c       \177oledlg_NULL_THUNK_DATA 2205449c     oledlg:oledlg.dll
 0002:000004a0       ___xc_a                    220544a0     LIBCMTD:crt0init.obj
 0002:000004a4       ___xc_z                    220544a4     LIBCMTD:crt0init.obj
 0002:000004a8       ___xi_a                    220544a8     LIBCMTD:crt0init.obj
 0002:000004bc       ___xi_z                    220544bc     LIBCMTD:crt0init.obj
 0002:000004c0       ___xp_a                    220544c0     LIBCMTD:crt0init.obj
 0002:000004d0       ___xp_z                    220544d0     LIBCMTD:crt0init.obj
 0002:000004d4       ___xt_a                    220544d4     LIBCMTD:crt0init.obj
 0002:000004d8       ___xt_z                    220544d8     LIBCMTD:crt0init.obj
 0002:000005ec       ??_7CDsoFramerClassFactory@@6B@ 220545ec     classfactory.obj
 0002:0000335c       ??_7CDsoFramerControl@@6B@ 2205735c     dsofcontrol.obj
 0002:00003454       ??_7XInternalUnknown@CDsoFramerControl@@6B@ 22057454     dsofcontrol.obj
 0002:00003460       ??_C@_0CE@EDOKILDO@?5?$CK?5IInternalUnknown?5NOT?5released@ 22057460     dsofcontrol.obj
 0002:00003488       ??_7XPersistStreamInit@CDsoFramerControl@@6B@ 22057488     dsofcontrol.obj
 0002:000034ac       ??_C@_0CG@NAONIFJK@?5?$CK?5IPersistStreamInit?5NOT?5releas@ 220574ac     dsofcontrol.obj
 0002:000034d8       ??_7XPersistPropertyBag@CDsoFramerControl@@6B@ 220574d8     dsofcontrol.obj
 0002:000034f4       ??_C@_0CH@LKFIAMNK@?5?$CK?5IPersistPropertyBag?5NOT?5relea@ 220574f4     dsofcontrol.obj
 0002:00003520       ??_7XPersistStorage@CDsoFramerControl@@6B@ 22057520     dsofcontrol.obj
 0002:00003548       ??_C@_0CD@PBJODBCA@?5?$CK?5IPersistStorage?5NOT?5released?$CB@ 22057548     dsofcontrol.obj
 0002:00003574       ??_7XOleObject@CDsoFramerControl@@6B@ 22057574     dsofcontrol.obj
 0002:000035d4       ??_C@_0BO@KHOCNJPM@?5?$CK?5IOleObject?5NOT?5released?$CB?$CB?6?$AA@ 220575d4     dsofcontrol.obj
 0002:000035f8       ??_7XOleControl@CDsoFramerControl@@6B@ 220575f8     dsofcontrol.obj
 0002:00003614       ??_C@_0BP@BHPIOOGK@?5?$CK?5IOleControl?5NOT?5released?$CB?$CB?6?$AA@ 22057614     dsofcontrol.obj
 0002:00003638       ??_7XOleInplaceObject@CDsoFramerControl@@6B@ 22057638     dsofcontrol.obj
 0002:0000365c       ??_C@_0CF@MOLPCLJN@?5?$CK?5IOleInplaceObject?5NOT?5release@ 2205765c     dsofcontrol.obj
 0002:00003688       ??_7XOleInplaceActiveObject@CDsoFramerControl@@6B@ 22057688     dsofcontrol.obj
 0002:000036b0       ??_C@_0CL@IKKCOCLI@?5?$CK?5IOleInplaceActiveObject?5NOT?5r@ 220576b0     dsofcontrol.obj
 0002:000036e4       ??_7XViewObjectEx@CDsoFramerControl@@6B@ 220576e4     dsofcontrol.obj
 0002:00003720       ??_C@_0CB@KPLHIIPJ@?5?$CK?5IViewObjectEx?5NOT?5released?$CB?$CB?6@ 22057720     dsofcontrol.obj
 0002:00003748       ??_7XDataObject@CDsoFramerControl@@6B@ 22057748     dsofcontrol.obj
 0002:00003778       ??_C@_0BP@IDKKMFMC@?5?$CK?5IDataObject?5NOT?5released?$CB?$CB?6?$AA@ 22057778     dsofcontrol.obj
 0002:0000379c       ??_7XProvideClassInfo@CDsoFramerControl@@6B@ 2205779c     dsofcontrol.obj
 0002:000037ac       ??_C@_0CF@OGALEBJL@?5?$CK?5IProvideClassInfo?5NOT?5release@ 220577ac     dsofcontrol.obj
 0002:000037d8       ??_7XConnectionPointContainer@CDsoFramerControl@@6B@ 220577d8     dsofcontrol.obj
 0002:000037ec       ??_C@_0CN@LPBLLOD@?5?$CK?5IConnectionPointContainer?5NOT@ 220577ec     dsofcontrol.obj
 0002:00003820       ??_7XEnumConnectionPoints@CDsoFramerControl@@6B@ 22057820     dsofcontrol.obj
 0002:0000383c       ??_C@_0CJ@OBHCIGEO@?5?$CK?5IEnumConnectionPoints?5NOT?5rel@ 2205783c     dsofcontrol.obj
 0002:0000386c       ??_7XConnectionPoint@CDsoFramerControl@@6B@ 2205786c     dsofcontrol.obj
 0002:0000388c       ??_C@_0CE@IHKBCGIF@?5?$CK?5IConnectionPoint?5NOT?5released@ 2205788c     dsofcontrol.obj
 0002:000038b4       ??_7XOleCommandTarget@CDsoFramerControl@@6B@ 220578b4     dsofcontrol.obj
 0002:000038c8       ??_C@_0CF@BGFLBKMP@?5?$CK?5IOleCommandTarget?5NOT?5release@ 220578c8     dsofcontrol.obj
 0002:000038f4       ??_7XSupportErrorInfo@CDsoFramerControl@@6B@ 220578f4     dsofcontrol.obj
 0002:00003904       ??_C@_0CF@JDJEJFHF@?5?$CK?5ISupportErrorInfo?5NOT?5release@ 22057904     dsofcontrol.obj
 0002:00003930       ??_7XObjectSafety@CDsoFramerControl@@6B@ 22057930     dsofcontrol.obj
 0002:00003944       ??_C@_0CB@CNFMBAJE@?5?$CK?5IObjectSafety?5NOT?5released?$CB?$CB?6@ 22057944     dsofcontrol.obj
 0002:0000396c       ??_7XDsoDocObjectSite@CDsoFramerControl@@6B@ 2205796c     dsofcontrol.obj
 0002:00003994       ??_7IDsoDocObjectSite@@6B@ 22057994     dsofcontrol.obj
 0002:000039b8       ??_C@_0CF@NKGFALOC@?5?$CK?5IDsoDocObjectSite?5NOT?5release@ 220579b8     dsofcontrol.obj
 0002:00003c8c       ??_C@_0CH@JNOGECCD@CDsoFramerControl?3?3OnWindowEnabl@ 22057c8c     dsofcontrol.obj
 0002:00003cb4       ??_C@_0BO@OCCNKOBD@CDsoFrameHookManager?5created?6?$AA@ 22057cb4     dsofcontrol.obj
 0002:00003cd4       ??_C@_0BO@PODLPMCN@CDsoFrameHookManager?5deleted?6?$AA@ 22057cd4     dsofcontrol.obj
 0002:00003cf4       ??_C@_0BN@FJHHHADD@CDsoFrameWindowHook?5created?6?$AA@ 22057cf4     dsofcontrol.obj
 0002:00003d14       ??_C@_0BN@EFGBCCAN@CDsoFrameWindowHook?5deleted?6?$AA@ 22057d14     dsofcontrol.obj
 0002:00004bc8       ??_7CDsoDocObject@@6B@     22058bc8     dsofdocobj.obj
 0002:00004bd8       ??_7XOleClientSite@CDsoDocObject@@6B@ 22058bd8     dsofdocobj.obj
 0002:00004bfc       ??_C@_0CC@CCOPIAND@?5?$CK?5IOleClientSite?5NOT?5released?$CB?$CB@ 22058bfc     dsofdocobj.obj
 0002:00004c24       ??_7XOleInPlaceSite@CDsoDocObject@@6B@ 22058c24     dsofdocobj.obj
 0002:00004c60       ??_C@_0CD@FFDMKHPH@?5?$CK?5IOleInPlaceSite?5NOT?5released?$CB@ 22058c60     dsofdocobj.obj
 0002:00004c88       ??_7XOleDocumentSite@CDsoDocObject@@6B@ 22058c88     dsofdocobj.obj
 0002:00004c98       ??_C@_0CE@ENBOJOIC@?5?$CK?5IOleDocumentSite?5NOT?5released@ 22058c98     dsofdocobj.obj
 0002:00004cc4       ??_7XOleInPlaceFrame@CDsoDocObject@@6B@ 22058cc4     dsofdocobj.obj
 0002:00004d00       ??_C@_0CE@NJFGCLIB@?5?$CK?5IOleInPlaceFrame?5NOT?5released@ 22058d00     dsofdocobj.obj
 0002:00004d28       ??_7XOleCommandTarget@CDsoDocObject@@6B@ 22058d28     dsofdocobj.obj
 0002:00004d40       ??_7XServiceProvider@CDsoDocObject@@6B@ 22058d40     dsofdocobj.obj
 0002:00004d50       ??_C@_0CE@IGDEAMBE@?5?$CK?5IServiceProvider?5NOT?5released@ 22058d50     dsofdocobj.obj
 0002:00004d78       ??_7XAuthenticate@CDsoDocObject@@6B@ 22058d78     dsofdocobj.obj
 0002:00004d88       ??_C@_0CB@JGLFACLD@?5?$CK?5IAuthenticate?5NOT?5released?$CB?$CB?6@ 22058d88     dsofdocobj.obj
 0002:00004db0       ??_7XContinueCallback@CDsoDocObject@@6B@ 22058db0     dsofdocobj.obj
 0002:00004dc4       ??_C@_0CF@FMKEOGJB@?5?$CK?5IContinueCallback?5NOT?5release@ 22058dc4     dsofdocobj.obj
 0002:00004df0       ??_7XPreviewCallback@CDsoDocObject@@6B@ 22058df0     dsofdocobj.obj
 0002:00004e00       ??_C@_0CE@HDPJAENO@?5?$CK?5IPreviewCallback?5NOT?5released@ 22058e00     dsofdocobj.obj
 0002:00004f38       _GUID_MAX_POWER_SAVINGS    22058f38     mainentry.obj
 0002:00004f48       _GUID_MIN_POWER_SAVINGS    22058f48     mainentry.obj
 0002:00004f58       _GUID_TYPICAL_POWER_SAVINGS 22058f58     mainentry.obj
 0002:00004f68       _NO_SUBGROUP_GUID          22058f68     mainentry.obj
 0002:00004f78       _ALL_POWERSCHEMES_GUID     22058f78     mainentry.obj
 0002:00004f88       _GUID_POWERSCHEME_PERSONALITY 22058f88     mainentry.obj
 0002:00004f98       _GUID_ACTIVE_POWERSCHEME   22058f98     mainentry.obj
 0002:00004fa8       _GUID_VIDEO_SUBGROUP       22058fa8     mainentry.obj
 0002:00004fb8       _GUID_VIDEO_POWERDOWN_TIMEOUT 22058fb8     mainentry.obj
 0002:00004fc8       _GUID_VIDEO_ANNOYANCE_TIMEOUT 22058fc8     mainentry.obj
 0002:00004fd8       _GUID_VIDEO_ADAPTIVE_PERCENT_INCREASE 22058fd8     mainentry.obj
 0002:00004fe8       _GUID_VIDEO_DIM_TIMEOUT    22058fe8     mainentry.obj
 0002:00004ff8       _GUID_VIDEO_ADAPTIVE_POWERDOWN 22058ff8     mainentry.obj
 0002:00005008       _GUID_MONITOR_POWER_ON     22059008     mainentry.obj
 0002:00005018       _GUID_DEVICE_POWER_POLICY_VIDEO_BRIGHTNESS 22059018     mainentry.obj
 0002:00005028       _GUID_DEVICE_POWER_POLICY_VIDEO_DIM_BRIGHTNESS 22059028     mainentry.obj
 0002:00005038       _GUID_VIDEO_CURRENT_MONITOR_BRIGHTNESS 22059038     mainentry.obj
 0002:00005048       _GUID_VIDEO_ADAPTIVE_DISPLAY_BRIGHTNESS 22059048     mainentry.obj
 0002:00005058       _GUID_SESSION_DISPLAY_STATE 22059058     mainentry.obj
 0002:00005068       _GUID_CONSOLE_DISPLAY_STATE 22059068     mainentry.obj
 0002:00005078       _GUID_ALLOW_DISPLAY_REQUIRED 22059078     mainentry.obj
 0002:00005088       _GUID_DISK_SUBGROUP        22059088     mainentry.obj
 0002:00005098       _GUID_DISK_POWERDOWN_TIMEOUT 22059098     mainentry.obj
 0002:000050a8       _GUID_DISK_BURST_IGNORE_THRESHOLD 220590a8     mainentry.obj
 0002:000050b8       _GUID_DISK_ADAPTIVE_POWERDOWN 220590b8     mainentry.obj
 0002:000050c8       _GUID_SLEEP_SUBGROUP       220590c8     mainentry.obj
 0002:000050d8       _GUID_SLEEP_IDLE_THRESHOLD 220590d8     mainentry.obj
 0002:000050e8       _GUID_STANDBY_TIMEOUT      220590e8     mainentry.obj
 0002:000050f8       _GUID_UNATTEND_SLEEP_TIMEOUT 220590f8     mainentry.obj
 0002:00005108       _GUID_HIBERNATE_TIMEOUT    22059108     mainentry.obj
 0002:00005118       _GUID_HIBERNATE_FASTS4_POLICY 22059118     mainentry.obj
 0002:00005128       _GUID_CRITICAL_POWER_TRANSITION 22059128     mainentry.obj
 0002:00005138       _GUID_SYSTEM_AWAYMODE      22059138     mainentry.obj
 0002:00005148       _GUID_ALLOW_AWAYMODE       22059148     mainentry.obj
 0002:00005158       _GUID_ALLOW_STANDBY_STATES 22059158     mainentry.obj
 0002:00005168       _GUID_ALLOW_RTC_WAKE       22059168     mainentry.obj
 0002:00005178       _GUID_ALLOW_SYSTEM_REQUIRED 22059178     mainentry.obj
 0002:00005188       _GUID_SYSTEM_BUTTON_SUBGROUP 22059188     mainentry.obj
 0002:00005198       _GUID_POWERBUTTON_ACTION   22059198     mainentry.obj
 0002:000051a8       _GUID_POWERBUTTON_ACTION_FLAGS 220591a8     mainentry.obj
 0002:000051b8       _GUID_SLEEPBUTTON_ACTION   220591b8     mainentry.obj
 0002:000051c8       _GUID_SLEEPBUTTON_ACTION_FLAGS 220591c8     mainentry.obj
 0002:000051d8       _GUID_USERINTERFACEBUTTON_ACTION 220591d8     mainentry.obj
 0002:000051e8       _GUID_LIDCLOSE_ACTION      220591e8     mainentry.obj
 0002:000051f8       _GUID_LIDCLOSE_ACTION_FLAGS 220591f8     mainentry.obj
 0002:00005208       _GUID_LIDOPEN_POWERSTATE   22059208     mainentry.obj
 0002:00005218       _GUID_BATTERY_SUBGROUP     22059218     mainentry.obj
 0002:00005228       _GUID_BATTERY_DISCHARGE_ACTION_0 22059228     mainentry.obj
 0002:00005238       _GUID_BATTERY_DISCHARGE_LEVEL_0 22059238     mainentry.obj
 0002:00005248       _GUID_BATTERY_DISCHARGE_FLAGS_0 22059248     mainentry.obj
 0002:00005258       _GUID_BATTERY_DISCHARGE_ACTION_1 22059258     mainentry.obj
 0002:00005268       _GUID_BATTERY_DISCHARGE_LEVEL_1 22059268     mainentry.obj
 0002:00005278       _GUID_BATTERY_DISCHARGE_FLAGS_1 22059278     mainentry.obj
 0002:00005288       _GUID_BATTERY_DISCHARGE_ACTION_2 22059288     mainentry.obj
 0002:00005298       _GUID_BATTERY_DISCHARGE_LEVEL_2 22059298     mainentry.obj
 0002:000052a8       _GUID_BATTERY_DISCHARGE_FLAGS_2 220592a8     mainentry.obj
 0002:000052b8       _GUID_BATTERY_DISCHARGE_ACTION_3 220592b8     mainentry.obj
 0002:000052c8       _GUID_BATTERY_DISCHARGE_LEVEL_3 220592c8     mainentry.obj
 0002:000052d8       _GUID_BATTERY_DISCHARGE_FLAGS_3 220592d8     mainentry.obj
 0002:000052e8       _GUID_PROCESSOR_SETTINGS_SUBGROUP 220592e8     mainentry.obj
 0002:000052f8       _GUID_PROCESSOR_THROTTLE_POLICY 220592f8     mainentry.obj
 0002:00005308       _GUID_PROCESSOR_THROTTLE_MAXIMUM 22059308     mainentry.obj
 0002:00005318       _GUID_PROCESSOR_THROTTLE_MINIMUM 22059318     mainentry.obj
 0002:00005328       _GUID_PROCESSOR_ALLOW_THROTTLING 22059328     mainentry.obj
 0002:00005338       _GUID_PROCESSOR_IDLESTATE_POLICY 22059338     mainentry.obj
 0002:00005348       _GUID_PROCESSOR_PERFSTATE_POLICY 22059348     mainentry.obj
 0002:00005358       _GUID_PROCESSOR_PERF_INCREASE_THRESHOLD 22059358     mainentry.obj
 0002:00005368       _GUID_PROCESSOR_PERF_DECREASE_THRESHOLD 22059368     mainentry.obj
 0002:00005378       _GUID_PROCESSOR_PERF_INCREASE_POLICY 22059378     mainentry.obj
 0002:00005388       _GUID_PROCESSOR_PERF_DECREASE_POLICY 22059388     mainentry.obj
 0002:00005398       _GUID_PROCESSOR_PERF_INCREASE_TIME 22059398     mainentry.obj
 0002:000053a8       _GUID_PROCESSOR_PERF_DECREASE_TIME 220593a8     mainentry.obj
 0002:000053b8       _GUID_PROCESSOR_PERF_TIME_CHECK 220593b8     mainentry.obj
 0002:000053c8       _GUID_PROCESSOR_PERF_BOOST_POLICY 220593c8     mainentry.obj
 0002:000053d8       _GUID_PROCESSOR_IDLE_ALLOW_SCALING 220593d8     mainentry.obj
 0002:000053e8       _GUID_PROCESSOR_IDLE_DISABLE 220593e8     mainentry.obj
 0002:000053f8       _GUID_PROCESSOR_IDLE_TIME_CHECK 220593f8     mainentry.obj
 0002:00005408       _GUID_PROCESSOR_IDLE_DEMOTE_THRESHOLD 22059408     mainentry.obj
 0002:00005418       _GUID_PROCESSOR_IDLE_PROMOTE_THRESHOLD 22059418     mainentry.obj
 0002:00005428       _GUID_PROCESSOR_CORE_PARKING_INCREASE_THRESHOLD 22059428     mainentry.obj
 0002:00005438       _GUID_PROCESSOR_CORE_PARKING_DECREASE_THRESHOLD 22059438     mainentry.obj
 0002:00005448       _GUID_PROCESSOR_CORE_PARKING_INCREASE_POLICY 22059448     mainentry.obj
 0002:00005458       _GUID_PROCESSOR_CORE_PARKING_DECREASE_POLICY 22059458     mainentry.obj
 0002:00005468       _GUID_PROCESSOR_CORE_PARKING_MAX_CORES 22059468     mainentry.obj
 0002:00005478       _GUID_PROCESSOR_CORE_PARKING_MIN_CORES 22059478     mainentry.obj
 0002:00005488       _GUID_PROCESSOR_CORE_PARKING_INCREASE_TIME 22059488     mainentry.obj
 0002:00005498       _GUID_PROCESSOR_CORE_PARKING_DECREASE_TIME 22059498     mainentry.obj
 0002:000054a8       _GUID_PROCESSOR_CORE_PARKING_AFFINITY_HISTORY_DECREASE_FACTOR 220594a8     mainentry.obj
 0002:000054b8       _GUID_PROCESSOR_CORE_PARKING_AFFINITY_HISTORY_THRESHOLD 220594b8     mainentry.obj
 0002:000054c8       _GUID_PROCESSOR_CORE_PARKING_AFFINITY_WEIGHTING 220594c8     mainentry.obj
 0002:000054d8       _GUID_PROCESSOR_CORE_PARKING_OVER_UTILIZATION_HISTORY_DECREASE_FACTOR 220594d8     mainentry.obj
 0002:000054e8       _GUID_PROCESSOR_CORE_PARKING_OVER_UTILIZATION_HISTORY_THRESHOLD 220594e8     mainentry.obj
 0002:000054f8       _GUID_PROCESSOR_CORE_PARKING_OVER_UTILIZATION_WEIGHTING 220594f8     mainentry.obj
 0002:00005508       _GUID_PROCESSOR_CORE_PARKING_OVER_UTILIZATION_THRESHOLD 22059508     mainentry.obj
 0002:00005518       _GUID_PROCESSOR_PARKING_CORE_OVERRIDE 22059518     mainentry.obj
 0002:00005528       _GUID_PROCESSOR_PARKING_PERF_STATE 22059528     mainentry.obj
 0002:00005538       _GUID_PROCESSOR_PERF_HISTORY 22059538     mainentry.obj
 0002:00005548       _GUID_SYSTEM_COOLING_POLICY 22059548     mainentry.obj
 0002:00005558       _GUID_LOCK_CONSOLE_ON_WAKE 22059558     mainentry.obj
 0002:00005568       _GUID_DEVICE_IDLE_POLICY   22059568     mainentry.obj
 0002:00005578       _GUID_ACDC_POWER_SOURCE    22059578     mainentry.obj
 0002:00005588       _GUID_LIDSWITCH_STATE_CHANGE 22059588     mainentry.obj
 0002:00005598       _GUID_BATTERY_PERCENTAGE_REMAINING 22059598     mainentry.obj
 0002:000055a8       _GUID_IDLE_BACKGROUND_TASK 220595a8     mainentry.obj
 0002:000055b8       _GUID_BACKGROUND_TASK_NOTIFICATION 220595b8     mainentry.obj
 0002:000055c8       _GUID_APPLAUNCH_BUTTON     220595c8     mainentry.obj
 0002:000055d8       _GUID_PCIEXPRESS_SETTINGS_SUBGROUP 220595d8     mainentry.obj
 0002:000055e8       _GUID_PCIEXPRESS_ASPM_POLICY 220595e8     mainentry.obj
 0002:000055f8       _GUID_ENABLE_SWITCH_FORCED_SHUTDOWN 220595f8     mainentry.obj
 0002:00005608       _PPM_PERFSTATE_CHANGE_GUID 22059608     mainentry.obj
 0002:00005618       _PPM_PERFSTATE_DOMAIN_CHANGE_GUID 22059618     mainentry.obj
 0002:00005628       _PPM_IDLESTATE_CHANGE_GUID 22059628     mainentry.obj
 0002:00005638       _PPM_PERFSTATES_DATA_GUID  22059638     mainentry.obj
 0002:00005648       _PPM_IDLESTATES_DATA_GUID  22059648     mainentry.obj
 0002:00005658       _PPM_IDLE_ACCOUNTING_GUID  22059658     mainentry.obj
 0002:00005668       _PPM_IDLE_ACCOUNTING_EX_GUID 22059668     mainentry.obj
 0002:00005678       _PPM_THERMALCONSTRAINT_GUID 22059678     mainentry.obj
 0002:00005688       _PPM_PERFMON_PERFSTATE_GUID 22059688     mainentry.obj
 0002:00005698       _PPM_THERMAL_POLICY_CHANGE_GUID 22059698     mainentry.obj
 0002:000056a8       _GUID_DEVINTERFACE_DISK    220596a8     mainentry.obj
 0002:000056b8       _GUID_DEVINTERFACE_CDROM   220596b8     mainentry.obj
 0002:000056c8       _GUID_DEVINTERFACE_PARTITION 220596c8     mainentry.obj
 0002:000056d8       _GUID_DEVINTERFACE_TAPE    220596d8     mainentry.obj
 0002:000056e8       _GUID_DEVINTERFACE_WRITEONCEDISK 220596e8     mainentry.obj
 0002:000056f8       _GUID_DEVINTERFACE_VOLUME  220596f8     mainentry.obj
 0002:00005708       _GUID_DEVINTERFACE_MEDIUMCHANGER 22059708     mainentry.obj
 0002:00005718       _GUID_DEVINTERFACE_FLOPPY  22059718     mainentry.obj
 0002:00005728       _GUID_DEVINTERFACE_CDCHANGER 22059728     mainentry.obj
 0002:00005738       _GUID_DEVINTERFACE_STORAGEPORT 22059738     mainentry.obj
 0002:00005748       _GUID_DEVINTERFACE_HIDDEN_VOLUME 22059748     mainentry.obj
 0002:00005758       _GUID_DEVINTERFACE_COMPORT 22059758     mainentry.obj
 0002:00005768       _GUID_DEVINTERFACE_SERENUM_BUS_ENUMERATOR 22059768     mainentry.obj
 0002:00005778       _FILE_TYPE_NOTIFICATION_GUID_PAGE_FILE 22059778     mainentry.obj
 0002:00005788       _FILE_TYPE_NOTIFICATION_GUID_HIBERNATION_FILE 22059788     mainentry.obj
 0002:00005798       _FILE_TYPE_NOTIFICATION_GUID_CRASHDUMP_FILE 22059798     mainentry.obj
 0002:000057a8       _IID_IPrintDialogCallback  220597a8     mainentry.obj
 0002:000057b8       _IID_IPrintDialogServices  220597b8     mainentry.obj
 0002:000057c8       _NETWORK_MANAGER_FIRST_IP_ADDRESS_ARRIVAL_GUID 220597c8     mainentry.obj
 0002:000057d8       _NETWORK_MANAGER_LAST_IP_ADDRESS_REMOVAL_GUID 220597d8     mainentry.obj
 0002:000057e8       _DOMAIN_JOIN_GUID          220597e8     mainentry.obj
 0002:000057f8       _DOMAIN_LEAVE_GUID         220597f8     mainentry.obj
 0002:00005808       _FIREWALL_PORT_OPEN_GUID   22059808     mainentry.obj
 0002:00005818       _FIREWALL_PORT_CLOSE_GUID  22059818     mainentry.obj
 0002:00005828       _MACHINE_POLICY_PRESENT_GUID 22059828     mainentry.obj
 0002:00005838       _USER_POLICY_PRESENT_GUID  22059838     mainentry.obj
 0002:00005848       _IID_IObjectSafety         22059848     mainentry.obj
 0002:00005858       _IID_IOlePreviewCallback   22059858     mainentry.obj
 0002:00005868       _IID_IOleInplacePrintPreview 22059868     mainentry.obj
 0002:00005878       _CLSID_MSDAIPP_DSO         22059878     mainentry.obj
 0002:00005888       _CLSID_MSDAIPP_BINDER      22059888     mainentry.obj
 0002:00005898       _DBPROPSET_MSDAIPP_INIT    22059898     mainentry.obj
 0002:000058a8       _IIDX_IBindResource        220598a8     mainentry.obj
 0002:000058b8       _IIDX_IDBBinderProperties  220598b8     mainentry.obj
 0002:000058c8       _IIDX_ICreateRow           220598c8     mainentry.obj
 0002:000058d8       _IIDX_IAuthenticate        220598d8     mainentry.obj
 0002:000058e8       _DBGUIDX_STREAM            220598e8     mainentry.obj
 0002:000058f8       _CLSID_WORD_DOCUMENT_DOC   220598f8     mainentry.obj
 0002:00005908       _CLSID_EXCEL_WORKBOOK_XLS  22059908     mainentry.obj
 0002:00005918       _CLSID_EXCEL_CHART_XLS     22059918     mainentry.obj
 0002:00005928       _CLSID_PPT_PRESENTATION_PPT 22059928     mainentry.obj
 0002:00005938       _CLSID_VISIO_DRAWING_VSD   22059938     mainentry.obj
 0002:00005948       _CLSID_PROJECT_DOCUMENT_MPP 22059948     mainentry.obj
 0002:00005958       _CLSID_MSHTML_DOCUMENT     22059958     mainentry.obj
 0002:00005968       _CLSID_WORD_DOCUMENT_DOCX  22059968     mainentry.obj
 0002:00005978       _CLSID_WORD_DOCUMENT_DOCM  22059978     mainentry.obj
 0002:00005988       _CLSID_EXCEL_WORKBOOK_XLSX 22059988     mainentry.obj
 0002:00005998       _CLSID_EXCEL_WORKBOOK_XLSM 22059998     mainentry.obj
 0002:000059a8       _CLSID_EXCEL_WORKBOOK_XLSB 220599a8     mainentry.obj
 0002:000059b8       _CLSID_PPT_PRESENTATION_PPTX 220599b8     mainentry.obj
 0002:000059c8       _CLSID_PPT_PRESENTATION_PPTM 220599c8     mainentry.obj
 0002:000059d8       _IID_IDsoDocObjectSite     220599d8     mainentry.obj
 0002:000059e8       _LIBID_DSOFramer           220599e8     mainentry.obj
 0002:000059f8       _IID__FramerControl        220599f8     mainentry.obj
 0002:00005a08       _DIID__DFramerCtlEvents    22059a08     mainentry.obj
 0002:00005a18       _CLSID_FramerControl       22059a18     mainentry.obj
 0002:00005d1c       _IID_IUnknown              22059d1c     uuid:unknwn_i.obj
 0002:00005d2c       _IID_AsyncIUnknown         22059d2c     uuid:unknwn_i.obj
 0002:00005d3c       _IID_IClassFactory         22059d3c     uuid:unknwn_i.obj
 0002:00005d4c       _IID_ICreateTypeInfo       22059d4c     uuid:oaidl_i.obj
 0002:00005d5c       _IID_ICreateTypeInfo2      22059d5c     uuid:oaidl_i.obj
 0002:00005d6c       _IID_ICreateTypeLib        22059d6c     uuid:oaidl_i.obj
 0002:00005d7c       _IID_ICreateTypeLib2       22059d7c     uuid:oaidl_i.obj
 0002:00005d8c       _IID_IDispatch             22059d8c     uuid:oaidl_i.obj
 0002:00005d9c       _IID_IEnumVARIANT          22059d9c     uuid:oaidl_i.obj
 0002:00005dac       _IID_ITypeComp             22059dac     uuid:oaidl_i.obj
 0002:00005dbc       _IID_ITypeInfo             22059dbc     uuid:oaidl_i.obj
 0002:00005dcc       _IID_ITypeInfo2            22059dcc     uuid:oaidl_i.obj
 0002:00005ddc       _IID_ITypeLib              22059ddc     uuid:oaidl_i.obj
 0002:00005dec       _IID_ITypeLib2             22059dec     uuid:oaidl_i.obj
 0002:00005dfc       _IID_ITypeChangeEvents     22059dfc     uuid:oaidl_i.obj
 0002:00005e0c       _IID_IErrorInfo            22059e0c     uuid:oaidl_i.obj
 0002:00005e1c       _IID_ICreateErrorInfo      22059e1c     uuid:oaidl_i.obj
 0002:00005e2c       _IID_ISupportErrorInfo     22059e2c     uuid:oaidl_i.obj
 0002:00005e3c       _IID_ITypeFactory          22059e3c     uuid:oaidl_i.obj
 0002:00005e4c       _IID_ITypeMarshal          22059e4c     uuid:oaidl_i.obj
 0002:00005e5c       _IID_IRecordInfo           22059e5c     uuid:oaidl_i.obj
 0002:00005e6c       _IID_IErrorLog             22059e6c     uuid:oaidl_i.obj
 0002:00005e7c       _IID_IPropertyBag          22059e7c     uuid:oaidl_i.obj
 0002:00005e8c       _GUID_NULL                 22059e8c     uuid:cguid_i.obj
 0002:00005e9c       _CATID_MARSHALER           22059e9c     uuid:cguid_i.obj
 0002:00005eac       _IID_IRpcChannel           22059eac     uuid:cguid_i.obj
 0002:00005ebc       _IID_IRpcStub              22059ebc     uuid:cguid_i.obj
 0002:00005ecc       _IID_IStubManager          22059ecc     uuid:cguid_i.obj
 0002:00005edc       _IID_IRpcProxy             22059edc     uuid:cguid_i.obj
 0002:00005eec       _IID_IProxyManager         22059eec     uuid:cguid_i.obj
 0002:00005efc       _IID_IPSFactory            22059efc     uuid:cguid_i.obj
 0002:00005f0c       _IID_IInternalMoniker      22059f0c     uuid:cguid_i.obj
 0002:00005f1c       _IID_IDfReserved1          22059f1c     uuid:cguid_i.obj
 0002:00005f2c       _IID_IDfReserved2          22059f2c     uuid:cguid_i.obj
 0002:00005f3c       _IID_IDfReserved3          22059f3c     uuid:cguid_i.obj
 0002:00005f4c       _CLSID_StdMarshal          22059f4c     uuid:cguid_i.obj
 0002:00005f5c       _IID_IStub                 22059f5c     uuid:cguid_i.obj
 0002:00005f6c       _IID_IProxy                22059f6c     uuid:cguid_i.obj
 0002:00005f7c       _IID_IEnumGeneric          22059f7c     uuid:cguid_i.obj
 0002:00005f8c       _IID_IEnumHolder           22059f8c     uuid:cguid_i.obj
 0002:00005f9c       _IID_IEnumCallback         22059f9c     uuid:cguid_i.obj
 0002:00005fac       _IID_IOleManager           22059fac     uuid:cguid_i.obj
 0002:00005fbc       _IID_IOlePresObj           22059fbc     uuid:cguid_i.obj
 0002:00005fcc       _IID_IDebug                22059fcc     uuid:cguid_i.obj
 0002:00005fdc       _IID_IDebugStream          22059fdc     uuid:cguid_i.obj
 0002:00005fec       _CLSID_PSGenObject         22059fec     uuid:cguid_i.obj
 0002:00005ffc       _CLSID_PSClientSite        22059ffc     uuid:cguid_i.obj
 0002:0000600c       _CLSID_PSClassObject       2205a00c     uuid:cguid_i.obj
 0002:0000601c       _CLSID_PSInPlaceActive     2205a01c     uuid:cguid_i.obj
 0002:0000602c       _CLSID_PSInPlaceFrame      2205a02c     uuid:cguid_i.obj
 0002:0000603c       _CLSID_PSDragDrop          2205a03c     uuid:cguid_i.obj
 0002:0000604c       _CLSID_PSBindCtx           2205a04c     uuid:cguid_i.obj
 0002:0000605c       _CLSID_PSEnumerators       2205a05c     uuid:cguid_i.obj
 0002:0000606c       _CLSID_StaticMetafile      2205a06c     uuid:cguid_i.obj
 0002:0000607c       _CLSID_StaticDib           2205a07c     uuid:cguid_i.obj
 0002:0000608c       _CLSID_Picture_Metafile    2205a08c     uuid:cguid_i.obj
 0002:0000609c       _CLSID_Picture_EnhMetafile 2205a09c     uuid:cguid_i.obj
 0002:000060ac       _CLSID_Picture_Dib         2205a0ac     uuid:cguid_i.obj
 0002:000060bc       _CLSID_DCOMAccessControl   2205a0bc     uuid:cguid_i.obj
 0002:000060cc       _CLSID_StdGlobalInterfaceTable 2205a0cc     uuid:cguid_i.obj
 0002:000060dc       _CLSID_ManualResetEvent    2205a0dc     uuid:cguid_i.obj
 0002:000060ec       _CLSID_StdEvent            2205a0ec     uuid:cguid_i.obj
 0002:000060fc       _CLSID_SynchronizeContainer 2205a0fc     uuid:cguid_i.obj
 0002:0000610c       _CLSID_ComBinding          2205a10c     uuid:cguid_i.obj
 0002:0000611c       _CLSID_StdAsyncActManager  2205a11c     uuid:cguid_i.obj
 0002:0000612c       _CLSID_InProcFreeMarshaler 2205a12c     uuid:cguid_i.obj
 0002:0000613c       _CLSID_RemoteUnknownPSFactory 2205a13c     uuid:cguid_i.obj
 0002:0000614c       _IID_IRichEditOle          2205a14c     uuid:cguid_i.obj
 0002:0000615c       _IID_IRichEditOleCallback  2205a15c     uuid:cguid_i.obj
 0002:0000616c       _CLSID_AllClasses          2205a16c     uuid:cguid_i.obj
 0002:0000617c       _CLSID_LocalMachineClasses 2205a17c     uuid:cguid_i.obj
 0002:0000618c       _CLSID_CurrentUserClasses  2205a18c     uuid:cguid_i.obj
 0002:0000619c       _CLSID_AddrControl         2205a19c     uuid:cguid_i.obj
 0002:000061ac       _CLSID_GlobalOptions       2205a1ac     uuid:cguid_i.obj
 0002:000061bc       _CLSID_SurrogateManager    2205a1bc     uuid:cguid_i.obj
 0002:000061cc       _CLSID_ContextSwitcher     2205a1cc     uuid:cguid_i.obj
 0002:000061dc       _IID_IPropertyFrame        2205a1dc     uuid:cguid_i.obj
 0002:000061ec       _CLSID_CFontPropPage       2205a1ec     uuid:cguid_i.obj
 0002:000061fc       _CLSID_CColorPropPage      2205a1fc     uuid:cguid_i.obj
 0002:0000620c       _CLSID_CPicturePropPage    2205a20c     uuid:cguid_i.obj
 0002:0000621c       _CLSID_StockFontPage       2205a21c     uuid:cguid_i.obj
 0002:0000622c       _CLSID_StockColorPage      2205a22c     uuid:cguid_i.obj
 0002:0000623c       _CLSID_StockPicturePage    2205a23c     uuid:cguid_i.obj
 0002:0000624c       _CLSID_PersistPropset      2205a24c     uuid:cguid_i.obj
 0002:0000625c       _CLSID_ConvertVBX          2205a25c     uuid:cguid_i.obj
 0002:0000626c       _CLSID_StdFont             2205a26c     uuid:cguid_i.obj
 0002:0000627c       _CLSID_StdPicture          2205a27c     uuid:cguid_i.obj
 0002:0000628c       _GUID_HIMETRIC             2205a28c     uuid:cguid_i.obj
 0002:0000629c       _GUID_COLOR                2205a29c     uuid:cguid_i.obj
 0002:000062ac       _GUID_XPOSPIXEL            2205a2ac     uuid:cguid_i.obj
 0002:000062bc       _GUID_YPOSPIXEL            2205a2bc     uuid:cguid_i.obj
 0002:000062cc       _GUID_XSIZEPIXEL           2205a2cc     uuid:cguid_i.obj
 0002:000062dc       _GUID_YSIZEPIXEL           2205a2dc     uuid:cguid_i.obj
 0002:000062ec       _GUID_XPOS                 2205a2ec     uuid:cguid_i.obj
 0002:000062fc       _GUID_YPOS                 2205a2fc     uuid:cguid_i.obj
 0002:0000630c       _GUID_XSIZE                2205a30c     uuid:cguid_i.obj
 0002:0000631c       _GUID_YSIZE                2205a31c     uuid:cguid_i.obj
 0002:0000632c       _GUID_TRISTATE             2205a32c     uuid:cguid_i.obj
 0002:0000633c       _GUID_OPTIONVALUEEXCLUSIVE 2205a33c     uuid:cguid_i.obj
 0002:0000634c       _GUID_CHECKVALUEEXCLUSIVE  2205a34c     uuid:cguid_i.obj
 0002:0000635c       _GUID_FONTNAME             2205a35c     uuid:cguid_i.obj
 0002:0000636c       _GUID_FONTSIZE             2205a36c     uuid:cguid_i.obj
 0002:0000637c       _GUID_FONTBOLD             2205a37c     uuid:cguid_i.obj
 0002:0000638c       _GUID_FONTITALIC           2205a38c     uuid:cguid_i.obj
 0002:0000639c       _GUID_FONTUNDERSCORE       2205a39c     uuid:cguid_i.obj
 0002:000063ac       _GUID_FONTSTRIKETHROUGH    2205a3ac     uuid:cguid_i.obj
 0002:000063bc       _GUID_HANDLE               2205a3bc     uuid:cguid_i.obj
 0002:000063cc       _IID_StdOle                2205a3cc     uuid:cguid_i.obj
 0002:000063dc       _IID_ICursor               2205a3dc     uuid:cguid_i.obj
 0002:000063ec       _IID_ICursorMove           2205a3ec     uuid:cguid_i.obj
 0002:000063fc       _IID_ICursorScroll         2205a3fc     uuid:cguid_i.obj
 0002:0000640c       _IID_ICursorUpdateARow     2205a40c     uuid:cguid_i.obj
 0002:0000641c       _IID_INotifyDBEvents       2205a41c     uuid:cguid_i.obj
 0002:0000642c       _IID_ICursorFind           2205a42c     uuid:cguid_i.obj
 0002:0000643c       _IID_IEntryID              2205a43c     uuid:cguid_i.obj
 0002:0000644c       __GUID_NAMEONLY            2205a44c     uuid:cguid_i.obj
 0002:0000645c       __DBBMKGUID                2205a45c     uuid:cguid_i.obj
 0002:0000646c       __DBCIDGUID                2205a46c     uuid:cguid_i.obj
 0002:0000647c       _IID_IBoundObject          2205a47c     uuid:cguid_i.obj
 0002:0000648c       _IID_IBoundObjectSite      2205a48c     uuid:cguid_i.obj
 0002:0000649c       _CLSID_GblComponentCategoriesMgr 2205a49c     uuid:cguid_i.obj
 0002:000064ac       _CLSID_ThumbnailFCNHandler 2205a4ac     uuid:cguid_i.obj
 0002:000064bc       _CLSID_ThumbnailUpdater    2205a4bc     uuid:cguid_i.obj
 0002:000064cc       _GUID_DEVCLASS_1394        2205a4cc     uuid:cguid_i.obj
 0002:000064dc       _GUID_DEVCLASS_1394DEBUG   2205a4dc     uuid:cguid_i.obj
 0002:000064ec       _GUID_DEVCLASS_61883       2205a4ec     uuid:cguid_i.obj
 0002:000064fc       _GUID_DEVCLASS_ADAPTER     2205a4fc     uuid:cguid_i.obj
 0002:0000650c       _GUID_DEVCLASS_APMSUPPORT  2205a50c     uuid:cguid_i.obj
 0002:0000651c       _GUID_DEVCLASS_AVC         2205a51c     uuid:cguid_i.obj
 0002:0000652c       _GUID_DEVCLASS_BATTERY     2205a52c     uuid:cguid_i.obj
 0002:0000653c       _GUID_DEVCLASS_BIOMETRIC   2205a53c     uuid:cguid_i.obj
 0002:0000654c       _GUID_DEVCLASS_BLUETOOTH   2205a54c     uuid:cguid_i.obj
 0002:0000655c       _GUID_DEVCLASS_CDROM       2205a55c     uuid:cguid_i.obj
 0002:0000656c       _GUID_DEVCLASS_COMPUTER    2205a56c     uuid:cguid_i.obj
 0002:0000657c       _GUID_DEVCLASS_DECODER     2205a57c     uuid:cguid_i.obj
 0002:0000658c       _GUID_DEVCLASS_DISKDRIVE   2205a58c     uuid:cguid_i.obj
 0002:0000659c       _GUID_DEVCLASS_DISPLAY     2205a59c     uuid:cguid_i.obj
 0002:000065ac       _GUID_DEVCLASS_DOT4        2205a5ac     uuid:cguid_i.obj
 0002:000065bc       _GUID_DEVCLASS_DOT4PRINT   2205a5bc     uuid:cguid_i.obj
 0002:000065cc       _GUID_DEVCLASS_ENUM1394    2205a5cc     uuid:cguid_i.obj
 0002:000065dc       _GUID_DEVCLASS_FDC         2205a5dc     uuid:cguid_i.obj
 0002:000065ec       _GUID_DEVCLASS_FLOPPYDISK  2205a5ec     uuid:cguid_i.obj
 0002:000065fc       _GUID_DEVCLASS_GPS         2205a5fc     uuid:cguid_i.obj
 0002:0000660c       _GUID_DEVCLASS_HDC         2205a60c     uuid:cguid_i.obj
 0002:0000661c       _GUID_DEVCLASS_HIDCLASS    2205a61c     uuid:cguid_i.obj
 0002:0000662c       _GUID_DEVCLASS_IMAGE       2205a62c     uuid:cguid_i.obj
 0002:0000663c       _GUID_DEVCLASS_INFINIBAND  2205a63c     uuid:cguid_i.obj
 0002:0000664c       _GUID_DEVCLASS_INFRARED    2205a64c     uuid:cguid_i.obj
 0002:0000665c       _GUID_DEVCLASS_KEYBOARD    2205a65c     uuid:cguid_i.obj
 0002:0000666c       _GUID_DEVCLASS_LEGACYDRIVER 2205a66c     uuid:cguid_i.obj
 0002:0000667c       _GUID_DEVCLASS_MEDIA       2205a67c     uuid:cguid_i.obj
 0002:0000668c       _GUID_DEVCLASS_MEDIUM_CHANGER 2205a68c     uuid:cguid_i.obj
 0002:0000669c       _GUID_DEVCLASS_MODEM       2205a69c     uuid:cguid_i.obj
 0002:000066ac       _GUID_DEVCLASS_MONITOR     2205a6ac     uuid:cguid_i.obj
 0002:000066bc       _GUID_DEVCLASS_MOUSE       2205a6bc     uuid:cguid_i.obj
 0002:000066cc       _GUID_DEVCLASS_MTD         2205a6cc     uuid:cguid_i.obj
 0002:000066dc       _GUID_DEVCLASS_MULTIFUNCTION 2205a6dc     uuid:cguid_i.obj
 0002:000066ec       _GUID_DEVCLASS_MULTIPORTSERIAL 2205a6ec     uuid:cguid_i.obj
 0002:000066fc       _GUID_DEVCLASS_NET         2205a6fc     uuid:cguid_i.obj
 0002:0000670c       _GUID_DEVCLASS_NETCLIENT   2205a70c     uuid:cguid_i.obj
 0002:0000671c       _GUID_DEVCLASS_NETSERVICE  2205a71c     uuid:cguid_i.obj
 0002:0000672c       _GUID_DEVCLASS_NETTRANS    2205a72c     uuid:cguid_i.obj
 0002:0000673c       _GUID_DEVCLASS_NODRIVER    2205a73c     uuid:cguid_i.obj
 0002:0000674c       _GUID_DEVCLASS_PCMCIA      2205a74c     uuid:cguid_i.obj
 0002:0000675c       _GUID_DEVCLASS_PNPPRINTERS 2205a75c     uuid:cguid_i.obj
 0002:0000676c       _GUID_DEVCLASS_PORTS       2205a76c     uuid:cguid_i.obj
 0002:0000677c       _GUID_DEVCLASS_PRINTER     2205a77c     uuid:cguid_i.obj
 0002:0000678c       _GUID_DEVCLASS_PRINTERUPGRADE 2205a78c     uuid:cguid_i.obj
 0002:0000679c       _GUID_DEVCLASS_PROCESSOR   2205a79c     uuid:cguid_i.obj
 0002:000067ac       _GUID_DEVCLASS_SBP2        2205a7ac     uuid:cguid_i.obj
 0002:000067bc       _GUID_DEVCLASS_SCSIADAPTER 2205a7bc     uuid:cguid_i.obj
 0002:000067cc       _GUID_DEVCLASS_SECURITYACCELERATOR 2205a7cc     uuid:cguid_i.obj
 0002:000067dc       _GUID_DEVCLASS_SENSOR      2205a7dc     uuid:cguid_i.obj
 0002:000067ec       _GUID_DEVCLASS_SIDESHOW    2205a7ec     uuid:cguid_i.obj
 0002:000067fc       _GUID_DEVCLASS_SMARTCARDREADER 2205a7fc     uuid:cguid_i.obj
 0002:0000680c       _GUID_DEVCLASS_SOUND       2205a80c     uuid:cguid_i.obj
 0002:0000681c       _GUID_DEVCLASS_SYSTEM      2205a81c     uuid:cguid_i.obj
 0002:0000682c       _GUID_DEVCLASS_TAPEDRIVE   2205a82c     uuid:cguid_i.obj
 0002:0000683c       _GUID_DEVCLASS_UNKNOWN     2205a83c     uuid:cguid_i.obj
 0002:0000684c       _GUID_DEVCLASS_USB         2205a84c     uuid:cguid_i.obj
 0002:0000685c       _GUID_DEVCLASS_VOLUME      2205a85c     uuid:cguid_i.obj
 0002:0000686c       _GUID_DEVCLASS_VOLUMESNAPSHOT 2205a86c     uuid:cguid_i.obj
 0002:0000687c       _GUID_DEVCLASS_WCEUSBS     2205a87c     uuid:cguid_i.obj
 0002:0000688c       _GUID_DEVCLASS_WPD         2205a88c     uuid:cguid_i.obj
 0002:0000689c       _GUID_DEVCLASS_FSFILTER_ACTIVITYMONITOR 2205a89c     uuid:cguid_i.obj
 0002:000068ac       _GUID_DEVCLASS_FSFILTER_UNDELETE 2205a8ac     uuid:cguid_i.obj
 0002:000068bc       _GUID_DEVCLASS_FSFILTER_ANTIVIRUS 2205a8bc     uuid:cguid_i.obj
 0002:000068cc       _GUID_DEVCLASS_FSFILTER_REPLICATION 2205a8cc     uuid:cguid_i.obj
 0002:000068dc       _GUID_DEVCLASS_FSFILTER_CONTINUOUSBACKUP 2205a8dc     uuid:cguid_i.obj
 0002:000068ec       _GUID_DEVCLASS_FSFILTER_CONTENTSCREENER 2205a8ec     uuid:cguid_i.obj
 0002:000068fc       _GUID_DEVCLASS_FSFILTER_QUOTAMANAGEMENT 2205a8fc     uuid:cguid_i.obj
 0002:0000690c       _GUID_DEVCLASS_FSFILTER_SYSTEMRECOVERY 2205a90c     uuid:cguid_i.obj
 0002:0000691c       _GUID_DEVCLASS_FSFILTER_CFSMETADATASERVER 2205a91c     uuid:cguid_i.obj
 0002:0000692c       _GUID_DEVCLASS_FSFILTER_HSM 2205a92c     uuid:cguid_i.obj
 0002:0000693c       _GUID_DEVCLASS_FSFILTER_COMPRESSION 2205a93c     uuid:cguid_i.obj
 0002:0000694c       _GUID_DEVCLASS_FSFILTER_ENCRYPTION 2205a94c     uuid:cguid_i.obj
 0002:0000695c       _GUID_DEVCLASS_FSFILTER_PHYSICALQUOTAMANAGEMENT 2205a95c     uuid:cguid_i.obj
 0002:0000696c       _GUID_DEVCLASS_FSFILTER_OPENFILEBACKUP 2205a96c     uuid:cguid_i.obj
 0002:0000697c       _GUID_DEVCLASS_FSFILTER_SECURITYENHANCER 2205a97c     uuid:cguid_i.obj
 0002:0000698c       _GUID_DEVCLASS_FSFILTER_COPYPROTECTION 2205a98c     uuid:cguid_i.obj
 0002:0000699c       _GUID_DEVCLASS_FSFILTER_SYSTEM 2205a99c     uuid:cguid_i.obj
 0002:000069ac       _GUID_DEVCLASS_FSFILTER_INFRASTRUCTURE 2205a9ac     uuid:cguid_i.obj
 0002:000069bc       _IID_IOleAdviseHolder      2205a9bc     uuid:oleidl_i.obj
 0002:000069cc       _IID_IOleCache             2205a9cc     uuid:oleidl_i.obj
 0002:000069dc       _IID_IOleCache2            2205a9dc     uuid:oleidl_i.obj
 0002:000069ec       _IID_IOleCacheControl      2205a9ec     uuid:oleidl_i.obj
 0002:000069fc       _IID_IParseDisplayName     2205a9fc     uuid:oleidl_i.obj
 0002:00006a0c       _IID_IOleContainer         2205aa0c     uuid:oleidl_i.obj
 0002:00006a1c       _IID_IOleClientSite        2205aa1c     uuid:oleidl_i.obj
 0002:00006a2c       _IID_IOleObject            2205aa2c     uuid:oleidl_i.obj
 0002:00006a3c       _IID_IOleWindow            2205aa3c     uuid:oleidl_i.obj
 0002:00006a4c       _IID_IOleLink              2205aa4c     uuid:oleidl_i.obj
 0002:00006a5c       _IID_IOleItemContainer     2205aa5c     uuid:oleidl_i.obj
 0002:00006a6c       _IID_IOleInPlaceUIWindow   2205aa6c     uuid:oleidl_i.obj
 0002:00006a7c       _IID_IOleInPlaceActiveObject 2205aa7c     uuid:oleidl_i.obj
 0002:00006a8c       _IID_IOleInPlaceFrame      2205aa8c     uuid:oleidl_i.obj
 0002:00006a9c       _IID_IOleInPlaceObject     2205aa9c     uuid:oleidl_i.obj
 0002:00006aac       _IID_IOleInPlaceSite       2205aaac     uuid:oleidl_i.obj
 0002:00006abc       _IID_IContinue             2205aabc     uuid:oleidl_i.obj
 0002:00006acc       _IID_IViewObject           2205aacc     uuid:oleidl_i.obj
 0002:00006adc       _IID_IViewObject2          2205aadc     uuid:oleidl_i.obj
 0002:00006aec       _IID_IDropSource           2205aaec     uuid:oleidl_i.obj
 0002:00006afc       _IID_IDropTarget           2205aafc     uuid:oleidl_i.obj
 0002:00006b0c       _IID_IDropSourceNotify     2205ab0c     uuid:oleidl_i.obj
 0002:00006b1c       _IID_IEnumOLEVERB          2205ab1c     uuid:oleidl_i.obj
 0002:00006b2c       _IID_IServiceProvider      2205ab2c     uuid:i_servprov.obj
 0002:00006b3c       _IID_IOleDocument          2205ab3c     uuid:i_docobj.obj
 0002:00006b4c       _IID_IOleDocumentSite      2205ab4c     uuid:i_docobj.obj
 0002:00006b5c       _IID_IOleDocumentView      2205ab5c     uuid:i_docobj.obj
 0002:00006b6c       _IID_IEnumOleDocumentViews 2205ab6c     uuid:i_docobj.obj
 0002:00006b7c       _IID_IContinueCallback     2205ab7c     uuid:i_docobj.obj
 0002:00006b8c       _IID_IPrint                2205ab8c     uuid:i_docobj.obj
 0002:00006b9c       _IID_IOleCommandTarget     2205ab9c     uuid:i_docobj.obj
 0002:00006bac       _IID_IZoomEvents           2205abac     uuid:i_docobj.obj
 0002:00006bbc       _IID_IProtectFocus         2205abbc     uuid:i_docobj.obj
 0002:00006bcc       _IID_IProtectedModeMenuServices 2205abcc     uuid:i_docobj.obj
 0002:00006bdc       _IID_IMarshal              2205abdc     uuid:objidl_i.obj
 0002:00006bec       _IID_IMarshal2             2205abec     uuid:objidl_i.obj
 0002:00006bfc       _IID_IMalloc               2205abfc     uuid:objidl_i.obj
 0002:00006c0c       _IID_IMallocSpy            2205ac0c     uuid:objidl_i.obj
 0002:00006c1c       _IID_IStdMarshalInfo       2205ac1c     uuid:objidl_i.obj
 0002:00006c2c       _IID_IExternalConnection   2205ac2c     uuid:objidl_i.obj
 0002:00006c3c       _IID_IMultiQI              2205ac3c     uuid:objidl_i.obj
 0002:00006c4c       _IID_AsyncIMultiQI         2205ac4c     uuid:objidl_i.obj
 0002:00006c5c       _IID_IInternalUnknown      2205ac5c     uuid:objidl_i.obj
 0002:00006c6c       _IID_IEnumUnknown          2205ac6c     uuid:objidl_i.obj
 0002:00006c7c       _IID_IBindCtx              2205ac7c     uuid:objidl_i.obj
 0002:00006c8c       _IID_IEnumMoniker          2205ac8c     uuid:objidl_i.obj
 0002:00006c9c       _IID_IRunnableObject       2205ac9c     uuid:objidl_i.obj
 0002:00006cac       _IID_IRunningObjectTable   2205acac     uuid:objidl_i.obj
 0002:00006cbc       _IID_IPersist              2205acbc     uuid:objidl_i.obj
 0002:00006ccc       _IID_IPersistStream        2205accc     uuid:objidl_i.obj
 0002:00006cdc       _IID_IMoniker              2205acdc     uuid:objidl_i.obj
 0002:00006cec       _IID_IROTData              2205acec     uuid:objidl_i.obj
 0002:00006cfc       _IID_IEnumString           2205acfc     uuid:objidl_i.obj
 0002:00006d0c       _IID_ISequentialStream     2205ad0c     uuid:objidl_i.obj
 0002:00006d1c       _IID_IStream               2205ad1c     uuid:objidl_i.obj
 0002:00006d2c       _IID_IEnumSTATSTG          2205ad2c     uuid:objidl_i.obj
 0002:00006d3c       _IID_IStorage              2205ad3c     uuid:objidl_i.obj
 0002:00006d4c       _IID_IPersistFile          2205ad4c     uuid:objidl_i.obj
 0002:00006d5c       _IID_IPersistStorage       2205ad5c     uuid:objidl_i.obj
 0002:00006d6c       _IID_ILockBytes            2205ad6c     uuid:objidl_i.obj
 0002:00006d7c       _IID_IEnumFORMATETC        2205ad7c     uuid:objidl_i.obj
 0002:00006d8c       _IID_IEnumSTATDATA         2205ad8c     uuid:objidl_i.obj
 0002:00006d9c       _IID_IRootStorage          2205ad9c     uuid:objidl_i.obj
 0002:00006dac       _IID_IAdviseSink           2205adac     uuid:objidl_i.obj
 0002:00006dbc       _IID_AsyncIAdviseSink      2205adbc     uuid:objidl_i.obj
 0002:00006dcc       _IID_IAdviseSink2          2205adcc     uuid:objidl_i.obj
 0002:00006ddc       _IID_AsyncIAdviseSink2     2205addc     uuid:objidl_i.obj
 0002:00006dec       _IID_IDataObject           2205adec     uuid:objidl_i.obj
 0002:00006dfc       _IID_IDataAdviseHolder     2205adfc     uuid:objidl_i.obj
 0002:00006e0c       _IID_IMessageFilter        2205ae0c     uuid:objidl_i.obj
 0002:00006e1c       _IID_IRpcChannelBuffer     2205ae1c     uuid:objidl_i.obj
 0002:00006e2c       _IID_IRpcChannelBuffer2    2205ae2c     uuid:objidl_i.obj
 0002:00006e3c       _IID_IAsyncRpcChannelBuffer 2205ae3c     uuid:objidl_i.obj
 0002:00006e4c       _IID_IRpcChannelBuffer3    2205ae4c     uuid:objidl_i.obj
 0002:00006e5c       _IID_IRpcSyntaxNegotiate   2205ae5c     uuid:objidl_i.obj
 0002:00006e6c       _IID_IRpcProxyBuffer       2205ae6c     uuid:objidl_i.obj
 0002:00006e7c       _IID_IRpcStubBuffer        2205ae7c     uuid:objidl_i.obj
 0002:00006e8c       _IID_IPSFactoryBuffer      2205ae8c     uuid:objidl_i.obj
 0002:00006e9c       _IID_IChannelHook          2205ae9c     uuid:objidl_i.obj
 0002:00006eac       _IID_IClientSecurity       2205aeac     uuid:objidl_i.obj
 0002:00006ebc       _IID_IServerSecurity       2205aebc     uuid:objidl_i.obj
 0002:00006ecc       _IID_IClassActivator       2205aecc     uuid:objidl_i.obj
 0002:00006edc       _IID_IRpcOptions           2205aedc     uuid:objidl_i.obj
 0002:00006eec       _IID_IGlobalOptions        2205aeec     uuid:objidl_i.obj
 0002:00006efc       _IID_IFillLockBytes        2205aefc     uuid:objidl_i.obj
 0002:00006f0c       _IID_IProgressNotify       2205af0c     uuid:objidl_i.obj
 0002:00006f1c       _IID_ILayoutStorage        2205af1c     uuid:objidl_i.obj
 0002:00006f2c       _IID_IBlockingLock         2205af2c     uuid:objidl_i.obj
 0002:00006f3c       _IID_ITimeAndNoticeControl 2205af3c     uuid:objidl_i.obj
 0002:00006f4c       _IID_IOplockStorage        2205af4c     uuid:objidl_i.obj
 0002:00006f5c       _IID_ISurrogate            2205af5c     uuid:objidl_i.obj
 0002:00006f6c       _IID_IGlobalInterfaceTable 2205af6c     uuid:objidl_i.obj
 0002:00006f7c       _IID_IDirectWriterLock     2205af7c     uuid:objidl_i.obj
 0002:00006f8c       _IID_ISynchronize          2205af8c     uuid:objidl_i.obj
 0002:00006f9c       _IID_ISynchronizeHandle    2205af9c     uuid:objidl_i.obj
 0002:00006fac       _IID_ISynchronizeEvent     2205afac     uuid:objidl_i.obj
 0002:00006fbc       _IID_ISynchronizeContainer 2205afbc     uuid:objidl_i.obj
 0002:00006fcc       _IID_ISynchronizeMutex     2205afcc     uuid:objidl_i.obj
 0002:00006fdc       _IID_ICancelMethodCalls    2205afdc     uuid:objidl_i.obj
 0002:00006fec       _IID_IAsyncManager         2205afec     uuid:objidl_i.obj
 0002:00006ffc       _IID_ICallFactory          2205affc     uuid:objidl_i.obj
 0002:0000700c       _IID_IRpcHelper            2205b00c     uuid:objidl_i.obj
 0002:0000701c       _IID_IReleaseMarshalBuffers 2205b01c     uuid:objidl_i.obj
 0002:0000702c       _IID_IWaitMultiple         2205b02c     uuid:objidl_i.obj
 0002:0000703c       _IID_IUrlMon               2205b03c     uuid:objidl_i.obj
 0002:0000704c       _IID_IForegroundTransfer   2205b04c     uuid:objidl_i.obj
 0002:0000705c       _IID_IAddrTrackingControl  2205b05c     uuid:objidl_i.obj
 0002:0000706c       _IID_IAddrExclusionControl 2205b06c     uuid:objidl_i.obj
 0002:0000707c       _IID_IPipeByte             2205b07c     uuid:objidl_i.obj
 0002:0000708c       _IID_AsyncIPipeByte        2205b08c     uuid:objidl_i.obj
 0002:0000709c       _IID_IPipeLong             2205b09c     uuid:objidl_i.obj
 0002:000070ac       _IID_AsyncIPipeLong        2205b0ac     uuid:objidl_i.obj
 0002:000070bc       _IID_IPipeDouble           2205b0bc     uuid:objidl_i.obj
 0002:000070cc       _IID_AsyncIPipeDouble      2205b0cc     uuid:objidl_i.obj
 0002:000070dc       _IID_IThumbnailExtractor   2205b0dc     uuid:objidl_i.obj
 0002:000070ec       _IID_IDummyHICONIncluder   2205b0ec     uuid:objidl_i.obj
 0002:000070fc       _IID_IEnumContextProps     2205b0fc     uuid:objidl_i.obj
 0002:0000710c       _IID_IContext              2205b10c     uuid:objidl_i.obj
 0002:0000711c       _IID_IObjContext           2205b11c     uuid:objidl_i.obj
 0002:0000712c       _IID_IProcessLock          2205b12c     uuid:objidl_i.obj
 0002:0000713c       _IID_ISurrogateService     2205b13c     uuid:objidl_i.obj
 0002:0000714c       _IID_IComThreadingInfo     2205b14c     uuid:objidl_i.obj
 0002:0000715c       _IID_IProcessInitControl   2205b15c     uuid:objidl_i.obj
 0002:0000716c       _IID_IInitializeSpy        2205b16c     uuid:objidl_i.obj
 0002:0000717c       _IID_IEnumConnections      2205b17c     uuid:ocidl_i.obj
 0002:0000718c       _IID_IConnectionPoint      2205b18c     uuid:ocidl_i.obj
 0002:0000719c       _IID_IEnumConnectionPoints 2205b19c     uuid:ocidl_i.obj
 0002:000071ac       _IID_IConnectionPointContainer 2205b1ac     uuid:ocidl_i.obj
 0002:000071bc       _IID_IClassFactory2        2205b1bc     uuid:ocidl_i.obj
 0002:000071cc       _IID_IProvideClassInfo     2205b1cc     uuid:ocidl_i.obj
 0002:000071dc       _IID_IProvideClassInfo2    2205b1dc     uuid:ocidl_i.obj
 0002:000071ec       _IID_IProvideMultipleClassInfo 2205b1ec     uuid:ocidl_i.obj
 0002:000071fc       _IID_IOleControl           2205b1fc     uuid:ocidl_i.obj
 0002:0000720c       _IID_IOleControlSite       2205b20c     uuid:ocidl_i.obj
 0002:0000721c       _IID_IPropertyPage         2205b21c     uuid:ocidl_i.obj
 0002:0000722c       _IID_IPropertyPage2        2205b22c     uuid:ocidl_i.obj
 0002:0000723c       _IID_IPropertyPageSite     2205b23c     uuid:ocidl_i.obj
 0002:0000724c       _IID_IPropertyNotifySink   2205b24c     uuid:ocidl_i.obj
 0002:0000725c       _IID_ISpecifyPropertyPages 2205b25c     uuid:ocidl_i.obj
 0002:0000726c       _IID_IPersistMemory        2205b26c     uuid:ocidl_i.obj
 0002:0000727c       _IID_IPersistStreamInit    2205b27c     uuid:ocidl_i.obj
 0002:0000728c       _IID_IPersistPropertyBag   2205b28c     uuid:ocidl_i.obj
 0002:0000729c       _IID_ISimpleFrameSite      2205b29c     uuid:ocidl_i.obj
 0002:000072ac       _IID_IFont                 2205b2ac     uuid:ocidl_i.obj
 0002:000072bc       _IID_IPicture              2205b2bc     uuid:ocidl_i.obj
 0002:000072cc       _IID_IPicture2             2205b2cc     uuid:ocidl_i.obj
 0002:000072dc       _IID_IFontEventsDisp       2205b2dc     uuid:ocidl_i.obj
 0002:000072ec       _IID_IFontDisp             2205b2ec     uuid:ocidl_i.obj
 0002:000072fc       _IID_IPictureDisp          2205b2fc     uuid:ocidl_i.obj
 0002:0000730c       _IID_IOleInPlaceObjectWindowless 2205b30c     uuid:ocidl_i.obj
 0002:0000731c       _IID_IOleInPlaceSiteEx     2205b31c     uuid:ocidl_i.obj
 0002:0000732c       _IID_IOleInPlaceSiteWindowless 2205b32c     uuid:ocidl_i.obj
 0002:0000733c       _IID_IViewObjectEx         2205b33c     uuid:ocidl_i.obj
 0002:0000734c       _IID_IOleUndoUnit          2205b34c     uuid:ocidl_i.obj
 0002:0000735c       _IID_IOleParentUndoUnit    2205b35c     uuid:ocidl_i.obj
 0002:0000736c       _IID_IEnumOleUndoUnits     2205b36c     uuid:ocidl_i.obj
 0002:0000737c       _IID_IOleUndoManager       2205b37c     uuid:ocidl_i.obj
 0002:0000738c       _IID_IPointerInactive      2205b38c     uuid:ocidl_i.obj
 0002:0000739c       _IID_IObjectWithSite       2205b39c     uuid:ocidl_i.obj
 0002:000073ac       _IID_IPerPropertyBrowsing  2205b3ac     uuid:ocidl_i.obj
 0002:000073bc       _IID_IPropertyBag2         2205b3bc     uuid:ocidl_i.obj
 0002:000073cc       _IID_IPersistPropertyBag2  2205b3cc     uuid:ocidl_i.obj
 0002:000073dc       _IID_IAdviseSinkEx         2205b3dc     uuid:ocidl_i.obj
 0002:000073ec       _IID_IQuickActivate        2205b3ec     uuid:ocidl_i.obj
 0002:000073fc       _CLSID_StdURLMoniker       2205b3fc     uuid:ieguids.obj
 0002:0000740c       _CLSID_StdURLProtocol      2205b40c     uuid:ieguids.obj
 0002:0000741c       _CLSID_HttpProtocol        2205b41c     uuid:ieguids.obj
 0002:0000742c       _CLSID_FtpProtocol         2205b42c     uuid:ieguids.obj
 0002:0000743c       _CLSID_GopherProtocol      2205b43c     uuid:ieguids.obj
 0002:0000744c       _CLSID_HttpSProtocol       2205b44c     uuid:ieguids.obj
 0002:0000745c       _CLSID_MkProtocol          2205b45c     uuid:ieguids.obj
 0002:0000746c       _CLSID_FileProtocol        2205b46c     uuid:ieguids.obj
 0002:0000747c       _CLSID_PSUrlMonProxy       2205b47c     uuid:ieguids.obj
 0002:0000748c       _CLSID_UrlMkBindCtx        2205b48c     uuid:ieguids.obj
 0002:0000749c       _CLSID_ResProtocol         2205b49c     uuid:ieguids.obj
 0002:000074ac       _CLSID_AboutProtocol       2205b4ac     uuid:ieguids.obj
 0002:000074bc       _IID_IAsyncMoniker         2205b4bc     uuid:ieguids.obj
 0002:000074cc       _IID_IBindStatusCallbackHolder 2205b4cc     uuid:ieguids.obj
 0002:000074dc       _IID_IAsyncBindCtx         2205b4dc     uuid:ieguids.obj
 0002:000074ec       _IID_IBindStatusCallbackMsg 2205b4ec     uuid:ieguids.obj
 0002:000074fc       _IID_IDebugRegister        2205b4fc     uuid:ieguids.obj
 0002:0000750c       _IID_IDebugOut             2205b50c     uuid:ieguids.obj
 0002:0000751c       _CLSID_StdNotificationMgr  2205b51c     uuid:ieguids.obj
 0002:0000752c       _CLSID_WebCheckDefaultProcess 2205b52c     uuid:ieguids.obj
 0002:0000753c       _IID_IEnumPropertyMap      2205b53c     uuid:ieguids.obj
 0002:0000754c       _IID_IPropertyMap          2205b54c     uuid:ieguids.obj
 0002:0000755c       _IID_INotification         2205b55c     uuid:ieguids.obj
 0002:0000756c       _IID_INotificationMgr      2205b56c     uuid:ieguids.obj
 0002:0000757c       _IID_INotificationSink     2205b57c     uuid:ieguids.obj
 0002:0000758c       _IID_IScheduleGroup        2205b58c     uuid:ieguids.obj
 0002:0000759c       _IID_INotificationReport   2205b59c     uuid:ieguids.obj
 0002:000075ac       _IID_IEnumNotification     2205b5ac     uuid:ieguids.obj
 0002:000075bc       _IID_IEnumScheduleGroup    2205b5bc     uuid:ieguids.obj
 0002:000075cc       _IID_IEnumNotificationSinkItem 2205b5cc     uuid:ieguids.obj
 0002:000075dc       _IID_INotificationHelper   2205b5dc     uuid:ieguids.obj
 0002:000075ec       _IID_INotificationPing     2205b5ec     uuid:ieguids.obj
 0002:000075fc       _IID_INotificationRunning  2205b5fc     uuid:ieguids.obj
 0002:0000760c       _IID_INotificationProcessMgr0 2205b60c     uuid:ieguids.obj
 0002:0000761c       _IID_IOInet                2205b61c     uuid:ieguids.obj
 0002:0000762c       _IID_IOInetBindInfo        2205b62c     uuid:ieguids.obj
 0002:0000763c       _IID_IOInetBindClient      2205b63c     uuid:ieguids.obj
 0002:0000764c       _IID_IOInetProtocolRoot    2205b64c     uuid:ieguids.obj
 0002:0000765c       _IID_IOInetProtocol        2205b65c     uuid:ieguids.obj
 0002:0000766c       _IID_IOInetProtocolSink    2205b66c     uuid:ieguids.obj
 0002:0000767c       _IID_IOInetSession         2205b67c     uuid:ieguids.obj
 0002:0000768c       _IID_IOInetThreadSwitch    2205b68c     uuid:ieguids.obj
 0002:0000769c       _IID_IOInetCache           2205b69c     uuid:ieguids.obj
 0002:000076ac       _IID_IOInetPriority        2205b6ac     uuid:ieguids.obj
 0002:000076bc       _IID_IOInetProtocolInfo    2205b6bc     uuid:ieguids.obj
 0002:000076cc       _CLSID_GLOBAL_BROADCAST    2205b6cc     uuid:ieguids.obj
 0002:000076dc       _CLSID_PROCESS_BROADCAST   2205b6dc     uuid:ieguids.obj
 0002:000076ec       _CLSID_THREAD_BROADCAST    2205b6ec     uuid:ieguids.obj
 0002:000076fc       _CLSID_1                   2205b6fc     uuid:ieguids.obj
 0002:0000770c       _CLSID_2                   2205b70c     uuid:ieguids.obj
 0002:0000771c       _CLSID_3                   2205b71c     uuid:ieguids.obj
 0002:0000772c       _CLSID_4                   2205b72c     uuid:ieguids.obj
 0002:0000773c       _CLSID_5                   2205b73c     uuid:ieguids.obj
 0002:0000774c       _CLSID_6                   2205b74c     uuid:ieguids.obj
 0002:0000775c       _CLSID_7                   2205b75c     uuid:ieguids.obj
 0002:0000776c       _CLSID_8                   2205b76c     uuid:ieguids.obj
 0002:0000777c       _CLSID_9                   2205b77c     uuid:ieguids.obj
 0002:0000778c       _CLSID_a                   2205b78c     uuid:ieguids.obj
 0002:0000779c       _CLSID_b                   2205b79c     uuid:ieguids.obj
 0002:000077ac       _CLSID_c                   2205b7ac     uuid:ieguids.obj
 0002:000077bc       _CLSID_d                   2205b7bc     uuid:ieguids.obj
 0002:000077cc       _NOTIFICATIONTYPE_ITEM_START 2205b7cc     uuid:ieguids.obj
 0002:000077dc       _NOTIFICATIONTYPE_ITEM_RESTART 2205b7dc     uuid:ieguids.obj
 0002:000077ec       _NOTIFICATIONTYPE_ITEM_DONE 2205b7ec     uuid:ieguids.obj
 0002:000077fc       _NOTIFICATIONTYPE_GROUP_START 2205b7fc     uuid:ieguids.obj
 0002:0000780c       _NOTIFICATIONTYPE_GROUP_RESTART 2205b80c     uuid:ieguids.obj
 0002:0000781c       _NOTIFICATIONTYPE_GROUP_DONE 2205b81c     uuid:ieguids.obj
 0002:0000782c       _NOTIFICATIONTYPE_i6       2205b82c     uuid:ieguids.obj
 0002:0000783c       _NOTIFICATIONTYPE_i7       2205b83c     uuid:ieguids.obj
 0002:0000784c       _NOTIFICATIONTYPE_i8       2205b84c     uuid:ieguids.obj
 0002:0000785c       _NOTIFICATIONTYPE_i9       2205b85c     uuid:ieguids.obj
 0002:0000786c       _NOTIFICATIONTYPE_iA       2205b86c     uuid:ieguids.obj
 0002:0000787c       _NOTIFICATIONTYPE_iB       2205b87c     uuid:ieguids.obj
 0002:0000788c       _NOTIFICATIONTYPE_iC       2205b88c     uuid:ieguids.obj
 0002:0000789c       _NOTIFICATIONTYPE_iD       2205b89c     uuid:ieguids.obj
 0002:000078ac       _NOTIFICATIONTYPE_iE       2205b8ac     uuid:ieguids.obj
 0002:000078bc       _NOTIFICATIONTYPE_iF       2205b8bc     uuid:ieguids.obj
 0002:000078cc       _NOTFCOOKIE_SCHEDULE_GROUP_DAILY 2205b8cc     uuid:ieguids.obj
 0002:000078dc       _NOTFCOOKIE_SCHEDULE_GROUP_WEEKLY 2205b8dc     uuid:ieguids.obj
 0002:000078ec       _NOTFCOOKIE_SCHEDULE_GROUP_MONTHLY 2205b8ec     uuid:ieguids.obj
 0002:000078fc       _NOTFCOOKIE_SCHEDULE_GROUP_MANUAL 2205b8fc     uuid:ieguids.obj
 0002:0000790c       _NOTIFICATIONTYPE_NULL     2205b90c     uuid:ieguids.obj
 0002:0000791c       _NOTIFICATIONTYPE_ANOUNCMENT 2205b91c     uuid:ieguids.obj
 0002:0000792c       _NOTIFICATIONTYPE_TASK     2205b92c     uuid:ieguids.obj
 0002:0000793c       _NOTIFICATIONTYPE_ALERT    2205b93c     uuid:ieguids.obj
 0002:0000794c       _NOTIFICATIONTYPE_INET_IDLE 2205b94c     uuid:ieguids.obj
 0002:0000795c       _NOTIFICATIONTYPE_INET_OFFLINE 2205b95c     uuid:ieguids.obj
 0002:0000796c       _NOTIFICATIONTYPE_INET_ONLINE 2205b96c     uuid:ieguids.obj
 0002:0000797c       _NOTIFICATIONTYPE_TASKS_SUSPEND 2205b97c     uuid:ieguids.obj
 0002:0000798c       _NOTIFICATIONTYPE_TASKS_RESUME 2205b98c     uuid:ieguids.obj
 0002:0000799c       _NOTIFICATIONTYPE_TASKS_ABORT 2205b99c     uuid:ieguids.obj
 0002:000079ac       _NOTIFICATIONTYPE_TASKS_COMPLETED 2205b9ac     uuid:ieguids.obj
 0002:000079bc       _NOTIFICATIONTYPE_TASKS_PROGRESS 2205b9bc     uuid:ieguids.obj
 0002:000079cc       _NOTIFICATIONTYPE_AGENT_START 2205b9cc     uuid:ieguids.obj
 0002:000079dc       _NOTIFICATIONTYPE_BEGIN_REPORT 2205b9dc     uuid:ieguids.obj
 0002:000079ec       _NOTIFICATIONTYPE_END_REPORT 2205b9ec     uuid:ieguids.obj
 0002:000079fc       _NOTIFICATIONTYPE_AGENT_INIT 2205b9fc     uuid:ieguids.obj
 0002:00007a0c       _NOTIFICATIONTYPE_CONNECT_TO_INTERNET 2205ba0c     uuid:ieguids.obj
 0002:00007a1c       _NOTIFICATIONTYPE_DISCONNECT_FROM_INTERNET 2205ba1c     uuid:ieguids.obj
 0002:00007a2c       _NOTIFICATIONTYPE_CONFIG_CHANGED 2205ba2c     uuid:ieguids.obj
 0002:00007a3c       _NOTIFICATIONTYPE_PROGRESS_REPORT 2205ba3c     uuid:ieguids.obj
 0002:00007a4c       _NOTIFICATIONTYPE_USER_IDLE_BEGIN 2205ba4c     uuid:ieguids.obj
 0002:00007a5c       _NOTIFICATIONTYPE_USER_IDLE_END 2205ba5c     uuid:ieguids.obj
 0002:00007a6c       _NOTIFICATIONTYPE_TASKS_STARTED 2205ba6c     uuid:ieguids.obj
 0002:00007a7c       _NOTIFICATIONTYPE_TASKS_ERROR 2205ba7c     uuid:ieguids.obj
 0002:00007a8c       _NOTIFICATIONTYPE_d        2205ba8c     uuid:ieguids.obj
 0002:00007a9c       _NOTIFICATIONTYPE_e        2205ba9c     uuid:ieguids.obj
 0002:00007aac       _NOTIFICATIONTYPE_f        2205baac     uuid:ieguids.obj
 0002:00007abc       _NOTIFICATIONTYPE_11       2205babc     uuid:ieguids.obj
 0002:00007acc       _NOTIFICATIONTYPE_12       2205bacc     uuid:ieguids.obj
 0002:00007adc       _NOTIFICATIONTYPE_13       2205badc     uuid:ieguids.obj
 0002:00007aec       _NOTIFICATIONTYPE_14       2205baec     uuid:ieguids.obj
 0002:00007afc       _NOTIFICATIONTYPE_15       2205bafc     uuid:ieguids.obj
 0002:00007b0c       _NOTIFICATIONTYPE_START_0  2205bb0c     uuid:ieguids.obj
 0002:00007b1c       _NOTIFICATIONTYPE_START_1  2205bb1c     uuid:ieguids.obj
 0002:00007b2c       _NOTIFICATIONTYPE_START_2  2205bb2c     uuid:ieguids.obj
 0002:00007b3c       _NOTIFICATIONTYPE_START_3  2205bb3c     uuid:ieguids.obj
 0002:00007b4c       _NOTIFICATIONTYPE_START_4  2205bb4c     uuid:ieguids.obj
 0002:00007b5c       _NOTIFICATIONTYPE_START_5  2205bb5c     uuid:ieguids.obj
 0002:00007b6c       _NOTIFICATIONTYPE_START_6  2205bb6c     uuid:ieguids.obj
 0002:00007b7c       _NOTIFICATIONTYPE_START_7  2205bb7c     uuid:ieguids.obj
 0002:00007b8c       _NOTIFICATIONTYPE_START_8  2205bb8c     uuid:ieguids.obj
 0002:00007b9c       _NOTIFICATIONTYPE_START_9  2205bb9c     uuid:ieguids.obj
 0002:00007bac       _NOTIFICATIONTYPE_START_A  2205bbac     uuid:ieguids.obj
 0002:00007bbc       _NOTIFICATIONTYPE_START_B  2205bbbc     uuid:ieguids.obj
 0002:00007bcc       _NOTIFICATIONTYPE_START_C  2205bbcc     uuid:ieguids.obj
 0002:00007bdc       _NOTIFICATIONTYPE_START_D  2205bbdc     uuid:ieguids.obj
 0002:00007bec       _NOTIFICATIONTYPE_START_E  2205bbec     uuid:ieguids.obj
 0002:00007bfc       _NOTIFICATIONTYPE_START_F  2205bbfc     uuid:ieguids.obj
 0002:00007c0c       _CLSID_NotificaitonTest1   2205bc0c     uuid:ieguids.obj
 0002:00007c1c       _CLSID_NotificaitonTest2   2205bc1c     uuid:ieguids.obj
 0002:00007c2c       _CLSID_NotificaitonTest3   2205bc2c     uuid:ieguids.obj
 0002:00007c3c       _CLSID_NotificaitonTest4   2205bc3c     uuid:ieguids.obj
 0002:00007c4c       _CLSID_StdEncodingFilterFac 2205bc4c     uuid:ieguids.obj
 0002:00007c5c       _CLSID_DeCompMimeFilter    2205bc5c     uuid:ieguids.obj
 0002:00007c6c       _CLSID_CdlProtocol         2205bc6c     uuid:ieguids.obj
 0002:00007c7c       _CLSID_ClassInstallFilter  2205bc7c     uuid:ieguids.obj
 0002:00007c8c       _LIBID_Accessibility       2205bc8c     uuid:ieguids.obj
 0002:00007c9c       _IID_IAccessible           2205bc9c     uuid:ieguids.obj
 0002:00007cac       _SID_SContainerDispatch    2205bcac     uuid:ieguids.obj
 0002:00007cbc       _SID_SDataPathBrowser      2205bcbc     uuid:ieguids.obj
 0002:00007ccc       _GUID_PathProperty         2205bccc     uuid:ieguids.obj
 0002:00007cdc       _GUID_HasPathProperties    2205bcdc     uuid:ieguids.obj
 0002:00007cec       _CLSID_StdHlink            2205bcec     uuid:ieguids.obj
 0002:00007cfc       _CLSID_StdHlinkBrowseContext 2205bcfc     uuid:ieguids.obj
 0002:00007d0c       _OLE_DATAPATH_BMP          2205bd0c     uuid:ieguids.obj
 0002:00007d1c       _OLE_DATAPATH_DIB          2205bd1c     uuid:ieguids.obj
 0002:00007d2c       _OLE_DATAPATH_WMF          2205bd2c     uuid:ieguids.obj
 0002:00007d3c       _OLE_DATAPATH_ENHMF        2205bd3c     uuid:ieguids.obj
 0002:00007d4c       _OLE_DATAPATH_GIF          2205bd4c     uuid:ieguids.obj
 0002:00007d5c       _OLE_DATAPATH_JPEG         2205bd5c     uuid:ieguids.obj
 0002:00007d6c       _OLE_DATAPATH_TIFF         2205bd6c     uuid:ieguids.obj
 0002:00007d7c       _OLE_DATAPATH_XBM          2205bd7c     uuid:ieguids.obj
 0002:00007d8c       _OLE_DATAPATH_PCX          2205bd8c     uuid:ieguids.obj
 0002:00007d9c       _OLE_DATAPATH_PICT         2205bd9c     uuid:ieguids.obj
 0002:00007dac       _OLE_DATAPATH_CGM          2205bdac     uuid:ieguids.obj
 0002:00007dbc       _OLE_DATAPATH_EPS          2205bdbc     uuid:ieguids.obj
 0002:00007dcc       _OLE_DATAPATH_COMMONIMAGE  2205bdcc     uuid:ieguids.obj
 0002:00007ddc       _OLE_DATAPATH_ALLIMAGE     2205bddc     uuid:ieguids.obj
 0002:00007dec       _OLE_DATAPATH_AVI          2205bdec     uuid:ieguids.obj
 0002:00007dfc       _OLE_DATAPATH_MPEG         2205bdfc     uuid:ieguids.obj
 0002:00007e0c       _OLE_DATAPATH_QUICKTIME    2205be0c     uuid:ieguids.obj
 0002:00007e1c       _OLE_DATAPATH_BASICAUDIO   2205be1c     uuid:ieguids.obj
 0002:00007e2c       _OLE_DATAPATH_MIDI         2205be2c     uuid:ieguids.obj
 0002:00007e3c       _OLE_DATAPATH_WAV          2205be3c     uuid:ieguids.obj
 0002:00007e4c       _OLE_DATAPATH_RIFF         2205be4c     uuid:ieguids.obj
 0002:00007e5c       _OLE_DATAPATH_SOUND        2205be5c     uuid:ieguids.obj
 0002:00007e6c       _OLE_DATAPATH_VIDEO        2205be6c     uuid:ieguids.obj
 0002:00007e7c       _OLE_DATAPATH_ALLMM        2205be7c     uuid:ieguids.obj
 0002:00007e8c       _OLE_DATAPATH_ANSITEXT     2205be8c     uuid:ieguids.obj
 0002:00007e9c       _OLE_DATAPATH_UNICODE      2205be9c     uuid:ieguids.obj
 0002:00007eac       _OLE_DATAPATH_RTF          2205beac     uuid:ieguids.obj
 0002:00007ebc       _OLE_DATAPATH_HTML         2205bebc     uuid:ieguids.obj
 0002:00007ecc       _OLE_DATAPATH_POSTSCRIPT   2205becc     uuid:ieguids.obj
 0002:00007edc       _OLE_DATAPATH_ALLTEXT      2205bedc     uuid:ieguids.obj
 0002:00007eec       _OLE_DATAPATH_DIF          2205beec     uuid:ieguids.obj
 0002:00007efc       _OLE_DATAPATH_SYLK         2205befc     uuid:ieguids.obj
 0002:00007f0c       _OLE_DATAPATH_BIFF         2205bf0c     uuid:ieguids.obj
 0002:00007f1c       _OLE_DATAPATH_PALETTE      2205bf1c     uuid:ieguids.obj
 0002:00007f2c       _OLE_DATAPATH_PENDATA      2205bf2c     uuid:ieguids.obj
 0002:00007f3c       _FLAGID_Internet           2205bf3c     uuid:ieguids.obj
 0002:00007f4c       _ARRAYID_PathProperties    2205bf4c     uuid:ieguids.obj
 0002:00007f5c       _CLSID_StdComponentCategoriesMgr 2205bf5c     uuid:ieguids.obj
 0002:00007f6c       _CATID_Insertable          2205bf6c     uuid:ieguids.obj
 0002:00007f7c       _CATID_Control             2205bf7c     uuid:ieguids.obj
 0002:00007f8c       _CATID_Programmable        2205bf8c     uuid:ieguids.obj
 0002:00007f9c       _CATID_IsShortcut          2205bf9c     uuid:ieguids.obj
 0002:00007fac       _CATID_NeverShowExt        2205bfac     uuid:ieguids.obj
 0002:00007fbc       _CATID_DocObject           2205bfbc     uuid:ieguids.obj
 0002:00007fcc       _CATID_Printable           2205bfcc     uuid:ieguids.obj
 0002:00007fdc       _CATID_RequiresDataPathHost 2205bfdc     uuid:ieguids.obj
 0002:00007fec       _CATID_PersistsToMoniker   2205bfec     uuid:ieguids.obj
 0002:00007ffc       _CATID_PersistsToStorage   2205bffc     uuid:ieguids.obj
 0002:0000800c       _CATID_PersistsToStreamInit 2205c00c     uuid:ieguids.obj
 0002:0000801c       _CATID_PersistsToStream    2205c01c     uuid:ieguids.obj
 0002:0000802c       _CATID_PersistsToMemory    2205c02c     uuid:ieguids.obj
 0002:0000803c       _CATID_PersistsToFile      2205c03c     uuid:ieguids.obj
 0002:0000804c       _CATID_PersistsToPropertyBag 2205c04c     uuid:ieguids.obj
 0002:0000805c       _CATID_InternetAware       2205c05c     uuid:ieguids.obj
 0002:0000806c       _CATID_SafeForScripting    2205c06c     uuid:ieguids.obj
 0002:0000807c       _CATID_SafeForInitializing 2205c07c     uuid:ieguids.obj
 0002:0000808c       _CATID_DesignTimeUIActivatableControl 2205c08c     uuid:ieguids.obj
 0002:0000809c       _CLSID_IImgCtx             2205c09c     uuid:ieguids.obj
 0002:000080ac       _IID_IImgCtx               2205c0ac     uuid:ieguids.obj
 0002:000080bc       _CLSID_IImageDecodeFilter  2205c0bc     uuid:ieguids.obj
 0002:000080cc       _CGID_MSHTML               2205c0cc     uuid:ieguids.obj
 0002:000080dc       _CLSID_MHTMLDocument       2205c0dc     uuid:ieguids.obj
 0002:000080ec       _CLSID_HTADocument         2205c0ec     uuid:ieguids.obj
 0002:000080fc       _CLSID_HTMLApplication     2205c0fc     uuid:ieguids.obj
 0002:0000810c       _CLSID_HTMLPluginDocument  2205c10c     uuid:ieguids.obj
 0002:0000811c       _CGID_DocHostCommandHandler 2205c11c     uuid:ieguids.obj
 0002:0000812c       _SID_SHTMLEditServices     2205c12c     uuid:ieguids.obj
 0002:0000813c       _CGID_ScriptSite           2205c13c     uuid:ieguids.obj
 0002:0000814c       _BFID_MONOCHROME           2205c14c     uuid:ieguids.obj
 0002:0000815c       _BFID_RGB_4                2205c15c     uuid:ieguids.obj
 0002:0000816c       _BFID_RGB_8                2205c16c     uuid:ieguids.obj
 0002:0000817c       _BFID_RGB_555              2205c17c     uuid:ieguids.obj
 0002:0000818c       _BFID_RGB_565              2205c18c     uuid:ieguids.obj
 0002:0000819c       _BFID_RGB_24               2205c19c     uuid:ieguids.obj
 0002:000081ac       _BFID_RGB_32               2205c1ac     uuid:ieguids.obj
 0002:000081bc       _BFID_RGBA_32              2205c1bc     uuid:ieguids.obj
 0002:000081cc       _BFID_GRAY_8               2205c1cc     uuid:ieguids.obj
 0002:000081dc       _BFID_GRAY_16              2205c1dc     uuid:ieguids.obj
 0002:000081ec       _CLSID_IntDitherer         2205c1ec     uuid:ieguids.obj
 0002:000081fc       _IID_IIntDitherer          2205c1fc     uuid:ieguids.obj
 0002:0000820c       _NAMEDTIMER_DRAW           2205c20c     uuid:ieguids.obj
 0002:0000821c       _CLSID_SoftDistExt         2205c21c     uuid:ieguids.obj
 0002:0000822c       _CLSID_IActiveXSafetyProvider 2205c22c     uuid:ieguids.obj
 0002:0000823c       _CLSID_InternetSecurityManager 2205c23c     uuid:ieguids.obj
 0002:0000824c       _CLSID_InternetZoneManager 2205c24c     uuid:ieguids.obj
 0002:0000825c       _GUID_CUSTOM_LOCALMACHINEZONEUNLOCKED 2205c25c     uuid:ieguids.obj
 0002:0000826c       _CLSID_PersistentZoneIdentifier 2205c26c     uuid:ieguids.obj
 0002:0000827c       _CLSID_HTMLLoadOptions     2205c27c     uuid:ieguids.obj
 0002:0000828c       _CLSID_SubscriptionThrottler 2205c28c     uuid:ieguids.obj
 0002:0000829c       _CGID_DownloadHost         2205c29c     uuid:ieguids.obj
 0002:000082ac       _CGID_InternetExplorer     2205c2ac     uuid:ieguids.obj
 0002:000082bc       _SID_SVersionHost          2205c2bc     uuid:ieguids.obj
 0002:000082cc       _CLSID_XFeedsManager       2205c2cc     uuid:ieguids.obj
 0002:000082dc       _OID_INIPropStorage        2205c2dc     uuid:ieguids.obj
 0002:000082ec       _SID_SNewWindowManagerDown 2205c2ec     uuid:ieguids.obj
 0002:000082fc       _IID_IDocObjectService     2205c2fc     uuid:ieguids.obj
 0002:0000830c       _IID_IOpsProfileSimple     2205c30c     uuid:ieguids.obj
 0002:0000831c       _IID_ITridentService3      2205c31c     uuid:ieguids.obj
 0002:0000832c       _IID_IPersistMoniker       2205c32c     uuid:i_urlmki.obj
 0002:0000833c       _IID_IMonikerProp          2205c33c     uuid:i_urlmki.obj
 0002:0000834c       _IID_IBindProtocol         2205c34c     uuid:i_urlmki.obj
 0002:0000835c       _IID_IBinding              2205c35c     uuid:i_urlmki.obj
 0002:0000836c       _IID_IBindStatusCallback   2205c36c     uuid:i_urlmki.obj
 0002:0000837c       _IID_IBindStatusCallbackEx 2205c37c     uuid:i_urlmki.obj
 0002:0000838c       _IID_IAuthenticate         2205c38c     uuid:i_urlmki.obj
 0002:0000839c       _IID_IAuthenticateEx       2205c39c     uuid:i_urlmki.obj
 0002:000083ac       _IID_IHttpNegotiate        2205c3ac     uuid:i_urlmki.obj
 0002:000083bc       _IID_IHttpNegotiate2       2205c3bc     uuid:i_urlmki.obj
 0002:000083cc       _IID_IHttpNegotiate3       2205c3cc     uuid:i_urlmki.obj
 0002:000083dc       _IID_IWinInetFileStream    2205c3dc     uuid:i_urlmki.obj
 0002:000083ec       _IID_IWindowForBindingUI   2205c3ec     uuid:i_urlmki.obj
 0002:000083fc       _IID_ICodeInstall          2205c3fc     uuid:i_urlmki.obj
 0002:0000840c       _IID_IUri                  2205c40c     uuid:i_urlmki.obj
 0002:0000841c       _IID_IUriContainer         2205c41c     uuid:i_urlmki.obj
 0002:0000842c       _IID_IUriBuilder           2205c42c     uuid:i_urlmki.obj
 0002:0000843c       _IID_IUriBuilderFactory    2205c43c     uuid:i_urlmki.obj
 0002:0000844c       _IID_IWinInetInfo          2205c44c     uuid:i_urlmki.obj
 0002:0000845c       _IID_IHttpSecurity         2205c45c     uuid:i_urlmki.obj
 0002:0000846c       _IID_IWinInetHttpInfo      2205c46c     uuid:i_urlmki.obj
 0002:0000847c       _IID_IWinInetCacheHints    2205c47c     uuid:i_urlmki.obj
 0002:0000848c       _IID_IWinInetCacheHints2   2205c48c     uuid:i_urlmki.obj
 0002:0000849c       _IID_IBindHost             2205c49c     uuid:i_urlmki.obj
 0002:000084ac       _IID_IInternet             2205c4ac     uuid:i_urlmki.obj
 0002:000084bc       _IID_IInternetBindInfo     2205c4bc     uuid:i_urlmki.obj
 0002:000084cc       _IID_IInternetBindInfoEx   2205c4cc     uuid:i_urlmki.obj
 0002:000084dc       _IID_IInternetProtocolRoot 2205c4dc     uuid:i_urlmki.obj
 0002:000084ec       _IID_IInternetProtocol     2205c4ec     uuid:i_urlmki.obj
 0002:000084fc       _IID_IInternetProtocolEx   2205c4fc     uuid:i_urlmki.obj
 0002:0000850c       _IID_IInternetProtocolSink 2205c50c     uuid:i_urlmki.obj
 0002:0000851c       _IID_IInternetProtocolSinkStackable 2205c51c     uuid:i_urlmki.obj
 0002:0000852c       _IID_IInternetSession      2205c52c     uuid:i_urlmki.obj
 0002:0000853c       _IID_IInternetThreadSwitch 2205c53c     uuid:i_urlmki.obj
 0002:0000854c       _IID_IInternetPriority     2205c54c     uuid:i_urlmki.obj
 0002:0000855c       _IID_IInternetProtocolInfo 2205c55c     uuid:i_urlmki.obj
 0002:0000856c       _IID_IInternetSecurityMgrSite 2205c56c     uuid:i_urlmki.obj
 0002:0000857c       _IID_IInternetSecurityManager 2205c57c     uuid:i_urlmki.obj
 0002:0000858c       _IID_IInternetSecurityManagerEx 2205c58c     uuid:i_urlmki.obj
 0002:0000859c       _IID_IInternetSecurityManagerEx2 2205c59c     uuid:i_urlmki.obj
 0002:000085ac       _IID_IZoneIdentifier       2205c5ac     uuid:i_urlmki.obj
 0002:000085bc       _IID_IInternetHostSecurityManager 2205c5bc     uuid:i_urlmki.obj
 0002:000085cc       _IID_IInternetZoneManager  2205c5cc     uuid:i_urlmki.obj
 0002:000085dc       _IID_IInternetZoneManagerEx 2205c5dc     uuid:i_urlmki.obj
 0002:000085ec       _IID_IInternetZoneManagerEx2 2205c5ec     uuid:i_urlmki.obj
 0002:000085fc       _IID_ISoftDistExt          2205c5fc     uuid:i_urlmki.obj
 0002:0000860c       _IID_ICatalogFileInfo      2205c60c     uuid:i_urlmki.obj
 0002:0000861c       _IID_IDataFilter           2205c61c     uuid:i_urlmki.obj
 0002:0000862c       _IID_IEncodingFilterFactory 2205c62c     uuid:i_urlmki.obj
 0002:0000863c       _IID_IWrappedProtocol      2205c63c     uuid:i_urlmki.obj
 0002:0000864c       _IID_IUriPriv              2205c64c     uuid:i_urlmki.obj
 0002:0000865c       _IID_IInternetCache        2205c65c     uuid:i_urlmki.obj
 0002:0000866c       _IID_IInternetBindClient   2205c66c     uuid:i_urlmki.obj
 0002:0000867c       _IID_IMediaHolder          2205c67c     uuid:i_urlmki.obj
 0002:0000868c       _IID_ITransactionData      2205c68c     uuid:i_urlmki.obj
 0002:0000869c       _IID_ITransProtocolSink    2205c69c     uuid:i_urlmki.obj
 0002:000086ac       _DB_NULLID                 2205c6ac     uuid:oledbdat.obj
 0002:000086c4       _DBCOLUMN_IDNAME           2205c6c4     uuid:oledbdat.obj
 0002:000086dc       _DBCOLUMN_NAME             2205c6dc     uuid:oledbdat.obj
 0002:000086f4       _DBCOLUMN_NUMBER           2205c6f4     uuid:oledbdat.obj
 0002:0000870c       _DBCOLUMN_TYPE             2205c70c     uuid:oledbdat.obj
 0002:00008724       _DBCOLUMN_PRECISION        2205c724     uuid:oledbdat.obj
 0002:0000873c       _DBCOLUMN_SCALE            2205c73c     uuid:oledbdat.obj
 0002:00008754       _DBCOLUMN_FLAGS            2205c754     uuid:oledbdat.obj
 0002:0000876c       _DBCOLUMN_BASECOLUMNNAME   2205c76c     uuid:oledbdat.obj
 0002:00008784       _DBCOLUMN_BASETABLENAME    2205c784     uuid:oledbdat.obj
 0002:0000879c       _DBCOLUMN_COLLATINGSEQUENCE 2205c79c     uuid:oledbdat.obj
 0002:000087b4       _DBCOLUMN_COMPUTEMODE      2205c7b4     uuid:oledbdat.obj
 0002:000087cc       _DBCOLUMN_DEFAULTVALUE     2205c7cc     uuid:oledbdat.obj
 0002:000087e4       _DBCOLUMN_DOMAINNAME       2205c7e4     uuid:oledbdat.obj
 0002:000087fc       _DBCOLUMN_HASDEFAULT       2205c7fc     uuid:oledbdat.obj
 0002:00008814       _DBCOLUMN_ISAUTOINCREMENT  2205c814     uuid:oledbdat.obj
 0002:0000882c       _DBCOLUMN_ISCASESENSITIVE  2205c82c     uuid:oledbdat.obj
 0002:00008844       _DBCOLUMN_ISSEARCHABLE     2205c844     uuid:oledbdat.obj
 0002:0000885c       _DBCOLUMN_ISUNIQUE         2205c85c     uuid:oledbdat.obj
 0002:00008874       _DBCOLUMN_BASECATALOGNAME  2205c874     uuid:oledbdat.obj
 0002:0000888c       _DBCOLUMN_BASESCHEMANAME   2205c88c     uuid:oledbdat.obj
 0002:000088a4       _DBCOLUMN_GUID             2205c8a4     uuid:oledbdat.obj
 0002:000088bc       _DBCOLUMN_PROPID           2205c8bc     uuid:oledbdat.obj
 0002:000088d4       _DBCOLUMN_TYPEINFO         2205c8d4     uuid:oledbdat.obj
 0002:000088ec       _DBCOLUMN_DOMAINCATALOG    2205c8ec     uuid:oledbdat.obj
 0002:00008904       _DBCOLUMN_DOMAINSCHEMA     2205c904     uuid:oledbdat.obj
 0002:0000891c       _DBCOLUMN_DATETIMEPRECISION 2205c91c     uuid:oledbdat.obj
 0002:00008934       _DBCOLUMN_NUMERICPRECISIONRADIX 2205c934     uuid:oledbdat.obj
 0002:0000894c       _DBCOLUMN_OCTETLENGTH      2205c94c     uuid:oledbdat.obj
 0002:00008964       _DBCOLUMN_COLUMNSIZE       2205c964     uuid:oledbdat.obj
 0002:0000897c       _DBCOLUMN_CLSID            2205c97c     uuid:oledbdat.obj
 0002:00008994       _DBCOLUMN_MAYSORT          2205c994     uuid:oledbdat.obj
 0002:000089ac       _MDSCHEMA_FUNCTIONS        2205c9ac     uuid:oledbdat.obj
 0002:000089bc       _MDSCHEMA_ACTIONS          2205c9bc     uuid:oledbdat.obj
 0002:000089cc       _MDSCHEMA_COMMANDS         2205c9cc     uuid:oledbdat.obj
 0002:000089dc       _MDSCHEMA_SETS             2205c9dc     uuid:oledbdat.obj
 0002:000089ec       _DBSCHEMA_TABLES_INFO      2205c9ec     uuid:oledbdat.obj
 0002:000089fc       _MDGUID_MDX                2205c9fc     uuid:oledbdat.obj
 0002:00008a0c       _DBGUID_MDX                2205ca0c     uuid:oledbdat.obj
 0002:00008a1c       _MDSCHEMA_CUBES            2205ca1c     uuid:oledbdat.obj
 0002:00008a2c       _MDSCHEMA_DIMENSIONS       2205ca2c     uuid:oledbdat.obj
 0002:00008a3c       _MDSCHEMA_HIERARCHIES      2205ca3c     uuid:oledbdat.obj
 0002:00008a4c       _MDSCHEMA_LEVELS           2205ca4c     uuid:oledbdat.obj
 0002:00008a5c       _MDSCHEMA_MEASURES         2205ca5c     uuid:oledbdat.obj
 0002:00008a6c       _MDSCHEMA_PROPERTIES       2205ca6c     uuid:oledbdat.obj
 0002:00008a7c       _MDSCHEMA_MEMBERS          2205ca7c     uuid:oledbdat.obj
 0002:00008a8c       _DBCOLUMN_BASETABLEVERSION 2205ca8c     uuid:oledbdat.obj
 0002:00008aa4       _DBCOLUMN_KEYCOLUMN        2205caa4     uuid:oledbdat.obj
 0002:00008abc       _DBPROPSET_TRUSTEE         2205cabc     uuid:oledbdat.obj
 0002:00008acc       _DBOBJECT_TABLE            2205cacc     uuid:oledbdat.obj
 0002:00008adc       _DBOBJECT_COLUMN           2205cadc     uuid:oledbdat.obj
 0002:00008aec       _DBOBJECT_DATABASE         2205caec     uuid:oledbdat.obj
 0002:00008afc       _DBOBJECT_PROCEDURE        2205cafc     uuid:oledbdat.obj
 0002:00008b0c       _DBOBJECT_VIEW             2205cb0c     uuid:oledbdat.obj
 0002:00008b1c       _DBOBJECT_SCHEMA           2205cb1c     uuid:oledbdat.obj
 0002:00008b2c       _DBOBJECT_DOMAIN           2205cb2c     uuid:oledbdat.obj
 0002:00008b3c       _DBOBJECT_COLLATION        2205cb3c     uuid:oledbdat.obj
 0002:00008b4c       _DBOBJECT_TRUSTEE          2205cb4c     uuid:oledbdat.obj
 0002:00008b5c       _DBOBJECT_SCHEMAROWSET     2205cb5c     uuid:oledbdat.obj
 0002:00008b6c       _DBOBJECT_CHARACTERSET     2205cb6c     uuid:oledbdat.obj
 0002:00008b7c       _DBOBJECT_TRANSLATION      2205cb7c     uuid:oledbdat.obj
 0002:00008b8c       _DBSCHEMA_TRUSTEE          2205cb8c     uuid:oledbdat.obj
 0002:00008b9c       _DBPROPSET_COLUMNALL       2205cb9c     uuid:oledbdat.obj
 0002:00008bac       _DBPROPSET_INDEXALL        2205cbac     uuid:oledbdat.obj
 0002:00008bbc       _DBPROPSET_TABLEALL        2205cbbc     uuid:oledbdat.obj
 0002:00008bcc       _DBPROPSET_TRUSTEEALL      2205cbcc     uuid:oledbdat.obj
 0002:00008bdc       _DBPROPSET_CONSTRAINTALL   2205cbdc     uuid:oledbdat.obj
 0002:00008bec       _DBGUID_DSO                2205cbec     uuid:oledbdat.obj
 0002:00008bfc       _DBGUID_SESSION            2205cbfc     uuid:oledbdat.obj
 0002:00008c0c       _DBGUID_ROWSET             2205cc0c     uuid:oledbdat.obj
 0002:00008c1c       _DBGUID_ROW                2205cc1c     uuid:oledbdat.obj
 0002:00008c2c       _DBGUID_COMMAND            2205cc2c     uuid:oledbdat.obj
 0002:00008c3c       _DBGUID_STREAM             2205cc3c     uuid:oledbdat.obj
 0002:00008c4c       _DBROWCOL_ROWURL           2205cc4c     uuid:oledbdat.obj
 0002:00008c64       _DBROWCOL_PARSENAME        2205cc64     uuid:oledbdat.obj
 0002:00008c7c       _DBROWCOL_PARENTNAME       2205cc7c     uuid:oledbdat.obj
 0002:00008c94       _DBROWCOL_ABSOLUTEPARSENAME 2205cc94     uuid:oledbdat.obj
 0002:00008cac       _DBROWCOL_ISHIDDEN         2205ccac     uuid:oledbdat.obj
 0002:00008cc4       _DBROWCOL_ISREADONLY       2205ccc4     uuid:oledbdat.obj
 0002:00008cdc       _DBROWCOL_CONTENTTYPE      2205ccdc     uuid:oledbdat.obj
 0002:00008cf4       _DBROWCOL_CONTENTCLASS     2205ccf4     uuid:oledbdat.obj
 0002:00008d0c       _DBROWCOL_CONTENTLANGUAGE  2205cd0c     uuid:oledbdat.obj
 0002:00008d24       _DBROWCOL_CREATIONTIME     2205cd24     uuid:oledbdat.obj
 0002:00008d3c       _DBROWCOL_LASTACCESSTIME   2205cd3c     uuid:oledbdat.obj
 0002:00008d54       _DBROWCOL_LASTWRITETIME    2205cd54     uuid:oledbdat.obj
 0002:00008d6c       _DBROWCOL_STREAMSIZE       2205cd6c     uuid:oledbdat.obj
 0002:00008d84       _DBROWCOL_ISCOLLECTION     2205cd84     uuid:oledbdat.obj
 0002:00008d9c       _DBROWCOL_ISSTRUCTUREDDOCUMENT 2205cd9c     uuid:oledbdat.obj
 0002:00008db4       _DBROWCOL_DEFAULTDOCUMENT  2205cdb4     uuid:oledbdat.obj
 0002:00008dcc       _DBROWCOL_DISPLAYNAME      2205cdcc     uuid:oledbdat.obj
 0002:00008de4       _DBROWCOL_ISROOT           2205cde4     uuid:oledbdat.obj
 0002:00008dfc       _DBROWCOL_DEFAULTSTREAM    2205cdfc     uuid:oledbdat.obj
 0002:00008e14       _DBGUID_CONTAINEROBJECT    2205ce14     uuid:oledbdat.obj
 0002:00008e24       _DBSCHEMA_ASSERTIONS       2205ce24     uuid:oledbdat.obj
 0002:00008e34       _DBSCHEMA_CATALOGS         2205ce34     uuid:oledbdat.obj
 0002:00008e44       _DBSCHEMA_CHARACTER_SETS   2205ce44     uuid:oledbdat.obj
 0002:00008e54       _DBSCHEMA_COLLATIONS       2205ce54     uuid:oledbdat.obj
 0002:00008e64       _DBSCHEMA_COLUMNS          2205ce64     uuid:oledbdat.obj
 0002:00008e74       _DBSCHEMA_CHECK_CONSTRAINTS 2205ce74     uuid:oledbdat.obj
 0002:00008e84       _DBSCHEMA_CONSTRAINT_COLUMN_USAGE 2205ce84     uuid:oledbdat.obj
 0002:00008e94       _DBSCHEMA_CONSTRAINT_TABLE_USAGE 2205ce94     uuid:oledbdat.obj
 0002:00008ea4       _DBSCHEMA_KEY_COLUMN_USAGE 2205cea4     uuid:oledbdat.obj
 0002:00008eb4       _DBSCHEMA_REFERENTIAL_CONSTRAINTS 2205ceb4     uuid:oledbdat.obj
 0002:00008ec4       _DBSCHEMA_TABLE_CONSTRAINTS 2205cec4     uuid:oledbdat.obj
 0002:00008ed4       _DBSCHEMA_COLUMN_DOMAIN_USAGE 2205ced4     uuid:oledbdat.obj
 0002:00008ee4       _DBSCHEMA_INDEXES          2205cee4     uuid:oledbdat.obj
 0002:00008ef4       _DBSCHEMA_COLUMN_PRIVILEGES 2205cef4     uuid:oledbdat.obj
 0002:00008f04       _DBSCHEMA_TABLE_PRIVILEGES 2205cf04     uuid:oledbdat.obj
 0002:00008f14       _DBSCHEMA_USAGE_PRIVILEGES 2205cf14     uuid:oledbdat.obj
 0002:00008f24       _DBSCHEMA_PROCEDURES       2205cf24     uuid:oledbdat.obj
 0002:00008f34       _DBSCHEMA_SCHEMATA         2205cf34     uuid:oledbdat.obj
 0002:00008f44       _DBSCHEMA_SQL_LANGUAGES    2205cf44     uuid:oledbdat.obj
 0002:00008f54       _DBSCHEMA_STATISTICS       2205cf54     uuid:oledbdat.obj
 0002:00008f64       _DBSCHEMA_TABLES           2205cf64     uuid:oledbdat.obj
 0002:00008f74       _DBSCHEMA_TRANSLATIONS     2205cf74     uuid:oledbdat.obj
 0002:00008f84       _DBSCHEMA_PROVIDER_TYPES   2205cf84     uuid:oledbdat.obj
 0002:00008f94       _DBSCHEMA_VIEWS            2205cf94     uuid:oledbdat.obj
 0002:00008fa4       _DBSCHEMA_VIEW_COLUMN_USAGE 2205cfa4     uuid:oledbdat.obj
 0002:00008fb4       _DBSCHEMA_VIEW_TABLE_USAGE 2205cfb4     uuid:oledbdat.obj
 0002:00008fc4       _DBSCHEMA_PROCEDURE_PARAMETERS 2205cfc4     uuid:oledbdat.obj
 0002:00008fd4       _DBSCHEMA_FOREIGN_KEYS     2205cfd4     uuid:oledbdat.obj
 0002:00008fe4       _DBSCHEMA_PRIMARY_KEYS     2205cfe4     uuid:oledbdat.obj
 0002:00008ff4       _DBSCHEMA_PROCEDURE_COLUMNS 2205cff4     uuid:oledbdat.obj
 0002:00009004       _DBCOL_SELFCOLUMNS         2205d004     uuid:oledbdat.obj
 0002:00009014       _DBCOL_SPECIALCOL          2205d014     uuid:oledbdat.obj
 0002:00009024       _PSGUID_QUERY              2205d024     uuid:oledbdat.obj
 0002:00009034       _DBPROPSET_COLUMN          2205d034     uuid:oledbdat.obj
 0002:00009044       _DBPROPSET_DATASOURCE      2205d044     uuid:oledbdat.obj
 0002:00009054       _DBPROPSET_DATASOURCEINFO  2205d054     uuid:oledbdat.obj
 0002:00009064       _DBPROPSET_DBINIT          2205d064     uuid:oledbdat.obj
 0002:00009074       _DBPROPSET_INDEX           2205d074     uuid:oledbdat.obj
 0002:00009084       _DBPROPSET_ROWSET          2205d084     uuid:oledbdat.obj
 0002:00009094       _DBPROPSET_TABLE           2205d094     uuid:oledbdat.obj
 0002:000090a4       _DBPROPSET_DATASOURCEALL   2205d0a4     uuid:oledbdat.obj
 0002:000090b4       _DBPROPSET_DATASOURCEINFOALL 2205d0b4     uuid:oledbdat.obj
 0002:000090c4       _DBPROPSET_ROWSETALL       2205d0c4     uuid:oledbdat.obj
 0002:000090d4       _DBPROPSET_SESSION         2205d0d4     uuid:oledbdat.obj
 0002:000090e4       _DBPROPSET_SESSIONALL      2205d0e4     uuid:oledbdat.obj
 0002:000090f4       _DBPROPSET_DBINITALL       2205d0f4     uuid:oledbdat.obj
 0002:00009104       _DBPROPSET_PROPERTIESINERROR 2205d104     uuid:oledbdat.obj
 0002:00009114       _DBPROPSET_VIEW            2205d114     uuid:oledbdat.obj
 0002:00009124       _DBPROPSET_VIEWALL         2205d124     uuid:oledbdat.obj
 0002:00009134       _DBPROPSET_STREAM          2205d134     uuid:oledbdat.obj
 0002:00009144       _DBPROPSET_STREAMALL       2205d144     uuid:oledbdat.obj
 0002:00009154       _DBSCHEMA_TABLE_STATISTICS 2205d154     uuid:oledbdat.obj
 0002:00009164       _DBSCHEMA_CHECK_CONSTRAINTS_BY_TABLE 2205d164     uuid:oledbdat.obj
 0002:00009174       _DBGUID_HISTOGRAM_ROWSET   2205d174     uuid:oledbdat.obj
 0002:00009184       _DBCOLUMN_DERIVEDCOLUMNNAME 2205d184     uuid:oledbdat.obj
 0002:0000919c       _DBGUID_DBSQL              2205d19c     uuid:oledbdat.obj
 0002:000091ac       _DBGUID_DEFAULT            2205d1ac     uuid:oledbdat.obj
 0002:000091bc       _DBGUID_SQL                2205d1bc     uuid:oledbdat.obj
 0002:000091cc       _DB_PROPERTY_CHECK_OPTION  2205d1cc     uuid:oledbdat.obj
 0002:000091dc       _DB_PROPERTY_CONSTRAINT_CHECK_DEFERRED 2205d1dc     uuid:oledbdat.obj
 0002:000091ec       _DB_PROPERTY_DROP_CASCADE  2205d1ec     uuid:oledbdat.obj
 0002:000091fc       _DB_PROPERTY_UNIQUE        2205d1fc     uuid:oledbdat.obj
 0002:0000920c       _DB_PROPERTY_ON_COMMIT_PRESERVE_ROWS 2205d20c     uuid:oledbdat.obj
 0002:0000921c       _DB_PROPERTY_PRIMARY       2205d21c     uuid:oledbdat.obj
 0002:0000922c       _DB_PROPERTY_CLUSTERED     2205d22c     uuid:oledbdat.obj
 0002:0000923c       _DB_PROPERTY_NONCLUSTERED  2205d23c     uuid:oledbdat.obj
 0002:0000924c       _DB_PROPERTY_BTREE         2205d24c     uuid:oledbdat.obj
 0002:0000925c       _DB_PROPERTY_HASH          2205d25c     uuid:oledbdat.obj
 0002:0000926c       _DB_PROPERTY_FILLFACTOR    2205d26c     uuid:oledbdat.obj
 0002:0000927c       _DB_PROPERTY_INITIALSIZE   2205d27c     uuid:oledbdat.obj
 0002:0000928c       _DB_PROPERTY_DISALLOWNULL  2205d28c     uuid:oledbdat.obj
 0002:0000929c       _DB_PROPERTY_IGNORENULL    2205d29c     uuid:oledbdat.obj
 0002:000092ac       _DB_PROPERTY_IGNOREANYNULL 2205d2ac     uuid:oledbdat.obj
 0002:000092bc       _DB_PROPERTY_SORTBOOKMARKS 2205d2bc     uuid:oledbdat.obj
 0002:000092cc       _DB_PROPERTY_AUTOMATICUPDATE 2205d2cc     uuid:oledbdat.obj
 0002:000092dc       _DB_PROPERTY_EXPLICITUPDATE 2205d2dc     uuid:oledbdat.obj
 0002:000092ec       _DBGUID_LIKE_SQL           2205d2ec     uuid:oledbdat.obj
 0002:000092fc       _DBGUID_LIKE_DOS           2205d2fc     uuid:oledbdat.obj
 0002:0000930c       _DBGUID_LIKE_OFS           2205d30c     uuid:oledbdat.obj
 0002:0000931c       _DBGUID_LIKE_MAPI          2205d31c     uuid:oledbdat.obj
 0002:0000932c       _CLSID_OLEDB_ENUMERATOR    2205d32c     uuid:oledbdat.obj
 0002:0000933c       _CLSID_EXTENDEDERRORINFO   2205d33c     uuid:oledbdat.obj
 0002:0000934c       _CLSID_MSDAVTM             2205d34c     uuid:oledbdat.obj
 0002:0000935c       _CLSID_OLEDB_CONVERSIONLIBRARY 2205d35c     uuid:oledbdat.obj
 0002:0000936c       _CLSID_OLEDB_ROWPOSITIONLIBRARY 2205d36c     uuid:oledbdat.obj
 0002:0000937c       _OLEDB_SVC_DSLPropertyPages 2205d37c     uuid:oledbdat.obj
 0002:0000938c       _LIBID_MSDASC              2205d38c     uuid:oledbdat.obj
 0002:0000939c       _IID_IService              2205d39c     uuid:oledbdat.obj
 0002:000093ac       _IID_IDBPromptInitialize   2205d3ac     uuid:oledbdat.obj
 0002:000093bc       _IID_IDataInitialize       2205d3bc     uuid:oledbdat.obj
 0002:000093cc       _IID_IDataSourceLocator    2205d3cc     uuid:oledbdat.obj
 0002:000093dc       _CLSID_DataLinks           2205d3dc     uuid:oledbdat.obj
 0002:000093ec       _CLSID_MSDAINITIALIZE      2205d3ec     uuid:oledbdat.obj
 0002:000093fc       _CLSID_PDPO                2205d3fc     uuid:oledbdat.obj
 0002:0000940c       _CLSID_RootBinder          2205d40c     uuid:oledbdat.obj
 0002:0000941c       _CLSID_DataConvert         2205d41c     uuid:oledbdat.obj
 0002:0000942c       _IID_IAccessor             2205d42c     uuid:oledbiid.obj
 0002:0000943c       _IID_IRowset               2205d43c     uuid:oledbiid.obj
 0002:0000944c       _IID_IRowsetInfo           2205d44c     uuid:oledbiid.obj
 0002:0000945c       _IID_IRowsetLocate         2205d45c     uuid:oledbiid.obj
 0002:0000946c       _IID_IRowsetResynch        2205d46c     uuid:oledbiid.obj
 0002:0000947c       _IID_IRowsetScroll         2205d47c     uuid:oledbiid.obj
 0002:0000948c       _IID_IChapteredRowset      2205d48c     uuid:oledbiid.obj
 0002:0000949c       _IID_IRowsetFind           2205d49c     uuid:oledbiid.obj
 0002:000094ac       _IID_IRowPosition          2205d4ac     uuid:oledbiid.obj
 0002:000094bc       _IID_IRowPositionChange    2205d4bc     uuid:oledbiid.obj
 0002:000094cc       _IID_IViewRowset           2205d4cc     uuid:oledbiid.obj
 0002:000094dc       _IID_IViewChapter          2205d4dc     uuid:oledbiid.obj
 0002:000094ec       _IID_IViewSort             2205d4ec     uuid:oledbiid.obj
 0002:000094fc       _IID_IViewFilter           2205d4fc     uuid:oledbiid.obj
 0002:0000950c       _IID_IRowsetView           2205d50c     uuid:oledbiid.obj
 0002:0000951c       _IID_IRowsetExactScroll    2205d51c     uuid:oledbiid.obj
 0002:0000952c       _IID_IRowsetChange         2205d52c     uuid:oledbiid.obj
 0002:0000953c       _IID_IRowsetUpdate         2205d53c     uuid:oledbiid.obj
 0002:0000954c       _IID_IRowsetIdentity       2205d54c     uuid:oledbiid.obj
 0002:0000955c       _IID_IRowsetNotify         2205d55c     uuid:oledbiid.obj
 0002:0000956c       _IID_IRowsetIndex          2205d56c     uuid:oledbiid.obj
 0002:0000957c       _IID_ICommand              2205d57c     uuid:oledbiid.obj
 0002:0000958c       _IID_IMultipleResults      2205d58c     uuid:oledbiid.obj
 0002:0000959c       _IID_IConvertType          2205d59c     uuid:oledbiid.obj
 0002:000095ac       _IID_ICommandPrepare       2205d5ac     uuid:oledbiid.obj
 0002:000095bc       _IID_ICommandProperties    2205d5bc     uuid:oledbiid.obj
 0002:000095cc       _IID_ICommandText          2205d5cc     uuid:oledbiid.obj
 0002:000095dc       _IID_ICommandWithParameters 2205d5dc     uuid:oledbiid.obj
 0002:000095ec       _IID_IColumnsRowset        2205d5ec     uuid:oledbiid.obj
 0002:000095fc       _IID_IColumnsInfo          2205d5fc     uuid:oledbiid.obj
 0002:0000960c       _IID_IDBCreateCommand      2205d60c     uuid:oledbiid.obj
 0002:0000961c       _IID_IDBCreateSession      2205d61c     uuid:oledbiid.obj
 0002:0000962c       _IID_ISourcesRowset        2205d62c     uuid:oledbiid.obj
 0002:0000963c       _IID_IDBProperties         2205d63c     uuid:oledbiid.obj
 0002:0000964c       _IID_IDBInitialize         2205d64c     uuid:oledbiid.obj
 0002:0000965c       _IID_IDBInfo               2205d65c     uuid:oledbiid.obj
 0002:0000966c       _IID_IDBDataSourceAdmin    2205d66c     uuid:oledbiid.obj
 0002:0000967c       _IID_IDBAsynchNotify       2205d67c     uuid:oledbiid.obj
 0002:0000968c       _IID_IDBAsynchStatus       2205d68c     uuid:oledbiid.obj
 0002:0000969c       _IID_ISessionProperties    2205d69c     uuid:oledbiid.obj
 0002:000096ac       _IID_IIndexDefinition      2205d6ac     uuid:oledbiid.obj
 0002:000096bc       _IID_ITableDefinition      2205d6bc     uuid:oledbiid.obj
 0002:000096cc       _IID_IOpenRowset           2205d6cc     uuid:oledbiid.obj
 0002:000096dc       _IID_IDBSchemaRowset       2205d6dc     uuid:oledbiid.obj
 0002:000096ec       _IID_IMDDataset            2205d6ec     uuid:oledbiid.obj
 0002:000096fc       _IID_IMDFind               2205d6fc     uuid:oledbiid.obj
 0002:0000970c       _IID_IMDRangeRowset        2205d70c     uuid:oledbiid.obj
 0002:0000971c       _IID_IAlterTable           2205d71c     uuid:oledbiid.obj
 0002:0000972c       _IID_IAlterIndex           2205d72c     uuid:oledbiid.obj
 0002:0000973c       _IID_IRowsetChapterMember  2205d73c     uuid:oledbiid.obj
 0002:0000974c       _IID_ICommandPersist       2205d74c     uuid:oledbiid.obj
 0002:0000975c       _IID_IRowsetRefresh        2205d75c     uuid:oledbiid.obj
 0002:0000976c       _IID_IParentRowset         2205d76c     uuid:oledbiid.obj
 0002:0000977c       _IID_IErrorRecords         2205d77c     uuid:oledbiid.obj
 0002:0000978c       _IID_IErrorLookup          2205d78c     uuid:oledbiid.obj
 0002:0000979c       _IID_ISQLErrorInfo         2205d79c     uuid:oledbiid.obj
 0002:000097ac       _IID_IGetDataSource        2205d7ac     uuid:oledbiid.obj
 0002:000097bc       _IID_ITransactionLocal     2205d7bc     uuid:oledbiid.obj
 0002:000097cc       _IID_ITransactionJoin      2205d7cc     uuid:oledbiid.obj
 0002:000097dc       _IID_ITransactionObject    2205d7dc     uuid:oledbiid.obj
 0002:000097ec       _IID_ITrusteeAdmin         2205d7ec     uuid:oledbiid.obj
 0002:000097fc       _IID_ITrusteeGroupAdmin    2205d7fc     uuid:oledbiid.obj
 0002:0000980c       _IID_IObjectAccessControl  2205d80c     uuid:oledbiid.obj
 0002:0000981c       _IID_ISecurityInfo         2205d81c     uuid:oledbiid.obj
 0002:0000982c       _IID_ITableCreation        2205d82c     uuid:oledbiid.obj
 0002:0000983c       _IID_ITableDefinitionWithConstraints 2205d83c     uuid:oledbiid.obj
 0002:0000984c       _IID_IRow                  2205d84c     uuid:oledbiid.obj
 0002:0000985c       _IID_IRowChange            2205d85c     uuid:oledbiid.obj
 0002:0000986c       _IID_IRowSchemaChange      2205d86c     uuid:oledbiid.obj
 0002:0000987c       _IID_IGetRow               2205d87c     uuid:oledbiid.obj
 0002:0000988c       _IID_IBindResource         2205d88c     uuid:oledbiid.obj
 0002:0000989c       _IID_IScopedOperations     2205d89c     uuid:oledbiid.obj
 0002:000098ac       _IID_ICreateRow            2205d8ac     uuid:oledbiid.obj
 0002:000098bc       _IID_IDBBinderProperties   2205d8bc     uuid:oledbiid.obj
 0002:000098cc       _IID_IColumnsInfo2         2205d8cc     uuid:oledbiid.obj
 0002:000098dc       _IID_IRegisterProvider     2205d8dc     uuid:oledbiid.obj
 0002:000098ec       _IID_IGetSession           2205d8ec     uuid:oledbiid.obj
 0002:000098fc       _IID_IGetSourceRow         2205d8fc     uuid:oledbiid.obj
 0002:0000990c       _IID_IRowsetCurrentIndex   2205d90c     uuid:oledbiid.obj
 0002:0000991c       _IID_ICommandStream        2205d91c     uuid:oledbiid.obj
 0002:0000992c       _IID_IRowsetBookmark       2205d92c     uuid:oledbiid.obj
 0002:00009940       ??_7type_info@@6B@         2205d940     LIBCMTD:typinfo.obj
 0002:00009944       ?ProcessDetach@NativeDll@<CrtImplementationDetails>@@0IB 2205d944     LIBCMTD:_trnsctrl_.obj
 0002:00009948       ?ProcessAttach@NativeDll@<CrtImplementationDetails>@@0IB 2205d948     LIBCMTD:_trnsctrl_.obj
 0002:0000994c       ?ThreadAttach@NativeDll@<CrtImplementationDetails>@@0IB 2205d94c     LIBCMTD:_trnsctrl_.obj
 0002:00009950       ?ThreadDetach@NativeDll@<CrtImplementationDetails>@@0IB 2205d950     LIBCMTD:_trnsctrl_.obj
 0002:00009954       ?ProcessVerifier@NativeDll@<CrtImplementationDetails>@@0IB 2205d954     LIBCMTD:_trnsctrl_.obj
 0002:00009958       __pRawDllMain              2205d958     LIBCMTD:dllcrt0.obj
 0002:00009958       __pDefaultRawDllMain       2205d958     LIBCMTD:dllcrt0.obj
 0002:0000995c       ??_C@_0DB@OLNOAEGF@f?3?2dd?2vctools?2crt_bld?2self_x86?2c@ 2205d95c     LIBCMTD:dllcrt0.obj
 0002:00009998       ??_C@_1HG@KNCBMCDD@?$AAf?$AA?3?$AA?2?$AAd?$AAd?$AA?2?$AAv?$AAc?$AAt?$AAo?$AAo?$AAl?$AAs?$AA?2?$AAc?$AAr?$AAt?$AA_?$AAb?$AAl?$AAd?$AA?2?$AAs?$AAe?$AAl?$AAf?$AA_?$AAx?$AA8?$AA6?$AA?2?$AAc@ 2205d998     LIBCMTD:typname.obj
 0002:00009a10       ??_C@_1CK@GELGGBDK@?$AAp?$AAN?$AAo?$AAd?$AAe?$AA?9?$AA?$DO?$AA_?$AAN?$AAe?$AAx?$AAt?$AA?5?$AA?$CB?$AA?$DN?$AA?5?$AAN?$AAU?$AAL?$AAL?$AA?$AA@ 2205da10     LIBCMTD:typname.obj
 0002:00009a40       ??_C@_1JK@NAFNEPGC@?$AAs?$AAt?$AAr?$AAc?$AAp?$AAy?$AA_?$AAs?$AA?5?$AA?$CI?$AA?$CI?$AAc?$AAh?$AAa?$AAr?$AA?5?$AA?$CK?$AA?$CJ?$AA?$CI?$AA?$CI?$AAt?$AAy?$AAp?$AAe?$AA_?$AAi?$AAn?$AAf?$AAo?$AA?5?$AA?$CK?$AA?$CJ@ 2205da40     LIBCMTD:typname.obj
 0002:00009adc       ??_C@_1CM@OOICDMK@?$AAt?$AAy?$AAp?$AAe?$AA_?$AAi?$AAn?$AAf?$AAo?$AA?3?$AA?3?$AA_?$AAN?$AAa?$AAm?$AAe?$AA_?$AAb?$AAa?$AAs?$AAe?$AA?$AA@ 2205dadc     LIBCMTD:typname.obj
 0002:00009b08       ??_C@_1GI@EAJKJPED@?$AAs?$AAt?$AAr?$AAc?$AAp?$AAy?$AA_?$AAs?$AA?5?$AA?$CI?$AAp?$AAT?$AAm?$AAp?$AAT?$AAy?$AAp?$AAe?$AAN?$AAa?$AAm?$AAe?$AA?0?$AA?5?$AAl?$AAe?$AAn?$AA?$CL?$AA2?$AA?0?$AA?5?$AA?$CI@ 2205db08     LIBCMTD:typname.obj
 0002:00009b70       ??_C@_1DO@OJJLFJPE@?$AAt?$AAy?$AAp?$AAe?$AA_?$AAi?$AAn?$AAf?$AAo?$AA?3?$AA?3?$AA_?$AAN?$AAa?$AAm?$AAe?$AA_?$AAb?$AAa?$AAs?$AAe?$AA_?$AAi?$AAn?$AAt?$AAe?$AAr?$AAn?$AAa?$AAl?$AA?$AA@ 2205db70     LIBCMTD:typname.obj
 0002:00009bb0       __pDestructExceptionObject 2205dbb0     LIBCMTD:frame.obj
 0002:00009bb4       ??_C@_0O@DPKOEFFH@bad?5exception?$AA@ 2205dbb4     LIBCMTD:frame.obj
 0002:00009bc8       ??_7bad_exception@std@@6B@ 2205dbc8     LIBCMTD:frame.obj
 0002:00009bd0       ??_C@_0DC@LMJHGCKC@f?3?2dd?2vctools?2crt_bld?2self_x86?2c@ 2205dbd0     LIBCMTD:tidtable.obj
 0002:00009c04       ??_C@_07PEJMOBNF@FlsFree?$AA@ 2205dc04     LIBCMTD:tidtable.obj
 0002:00009c0c       ??_C@_0M@JCPCPOEF@FlsSetValue?$AA@ 2205dc0c     LIBCMTD:tidtable.obj
 0002:00009c18       ??_C@_0M@GDNOONDI@FlsGetValue?$AA@ 2205dc18     LIBCMTD:tidtable.obj
 0002:00009c24       ??_C@_08KNHFBNJ@FlsAlloc?$AA@ 2205dc24     LIBCMTD:tidtable.obj
 0002:00009c30       ??_C@_1BK@DBDEIDLH@?$AAK?$AAE?$AAR?$AAN?$AAE?$AAL?$AA3?$AA2?$AA?4?$AAD?$AAL?$AAL?$AA?$AA@ 2205dc30     LIBCMTD:tidtable.obj
 0002:00009c4c       ??_C@_06PJIGMIJB@Client?$AA@ 2205dc4c     LIBCMTD:dbgheap.obj
 0002:00009c54       ??_C@_06KMEJCCGM@Ignore?$AA@ 2205dc54     LIBCMTD:dbgheap.obj
 0002:00009c5c       ??_C@_03OGPFLFLO@CRT?$AA@  2205dc5c     LIBCMTD:dbgheap.obj
 0002:00009c60       ??_C@_06EFAGIKOH@Normal?$AA@ 2205dc60     LIBCMTD:dbgheap.obj
 0002:00009c68       ??_C@_04HJMOFLDF@Free?$AA@ 2205dc68     LIBCMTD:dbgheap.obj
 0002:00009c84       ??_C@_0DC@JEMAGEKG@Error?3?5memory?5allocation?3?5bad?5me@ 2205dc84     LIBCMTD:dbgheap.obj
 0002:00009cb8       ??_C@_0CF@BICKFLAF@Invalid?5allocation?5size?3?5?$CFIu?5byt@ 2205dcb8     LIBCMTD:dbgheap.obj
 0002:00009ce0       ??_C@_02DKCKIIND@?$CFs?$AA@ 2205dce0     LIBCMTD:dbgheap.obj
 0002:00009ce4       ??_C@_0CB@CCLOLAHO@Client?5hook?5allocation?5failure?4?6@ 2205dce4     LIBCMTD:dbgheap.obj
 0002:00009d08       ??_C@_0DF@BBEGIFEK@Client?5hook?5allocation?5failure?5a@ 2205dd08     LIBCMTD:dbgheap.obj
 0002:00009d40       ??_C@_1GC@DNJKKEAA@?$AAf?$AA?3?$AA?2?$AAd?$AAd?$AA?2?$AAv?$AAc?$AAt?$AAo?$AAo?$AAl?$AAs?$AA?2?$AAc?$AAr?$AAt?$AA_?$AAb?$AAl?$AAd?$AA?2?$AAs?$AAe?$AAl?$AAf?$AA_?$AAx?$AA8?$AA6?$AA?2?$AAc@ 2205dd40     LIBCMTD:dbgheap.obj
 0002:00009da4       ??_C@_1CE@LJFEPPMP@?$AA_?$AAC?$AAr?$AAt?$AAC?$AAh?$AAe?$AAc?$AAk?$AAM?$AAe?$AAm?$AAo?$AAr?$AAy?$AA?$CI?$AA?$CJ?$AA?$AA@ 2205dda4     LIBCMTD:dbgheap.obj
 0002:00009dc8       ??_C@_1DE@KOOKLFBB@?$AA_?$AAp?$AAF?$AAi?$AAr?$AAs?$AAt?$AAB?$AAl?$AAo?$AAc?$AAk?$AA?5?$AA?$DN?$AA?$DN?$AA?5?$AAp?$AAO?$AAl?$AAd?$AAB?$AAl?$AAo?$AAc?$AAk?$AA?$AA@ 2205ddc8     LIBCMTD:dbgheap.obj
 0002:00009dfc       ??_C@_1DC@GEFKNOOL@?$AA_?$AAp?$AAL?$AAa?$AAs?$AAt?$AAB?$AAl?$AAo?$AAc?$AAk?$AA?5?$AA?$DN?$AA?$DN?$AA?5?$AAp?$AAO?$AAl?$AAd?$AAB?$AAl?$AAo?$AAc?$AAk?$AA?$AA@ 2205ddfc     LIBCMTD:dbgheap.obj
 0002:00009e30       ??_C@_1GE@PCKLOLAO@?$AAf?$AAR?$AAe?$AAa?$AAl?$AAl?$AAo?$AAc?$AA?5?$AA?$HM?$AA?$HM?$AA?5?$AA?$CI?$AA?$CB?$AAf?$AAR?$AAe?$AAa?$AAl?$AAl?$AAo?$AAc?$AA?5?$AA?$CG?$AA?$CG?$AA?5?$AAp?$AAN?$AAe?$AAw?$AAB?$AAl@ 2205de30     LIBCMTD:dbgheap.obj
 0002:00009e94       ??_C@_0DA@HFBKENN@Error?3?5possible?5heap?5corruption?5@ 2205de94     LIBCMTD:dbgheap.obj
 0002:00009ec8       ??_C@_1IK@DCPKDGNH@?$AAp?$AAO?$AAl?$AAd?$AAB?$AAl?$AAo?$AAc?$AAk?$AA?9?$AA?$DO?$AAn?$AAL?$AAi?$AAn?$AAe?$AA?5?$AA?$DN?$AA?$DN?$AA?5?$AAI?$AAG?$AAN?$AAO?$AAR?$AAE?$AA_?$AAL?$AAI?$AAN?$AAE?$AA?5@ 2205dec8     LIBCMTD:dbgheap.obj
 0002:00009f58       ??_C@_1EE@GFOPCECE@?$AA_?$AAC?$AAr?$AAt?$AAI?$AAs?$AAV?$AAa?$AAl?$AAi?$AAd?$AAH?$AAe?$AAa?$AAp?$AAP?$AAo?$AAi?$AAn?$AAt?$AAe?$AAr?$AA?$CI?$AAp?$AAU?$AAs?$AAe?$AAr?$AAD?$AAa?$AAt?$AAa@ 2205df58     LIBCMTD:dbgheap.obj
 0002:00009fa0       ??_C@_0EM@LGFLMAGJ@The?5Block?5at?50x?$CFp?5was?5allocated?5@ 2205dfa0     LIBCMTD:dbgheap.obj
 0002:00009ff0       ??_C@_0FA@EFEIGJKG@Error?3?5memory?5allocation?3?5bad?5me@ 2205dff0     LIBCMTD:dbgheap.obj
 0002:0000a040       ??_C@_0ED@GPCPBAGP@Invalid?5allocation?5size?3?5?$CFIu?5byt@ 2205e040     LIBCMTD:dbgheap.obj
 0002:0000a084       ??_C@_0CE@DOFMDOL@Client?5hook?5re?9allocation?5failur@ 2205e084     LIBCMTD:dbgheap.obj
 0002:0000a0a8       ??_C@_0DI@KKJPDPGM@Client?5hook?5re?9allocation?5failur@ 2205e0a8     LIBCMTD:dbgheap.obj
 0002:0000a0e0       ??_C@_1BI@HAPNGHDP@?$AA_?$AAe?$AAx?$AAp?$AAa?$AAn?$AAd?$AA_?$AAd?$AAb?$AAg?$AA?$AA@ 2205e0e0     LIBCMTD:dbgheap.obj
 0002:0000a0f8       ??_C@_1CE@CJACEFBA@?$AAp?$AAU?$AAs?$AAe?$AAr?$AAD?$AAa?$AAt?$AAa?$AA?5?$AA?$CB?$AA?$DN?$AA?5?$AAN?$AAU?$AAL?$AAL?$AA?$AA@ 2205e0f8     LIBCMTD:dbgheap.obj
 0002:0000a11c       ??_C@_1CM@MMAADDMD@?$AA_?$AAp?$AAF?$AAi?$AAr?$AAs?$AAt?$AAB?$AAl?$AAo?$AAc?$AAk?$AA?5?$AA?$DN?$AA?$DN?$AA?5?$AAp?$AAH?$AAe?$AAa?$AAd?$AA?$AA@ 2205e11c     LIBCMTD:dbgheap.obj
 0002:0000a148       ??_C@_1CK@DMAGEMBG@?$AA_?$AAp?$AAL?$AAa?$AAs?$AAt?$AAB?$AAl?$AAo?$AAc?$AAk?$AA?5?$AA?$DN?$AA?$DN?$AA?5?$AAp?$AAH?$AAe?$AAa?$AAd?$AA?$AA@ 2205e148     LIBCMTD:dbgheap.obj
 0002:0000a174       ??_C@_1DM@ODCJIDCP@?$AAp?$AAH?$AAe?$AAa?$AAd?$AA?9?$AA?$DO?$AAn?$AAB?$AAl?$AAo?$AAc?$AAk?$AAU?$AAs?$AAe?$AA?5?$AA?$DN?$AA?$DN?$AA?5?$AAn?$AAB?$AAl?$AAo?$AAc?$AAk?$AAU?$AAs?$AAe?$AA?$AA@ 2205e174     LIBCMTD:dbgheap.obj
 0002:0000a1b0       ??_C@_1HK@HPCBMDFG@?$AAp?$AAH?$AAe?$AAa?$AAd?$AA?9?$AA?$DO?$AAn?$AAL?$AAi?$AAn?$AAe?$AA?5?$AA?$DN?$AA?$DN?$AA?5?$AAI?$AAG?$AAN?$AAO?$AAR?$AAE?$AA_?$AAL?$AAI?$AAN?$AAE?$AA?5?$AA?$CG?$AA?$CG?$AA?5?$AAp@ 2205e1b0     LIBCMTD:dbgheap.obj
 0002:0000a230       ??_C@_0IG@LEMBDCJK@HEAP?5CORRUPTION?5DETECTED?3?5after?5@ 2205e230     LIBCMTD:dbgheap.obj
 0002:0000a2b8       ??_C@_0KE@MBMNHHHN@HEAP?5CORRUPTION?5DETECTED?3?5after?5@ 2205e2b8     LIBCMTD:dbgheap.obj
 0002:0000a360       ??_C@_0IK@PJCGLBOB@HEAP?5CORRUPTION?5DETECTED?3?5before@ 2205e360     LIBCMTD:dbgheap.obj
 0002:0000a3f0       ??_C@_0KI@JGFOHMEB@HEAP?5CORRUPTION?5DETECTED?3?5before@ 2205e3f0     LIBCMTD:dbgheap.obj
 0002:0000a498       ??_C@_1EO@LHDAJOCM@?$AA_?$AAB?$AAL?$AAO?$AAC?$AAK?$AA_?$AAT?$AAY?$AAP?$AAE?$AA_?$AAI?$AAS?$AA_?$AAV?$AAA?$AAL?$AAI?$AAD?$AA?$CI?$AAp?$AAH?$AAe?$AAa?$AAd?$AA?9?$AA?$DO?$AAn?$AAB?$AAl?$AAo@ 2205e498     LIBCMTD:dbgheap.obj
 0002:0000a4e8       ??_C@_0BL@KEIPLFAC@Client?5hook?5free?5failure?4?6?$AA@ 2205e4e8     LIBCMTD:dbgheap.obj
 0002:0000a508       ??_C@_0EJ@HEIBCIMJ@The?5Block?5at?50x?$CFp?5was?5allocated?5@ 2205e508     LIBCMTD:dbgheap.obj
 0002:0000a554       ??_C@_1BG@MBKOGDLD@?$AA_?$AAm?$AAs?$AAi?$AAz?$AAe?$AA_?$AAd?$AAb?$AAg?$AA?$AA@ 2205e554     LIBCMTD:dbgheap.obj
 0002:0000a56c       ??_C@_0CI@JMLBEDHJ@?$CFhs?5located?5at?50x?$CFp?5is?5?$CFIu?5bytes@ 2205e56c     LIBCMTD:dbgheap.obj
 0002:0000a598       ??_C@_0EG@DGJMPDBH@?$CFhs?5located?5at?50x?$CFp?5is?5?$CFIu?5bytes@ 2205e598     LIBCMTD:dbgheap.obj
 0002:0000a5e0       ??_C@_0IC@BBJIOOJH@HEAP?5CORRUPTION?5DETECTED?3?5on?5top@ 2205e5e0     LIBCMTD:dbgheap.obj
 0002:0000a668       ??_C@_0KA@IHNJJKPL@HEAP?5CORRUPTION?5DETECTED?3?5on?5top@ 2205e668     LIBCMTD:dbgheap.obj
 0002:0000a708       ??_C@_07OHKEFPKJ@DAMAGED?$AA@ 2205e708     LIBCMTD:dbgheap.obj
 0002:0000a710       ??_C@_0CL@HNNNMKMJ@_heapchk?5fails?5with?5unknown?5retu@ 2205e710     LIBCMTD:dbgheap.obj
 0002:0000a73c       ??_C@_0CC@MFFCHFHO@_heapchk?5fails?5with?5_HEAPBADPTR?4@ 2205e73c     LIBCMTD:dbgheap.obj
 0002:0000a760       ??_C@_0CC@MJGLGBDG@_heapchk?5fails?5with?5_HEAPBADEND?4@ 2205e760     LIBCMTD:dbgheap.obj
 0002:0000a784       ??_C@_0CD@CPKEAPBD@_heapchk?5fails?5with?5_HEAPBADNODE@ 2205e784     LIBCMTD:dbgheap.obj
 0002:0000a7a8       ??_C@_0CE@MKKHMBMK@_heapchk?5fails?5with?5_HEAPBADBEGI@ 2205e7a8     LIBCMTD:dbgheap.obj
 0002:0000a7cc       ??_C@_1BO@GJFDNMNF@?$AA_?$AAC?$AAr?$AAt?$AAS?$AAe?$AAt?$AAD?$AAb?$AAg?$AAF?$AAl?$AAa?$AAg?$AA?$AA@ 2205e7cc     LIBCMTD:dbgheap.obj
 0002:0000a7f0       ??_C@_1BHO@NNANJNF@?$AA?$CI?$AAf?$AAN?$AAe?$AAw?$AAB?$AAi?$AAt?$AAs?$AA?$DN?$AA?$DN?$AA_?$AAC?$AAR?$AAT?$AAD?$AAB?$AAG?$AA_?$AAR?$AAE?$AAP?$AAO?$AAR?$AAT?$AA_?$AAF?$AAL?$AAA?$AAG?$AA?$CJ?$AA?5@ 2205e7f0     LIBCMTD:dbgheap.obj
 0002:0000a970       ??_C@_1DE@GJCKCKEC@?$AA_?$AAC?$AAr?$AAt?$AAD?$AAo?$AAF?$AAo?$AAr?$AAA?$AAl?$AAl?$AAC?$AAl?$AAi?$AAe?$AAn?$AAt?$AAO?$AAb?$AAj?$AAe?$AAc?$AAt?$AAs?$AA?$AA@ 2205e970     LIBCMTD:dbgheap.obj
 0002:0000a9a4       ??_C@_1BI@CJGCEEDL@?$AAp?$AAf?$AAn?$AA?5?$AA?$CB?$AA?$DN?$AA?5?$AAN?$AAU?$AAL?$AAL?$AA?$AA@ 2205e9a4     LIBCMTD:dbgheap.obj
 0002:0000a9bc       ??_C@_0CB@EAAIGELO@Bad?5memory?5block?5found?5at?50x?$CFp?4?6@ 2205e9bc     LIBCMTD:dbgheap.obj
 0002:0000a9e0       ??_C@_0DP@LEFMFBOD@Bad?5memory?5block?5found?5at?50x?$CFp?4?6@ 2205e9e0     LIBCMTD:dbgheap.obj
 0002:0000aa20       ??_C@_1CE@NJJKELF@?$AA_?$AAC?$AAr?$AAt?$AAM?$AAe?$AAm?$AAC?$AAh?$AAe?$AAc?$AAk?$AAp?$AAo?$AAi?$AAn?$AAt?$AA?$AA@ 2205ea20     LIBCMTD:dbgheap.obj
 0002:0000aa44       ??_C@_1BM@MIMANDHC@?$AAs?$AAt?$AAa?$AAt?$AAe?$AA?5?$AA?$CB?$AA?$DN?$AA?5?$AAN?$AAU?$AAL?$AAL?$AA?$AA@ 2205ea44     LIBCMTD:dbgheap.obj
 0002:0000aa60       ??_C@_1CC@DFPEDFBP@?$AAn?$AAe?$AAw?$AAS?$AAt?$AAa?$AAt?$AAe?$AA?5?$AA?$CB?$AA?$DN?$AA?5?$AAN?$AAU?$AAL?$AAL?$AA?$AA@ 2205ea60     LIBCMTD:dbgheap.obj
 0002:0000aa84       ??_C@_1CC@DHPFEMMN@?$AAo?$AAl?$AAd?$AAS?$AAt?$AAa?$AAt?$AAe?$AA?5?$AA?$CB?$AA?$DN?$AA?5?$AAN?$AAU?$AAL?$AAL?$AA?$AA@ 2205ea84     LIBCMTD:dbgheap.obj
 0002:0000aaa8       ??_C@_1CE@PDIENACM@?$AA_?$AAC?$AAr?$AAt?$AAM?$AAe?$AAm?$AAD?$AAi?$AAf?$AAf?$AAe?$AAr?$AAe?$AAn?$AAc?$AAe?$AA?$AA@ 2205eaa8     LIBCMTD:dbgheap.obj
 0002:0000aacc       ??_C@_0BH@GFGKJDCO@Object?5dump?5complete?4?6?$AA@ 2205eacc     LIBCMTD:dbgheap.obj
 0002:0000aae4       ??_C@_0DA@MDLBNIBM@crt?5block?5at?50x?$CFp?0?5subtype?5?$CFx?0?5?$CF@ 2205eae4     LIBCMTD:dbgheap.obj
 0002:0000ab14       ??_C@_0CH@FAGDDGPN@normal?5block?5at?50x?$CFp?0?5?$CFIu?5bytes?5@ 2205eb14     LIBCMTD:dbgheap.obj
 0002:0000ab3c       ??_C@_0DD@GHNAAKBB@client?5block?5at?50x?$CFp?0?5subtype?5?$CFx@ 2205eb3c     LIBCMTD:dbgheap.obj
 0002:0000ab70       ??_C@_06PKLGBFGM@?$HL?$CFld?$HN?5?$AA@ 2205eb70     LIBCMTD:dbgheap.obj
 0002:0000ab78       ??_C@_0L@JMEFFCCJ@?$CFhs?$CI?$CFd?$CJ?5?3?5?$AA@ 2205eb78     LIBCMTD:dbgheap.obj
 0002:0000ab84       ??_C@_0BE@OIEFNFL@?$CDFile?5Error?$CD?$CI?$CFd?$CJ?5?3?5?$AA@ 2205eb84     LIBCMTD:dbgheap.obj
 0002:0000ab98       ??_C@_0BE@KCIPKCIA@Dumping?5objects?5?9?$DO?6?$AA@ 2205eb98     LIBCMTD:dbgheap.obj
 0002:0000abac       ??_C@_0BA@HJBKCELP@?5Data?3?5?$DM?$CFs?$DO?5?$CFs?6?$AA@ 2205ebac     LIBCMTD:dbgheap.obj
 0002:0000abbc       ??_C@_1BI@KALLJECN@?$AA?$CI?$AA?$CK?$AA_?$AAe?$AAr?$AAr?$AAn?$AAo?$AA?$CI?$AA?$CJ?$AA?$CJ?$AA?$AA@ 2205ebbc     LIBCMTD:dbgheap.obj
 0002:0000abd4       ??_C@_1CG@LPFIACGM@?$AA_?$AAp?$AAr?$AAi?$AAn?$AAt?$AAM?$AAe?$AAm?$AAB?$AAl?$AAo?$AAc?$AAk?$AAD?$AAa?$AAt?$AAa?$AA?$AA@ 2205ebd4     LIBCMTD:dbgheap.obj
 0002:0000abfc       ??_C@_05MKKEDADM@?$CF?42X?5?$AA@ 2205ebfc     LIBCMTD:dbgheap.obj
 0002:0000ac04       ??_C@_0BI@JBFPOEJA@Detected?5memory?5leaks?$CB?6?$AA@ 2205ec04     LIBCMTD:dbgheap.obj
 0002:0000ac1c       ??_C@_0BP@DEDHGGGI@Total?5allocations?3?5?$CFId?5bytes?4?6?$AA@ 2205ec1c     LIBCMTD:dbgheap.obj
 0002:0000ac3c       ??_C@_0CB@BLHDAFNE@Largest?5number?5used?3?5?$CFId?5bytes?4?6@ 2205ec3c     LIBCMTD:dbgheap.obj
 0002:0000ac60       ??_C@_0BO@DACNIABB@?$CFId?5bytes?5in?5?$CFId?5?$CFhs?5Blocks?4?6?$AA@ 2205ec60     LIBCMTD:dbgheap.obj
 0002:0000ac80       ??_C@_1CM@MPNIBKGK@?$AA_?$AAC?$AAr?$AAt?$AAM?$AAe?$AAm?$AAD?$AAu?$AAm?$AAp?$AAS?$AAt?$AAa?$AAt?$AAi?$AAs?$AAt?$AAi?$AAc?$AAs?$AA?$AA@ 2205ec80     LIBCMTD:dbgheap.obj
 0002:0000acac       ??_C@_1DK@LFLKFPDA@?$AAo?$AAf?$AAf?$AAs?$AAe?$AAt?$AA?5?$AA?$DN?$AA?$DN?$AA?5?$AA0?$AA?5?$AA?$HM?$AA?$HM?$AA?5?$AAo?$AAf?$AAf?$AAs?$AAe?$AAt?$AA?5?$AA?$DM?$AA?5?$AAs?$AAi?$AAz?$AAe?$AA?$AA@ 2205ecac     LIBCMTD:dbgheap.obj
 0002:0000ace8       ??_C@_1DG@DONCJBBJ@?$AA_?$AAa?$AAl?$AAi?$AAg?$AAn?$AAe?$AAd?$AA_?$AAo?$AAf?$AAf?$AAs?$AAe?$AAt?$AA_?$AAm?$AAa?$AAl?$AAl?$AAo?$AAc?$AA_?$AAd?$AAb?$AAg?$AA?$AA@ 2205ece8     LIBCMTD:dbgheap.obj
 0002:0000ad20       ??_C@_1CE@NPMGPNNP@?$AAI?$AAS?$AA_?$AA2?$AA_?$AAP?$AAO?$AAW?$AA_?$AAN?$AA?$CI?$AAa?$AAl?$AAi?$AAg?$AAn?$AA?$CJ?$AA?$AA@ 2205ed20     LIBCMTD:dbgheap.obj
 0002:0000ad44       ??_C@_1DI@NINIKFFK@?$AA_?$AAa?$AAl?$AAi?$AAg?$AAn?$AAe?$AAd?$AA_?$AAo?$AAf?$AAf?$AAs?$AAe?$AAt?$AA_?$AAr?$AAe?$AAa?$AAl?$AAl?$AAo?$AAc?$AA_?$AAd?$AAb?$AAg?$AA?$AA@ 2205ed44     LIBCMTD:dbgheap.obj
 0002:0000ad7c       ??_C@_0DL@PGHMMKNE@Damage?5before?50x?$CFp?5which?5was?5all@ 2205ed7c     LIBCMTD:dbgheap.obj
 0002:0000adb8       ??_C@_0EI@NDNJMAJK@The?5block?5at?50x?$CFp?5was?5not?5alloca@ 2205edb8     LIBCMTD:dbgheap.obj
 0002:0000ae00       ??_C@_0EF@PGELACII@The?5block?5at?50x?$CFp?5was?5not?5alloca@ 2205ee00     LIBCMTD:dbgheap.obj
 0002:0000ae48       ??_C@_1CG@CEGMHIMN@?$AA_?$AAa?$AAl?$AAi?$AAg?$AAn?$AAe?$AAd?$AA_?$AAm?$AAs?$AAi?$AAz?$AAe?$AA_?$AAd?$AAb?$AAg?$AA?$AA@ 2205ee48     LIBCMTD:dbgheap.obj
 0002:0000ae70       ??_C@_1CC@MOBIKHH@?$AAm?$AAe?$AAm?$AAb?$AAl?$AAo?$AAc?$AAk?$AA?5?$AA?$CB?$AA?$DN?$AA?5?$AAN?$AAU?$AAL?$AAL?$AA?$AA@ 2205ee70     LIBCMTD:dbgheap.obj
 0002:0000ae94       ??_C@_0P@MIGLKIOC@CorExitProcess?$AA@ 2205ee94     LIBCMTD:crt0dat.obj
 0002:0000aea4       ??_C@_1BI@BGOHAHKC@?$AAm?$AAs?$AAc?$AAo?$AAr?$AAe?$AAe?$AA?4?$AAd?$AAl?$AAl?$AA?$AA@ 2205eea4     LIBCMTD:crt0dat.obj
 0002:0000aebc       ??_C@_1CC@CDIPMFPD@?$AA_?$AAw?$AAp?$AAg?$AAm?$AAp?$AAt?$AAr?$AA?5?$AA?$CB?$AA?$DN?$AA?5?$AAN?$AAU?$AAL?$AAL?$AA?$AA@ 2205eebc     LIBCMTD:crt0dat.obj
 0002:0000aee0       ??_C@_1BK@PNLDCCDP@?$AA_?$AAg?$AAe?$AAt?$AA_?$AAw?$AAp?$AAg?$AAm?$AAp?$AAt?$AAr?$AA?$AA@ 2205eee0     LIBCMTD:crt0dat.obj
 0002:0000af00       ??_C@_1GC@DGCPEDNJ@?$AAf?$AA?3?$AA?2?$AAd?$AAd?$AA?2?$AAv?$AAc?$AAt?$AAo?$AAo?$AAl?$AAs?$AA?2?$AAc?$AAr?$AAt?$AA_?$AAb?$AAl?$AAd?$AA?2?$AAs?$AAe?$AAl?$AAf?$AA_?$AAx?$AA8?$AA6?$AA?2?$AAc@ 2205ef00     LIBCMTD:crt0dat.obj
 0002:0000af64       ??_C@_1BO@LKEBEKJP@?$AAp?$AAV?$AAa?$AAl?$AAu?$AAe?$AA?5?$AA?$CB?$AA?$DN?$AA?5?$AAN?$AAU?$AAL?$AAL?$AA?$AA@ 2205ef64     LIBCMTD:crt0dat.obj
 0002:0000af84       ??_C@_1CA@BBNAFCKO@?$AA_?$AAp?$AAg?$AAm?$AAp?$AAt?$AAr?$AA?5?$AA?$CB?$AA?$DN?$AA?5?$AAN?$AAU?$AAL?$AAL?$AA?$AA@ 2205ef84     LIBCMTD:crt0dat.obj
 0002:0000afa4       ??_C@_1BI@COAAPHJK@?$AA_?$AAg?$AAe?$AAt?$AA_?$AAp?$AAg?$AAm?$AAp?$AAt?$AAr?$AA?$AA@ 2205efa4     LIBCMTD:crt0dat.obj
 0002:0000afbc       ??_C@_0DA@NBLAKPEL@f?3?2dd?2vctools?2crt_bld?2self_x86?2c@ 2205efbc     LIBCMTD:ioinit.obj
 0002:0000afec       ??_C@_1DE@MMOGFGHF@?$AAs?$AAt?$AAr?$AAc?$AAp?$AAy?$AA_?$AAs?$AA?$CI?$AA?$CK?$AAe?$AAn?$AAv?$AA?0?$AA?5?$AAc?$AAc?$AAh?$AAa?$AAr?$AAs?$AA?0?$AA?5?$AAp?$AA?$CJ?$AA?$AA@ 2205efec     LIBCMTD:stdenvp.obj
 0002:0000b020       ??_C@_1BC@GHMCNHHL@?$AA_?$AAs?$AAe?$AAt?$AAe?$AAn?$AAv?$AAp?$AA?$AA@ 2205f020     LIBCMTD:stdenvp.obj
 0002:0000b038       ??_C@_1GC@DGBFLDBN@?$AAf?$AA?3?$AA?2?$AAd?$AAd?$AA?2?$AAv?$AAc?$AAt?$AAo?$AAo?$AAl?$AAs?$AA?2?$AAc?$AAr?$AAt?$AA_?$AAb?$AAl?$AAd?$AA?2?$AAs?$AAe?$AAl?$AAf?$AA_?$AAx?$AA8?$AA6?$AA?2?$AAc@ 2205f038     LIBCMTD:stdenvp.obj
 0002:0000b09c       ??_C@_0DB@BMEBJJKP@f?3?2dd?2vctools?2crt_bld?2self_x86?2c@ 2205f09c     LIBCMTD:stdenvp.obj
 0002:0000b0d0       ??_C@_0DB@OEPBJOLC@f?3?2dd?2vctools?2crt_bld?2self_x86?2c@ 2205f0d0     LIBCMTD:stdargv.obj
 0002:0000b104       ??_C@_0CP@PPLBCJDN@f?3?2dd?2vctools?2crt_bld?2self_x86?2c@ 2205f104     LIBCMTD:a_env.obj
 0002:0000b138       ??_C@_1GE@JDDMFOID@?$AAf?$AA?3?$AA?2?$AAd?$AAd?$AA?2?$AAv?$AAc?$AAt?$AAo?$AAo?$AAl?$AAs?$AA?2?$AAc?$AAr?$AAt?$AA_?$AAb?$AAl?$AAd?$AA?2?$AAs?$AAe?$AAl?$AAf?$AA_?$AAx?$AA8?$AA6?$AA?2?$AAc@ 2205f138     LIBCMTD:heapinit.obj
 0002:0000b19c       ??_C@_1BC@DENNNKIM@?$AA_?$AAc?$AAr?$AAt?$AAh?$AAe?$AAa?$AAp?$AA?$AA@ 2205f19c     LIBCMTD:heapinit.obj
 0002:0000b1b0       __XcptActTab               2205f1b0     LIBCMTD:winxfltr.obj
 0002:0000b240       __First_FPE_Indx           2205f240     LIBCMTD:winxfltr.obj
 0002:0000b244       __Num_FPE                  2205f244     LIBCMTD:winxfltr.obj
 0002:0000b248       __XcptActTabSize           2205f248     LIBCMTD:winxfltr.obj
 0002:0000b24c       __XcptActTabCount          2205f24c     LIBCMTD:winxfltr.obj
 0002:0000b250       ??_C@_0CP@MKONOLCI@f?3?2dd?2vctools?2crt_bld?2self_x86?2c@ 2205f250     LIBCMTD:mlock.obj
 0002:0000b280       ??_C@_17LGKOMLJ@?$AA?4?$AA?4?$AA?4?$AA?$AA@ 2205f280     LIBCMTD:dbgrptw.obj
 0002:0000b288       ??_C@_1CC@CGHMNGDG@?$AAA?$AAs?$AAs?$AAe?$AAr?$AAt?$AAi?$AAo?$AAn?$AA?5?$AAF?$AAa?$AAi?$AAl?$AAe?$AAd?$AA?$AA@ 2205f288     LIBCMTD:dbgrptw.obj
 0002:0000b2ac       ??_C@_1M@ILHOPKA@?$AAE?$AAr?$AAr?$AAo?$AAr?$AA?$AA@ 2205f2ac     LIBCMTD:dbgrptw.obj
 0002:0000b2b8       ??_C@_1BA@GLMCNLEM@?$AAW?$AAa?$AAr?$AAn?$AAi?$AAn?$AAg?$AA?$AA@ 2205f2b8     LIBCMTD:dbgrptw.obj
 0002:0000b2d4       ??_C@_0DA@PCCBBBID@f?3?2dd?2vctools?2crt_bld?2self_x86?2c@ 2205f2d4     LIBCMTD:dbgrptw.obj
 0002:0000b308       ??_C@_1FI@PHIAFFHM@?$AA?$CI?$AA?$CC?$AAT?$AAh?$AAe?$AA?5?$AAh?$AAo?$AAo?$AAk?$AA?5?$AAf?$AAu?$AAn?$AAc?$AAt?$AAi?$AAo?$AAn?$AA?5?$AAi?$AAs?$AA?5?$AAn?$AAo?$AAt?$AA?5?$AAi?$AAn?$AA?5?$AAt?$AAh@ 2205f308     LIBCMTD:dbgrptw.obj
 0002:0000b360       ??_C@_1CG@JBJEFOCM@?$AAp?$AAf?$AAn?$AAN?$AAe?$AAw?$AAH?$AAo?$AAo?$AAk?$AA?5?$AA?$CB?$AA?$DN?$AA?5?$AAN?$AAU?$AAL?$AAL?$AA?$AA@ 2205f360     LIBCMTD:dbgrptw.obj
 0002:0000b388       ??_C@_1CI@IIHEAKEI@?$AA_?$AAC?$AAr?$AAt?$AAS?$AAe?$AAt?$AAR?$AAe?$AAp?$AAo?$AAr?$AAt?$AAH?$AAo?$AAo?$AAk?$AAW?$AA2?$AA?$AA@ 2205f388     LIBCMTD:dbgrptw.obj
 0002:0000b3b0       ??_C@_1GA@IBJGKIFE@?$AAf?$AA?3?$AA?2?$AAd?$AAd?$AA?2?$AAv?$AAc?$AAt?$AAo?$AAo?$AAl?$AAs?$AA?2?$AAc?$AAr?$AAt?$AA_?$AAb?$AAl?$AAd?$AA?2?$AAs?$AAe?$AAl?$AAf?$AA_?$AAx?$AA8?$AA6?$AA?2?$AAc@ 2205f3b0     LIBCMTD:dbgrptw.obj
 0002:0000b410       ??_C@_1HI@OFEHGPPC@?$AAm?$AAo?$AAd?$AAe?$AA?5?$AA?$DN?$AA?$DN?$AA?5?$AA_?$AAC?$AAR?$AAT?$AA_?$AAR?$AAP?$AAT?$AAH?$AAO?$AAO?$AAK?$AA_?$AAI?$AAN?$AAS?$AAT?$AAA?$AAL?$AAL?$AA?5?$AA?$HM?$AA?$HM?$AA?5@ 2205f410     LIBCMTD:dbgrptw.obj
 0002:0000b488       ??_C@_1EG@PEOEAKBB@?$AAM?$AAi?$AAc?$AAr?$AAo?$AAs?$AAo?$AAf?$AAt?$AA?5?$AAV?$AAi?$AAs?$AAu?$AAa?$AAl?$AA?5?$AAC?$AA?$CL?$AA?$CL?$AA?5?$AAD?$AAe?$AAb?$AAu?$AAg?$AA?5?$AAL?$AAi?$AAb?$AAr?$AAa@ 2205f488     LIBCMTD:dbgrptw.obj
 0002:0000b4d0       ??_C@_1FG@BBOLDHGF@?$AA_?$AAC?$AAr?$AAt?$AAD?$AAb?$AAg?$AAR?$AAe?$AAp?$AAo?$AAr?$AAt?$AA?3?$AA?5?$AAS?$AAt?$AAr?$AAi?$AAn?$AAg?$AA?5?$AAt?$AAo?$AAo?$AA?5?$AAl?$AAo?$AAn?$AAg?$AA?5?$AAo@ 2205f4d0     LIBCMTD:dbgrptw.obj
 0002:0000b528       ??_C@_1JI@EACPGHID@?$AAw?$AAc?$AAs?$AAc?$AAp?$AAy?$AA_?$AAs?$AA?$CI?$AAs?$AAz?$AAO?$AAu?$AAt?$AAM?$AAe?$AAs?$AAs?$AAa?$AAg?$AAe?$AA?0?$AA?5?$AA4?$AA0?$AA9?$AA6?$AA?0?$AA?5?$AAL?$AA?$CC?$AA_@ 2205f528     LIBCMTD:dbgrptw.obj
 0002:0000b5c0       ??_C@_1KK@MEFMPOLM@?$AAD?$AAe?$AAb?$AAu?$AAg?$AA?5?$AA?$CF?$AAs?$AA?$CB?$AA?6?$AA?6?$AAP?$AAr?$AAo?$AAg?$AAr?$AAa?$AAm?$AA?3?$AA?5?$AA?$CF?$AAs?$AA?$CF?$AAs?$AA?$CF?$AAs?$AA?$CF?$AAs?$AA?$CF?$AAs?$AA?$CF?$AAs@ 2205f5c0     LIBCMTD:dbgrptw.obj
 0002:0000b66c       ??_C@_1BE@CGCJKGHI@?$AA?6?$AAM?$AAo?$AAd?$AAu?$AAl?$AAe?$AA?3?$AA?5?$AA?$AA@ 2205f66c     LIBCMTD:dbgrptw.obj
 0002:0000b680       ??_C@_1BA@LNHECFIM@?$AA?6?$AAF?$AAi?$AAl?$AAe?$AA?3?$AA?5?$AA?$AA@ 2205f680     LIBCMTD:dbgrptw.obj
 0002:0000b690       ??_C@_1BA@GLLGCPCK@?$AA?6?$AAL?$AAi?$AAn?$AAe?$AA?3?$AA?5?$AA?$AA@ 2205f690     LIBCMTD:dbgrptw.obj
 0002:0000b6a0       ??_C@_15IABLJNFO@?$AA?6?$AA?6?$AA?$AA@ 2205f6a0     LIBCMTD:dbgrptw.obj
 0002:0000b6a8       ??_C@_1BK@PEDCIPMA@?$AAE?$AAx?$AAp?$AAr?$AAe?$AAs?$AAs?$AAi?$AAo?$AAn?$AA?3?$AA?5?$AA?$AA@ 2205f6a8     LIBCMTD:dbgrptw.obj
 0002:0000b6c4       ??_C@_11LOCGONAA@?$AA?$AA@ 2205f6c4     LIBCMTD:dbgrptw.obj
 0002:0000b6c8       ??_C@_1OG@PMPPFHAF@?$AA?6?$AA?6?$AAF?$AAo?$AAr?$AA?5?$AAi?$AAn?$AAf?$AAo?$AAr?$AAm?$AAa?$AAt?$AAi?$AAo?$AAn?$AA?5?$AAo?$AAn?$AA?5?$AAh?$AAo?$AAw?$AA?5?$AAy?$AAo?$AAu?$AAr?$AA?5?$AAp?$AAr@ 2205f6c8     LIBCMTD:dbgrptw.obj
 0002:0000b7b0       ??_C@_1NO@LECLLHOL@?$AAm?$AAe?$AAm?$AAc?$AAp?$AAy?$AA_?$AAs?$AA?$CI?$AAs?$AAz?$AAS?$AAh?$AAo?$AAr?$AAt?$AAP?$AAr?$AAo?$AAg?$AAN?$AAa?$AAm?$AAe?$AA?0?$AA?5?$AAs?$AAi?$AAz?$AAe?$AAo?$AAf@ 2205f7b0     LIBCMTD:dbgrptw.obj
 0002:0000b890       ??_C@_1CO@EAEJAADC@?$AA?$DM?$AAp?$AAr?$AAo?$AAg?$AAr?$AAa?$AAm?$AA?5?$AAn?$AAa?$AAm?$AAe?$AA?5?$AAu?$AAn?$AAk?$AAn?$AAo?$AAw?$AAn?$AA?$DO?$AA?$AA@ 2205f890     LIBCMTD:dbgrptw.obj
 0002:0000b8c0       ??_C@_1GI@DEDNNLCI@?$AAw?$AAc?$AAs?$AAc?$AAp?$AAy?$AA_?$AAs?$AA?$CI?$AAs?$AAz?$AAE?$AAx?$AAe?$AAN?$AAa?$AAm?$AAe?$AA?0?$AA?5?$AA2?$AA6?$AA0?$AA?0?$AA?5?$AAL?$AA?$CC?$AA?$DM?$AAp?$AAr?$AAo?$AAg@ 2205f8c0     LIBCMTD:dbgrptw.obj
 0002:0000b928       ??_C@_1CI@PGJIFDEK@?$AA_?$AA_?$AAc?$AAr?$AAt?$AAM?$AAe?$AAs?$AAs?$AAa?$AAg?$AAe?$AAW?$AAi?$AAn?$AAd?$AAo?$AAw?$AAW?$AA?$AA@ 2205f928     LIBCMTD:dbgrptw.obj
 0002:0000b950       ??_C@_1DM@MADKGDLO@?$AA?$CI?$AAL?$AA?$CC?$AAB?$AAu?$AAf?$AAf?$AAe?$AAr?$AA?5?$AAi?$AAs?$AA?5?$AAt?$AAo?$AAo?$AA?5?$AAs?$AAm?$AAa?$AAl?$AAl?$AA?$CC?$AA?5?$AA?$CG?$AA?$CG?$AA?5?$AA0?$AA?$CJ?$AA?$AA@ 2205f950     LIBCMTD:strcpy_s.obj
 0002:0000b98c       ??_C@_1CI@HCPHDDLE@?$AAB?$AAu?$AAf?$AAf?$AAe?$AAr?$AA?5?$AAi?$AAs?$AA?5?$AAt?$AAo?$AAo?$AA?5?$AAs?$AAm?$AAa?$AAl?$AAl?$AA?$AA@ 2205f98c     LIBCMTD:strcpy_s.obj
 0002:0000b9b4       ??_C@_1CG@OFBJMIGJ@?$AA?$CI?$AA?$CI?$AA?$CI?$AA_?$AAS?$AAr?$AAc?$AA?$CJ?$AA?$CJ?$AA?$CJ?$AA?5?$AA?$CB?$AA?$DN?$AA?5?$AAN?$AAU?$AAL?$AAL?$AA?$AA@ 2205f9b4     LIBCMTD:strcpy_s.obj
 0002:0000b9dc       ??_C@_1BC@CFJEPFGF@?$AAs?$AAt?$AAr?$AAc?$AAp?$AAy?$AA_?$AAs?$AA?$AA@ 2205f9dc     LIBCMTD:strcpy_s.obj
 0002:0000b9f0       ??_C@_1GI@BGBNCIMA@?$AAf?$AA?3?$AA?2?$AAd?$AAd?$AA?2?$AAv?$AAc?$AAt?$AAo?$AAo?$AAl?$AAs?$AA?2?$AAc?$AAr?$AAt?$AA_?$AAb?$AAl?$AAd?$AA?2?$AAs?$AAe?$AAl?$AAf?$AA_?$AAx?$AA8?$AA6?$AA?2?$AAc@ 2205f9f0     LIBCMTD:strcpy_s.obj
 0002:0000ba58       ??_C@_1FC@NCPEPIBI@?$AA?$CI?$AA?$CI?$AA_?$AAD?$AAs?$AAt?$AA?$CJ?$AA?$CJ?$AA?5?$AA?$CB?$AA?$DN?$AA?5?$AAN?$AAU?$AAL?$AAL?$AA?5?$AA?$CG?$AA?$CG?$AA?5?$AA?$CI?$AA?$CI?$AA_?$AAS?$AAi?$AAz?$AAe?$AAI?$AAn?$AAB?$AAy?$AAt@ 2205fa58     LIBCMTD:strcpy_s.obj
 0002:0000baac       ??_C@_0BK@CFCOFLF@?5Complete?5Object?5Locator?8?$AA@ 2205faac     LIBCMTD:undname.obj
 0002:0000bac8       ??_C@_0BN@MECKDCOJ@?5Class?5Hierarchy?5Descriptor?8?$AA@ 2205fac8     LIBCMTD:undname.obj
 0002:0000bae8       ??_C@_0BD@LGICGFMM@?5Base?5Class?5Array?8?$AA@ 2205fae8     LIBCMTD:undname.obj
 0002:0000bafc       ??_C@_0BM@LDKODKLH@?5Base?5Class?5Descriptor?5at?5?$CI?$AA@ 2205fafc     LIBCMTD:undname.obj
 0002:0000bb18       ??_C@_0BC@DAFEJGAK@?5Type?5Descriptor?8?$AA@ 2205fb18     LIBCMTD:undname.obj
 0002:0000bb2c       ??_C@_0BM@PMGGMLDN@?$GAlocal?5static?5thread?5guard?8?$AA@ 2205fb2c     LIBCMTD:undname.obj
 0002:0000bb48       ??_C@_0CL@FGIJHLCE@?$GAmanaged?5vector?5copy?5constructor@ 2205fb48     LIBCMTD:undname.obj
 0002:0000bb74       ??_C@_0CJ@GJELGAMM@?$GAvector?5vbase?5copy?5constructor?5i@ 2205fb74     LIBCMTD:undname.obj
 0002:0000bba0       ??_C@_0CD@CGAJBKEJ@?$GAvector?5copy?5constructor?5iterato@ 2205fba0     LIBCMTD:undname.obj
 0002:0000bbc4       ??_C@_0CB@PDBIFEP@?$GAdynamic?5atexit?5destructor?5for?5?8@ 2205fbc4     LIBCMTD:undname.obj
 0002:0000bbe8       ??_C@_0BL@CLIPGLGB@?$GAdynamic?5initializer?5for?5?8?$AA@ 2205fbe8     LIBCMTD:undname.obj
 0002:0000bc04       ??_C@_0CM@FCBBDIGB@?$GAeh?5vector?5vbase?5copy?5constructo@ 2205fc04     LIBCMTD:undname.obj
 0002:0000bc30       ??_C@_0CG@HLDDJMAG@?$GAeh?5vector?5copy?5constructor?5iter@ 2205fc30     LIBCMTD:undname.obj
 0002:0000bc58       ??_C@_0CF@IMGKMJNO@?$GAmanaged?5vector?5destructor?5itera@ 2205fc58     LIBCMTD:undname.obj
 0002:0000bc80       ??_C@_0CG@CFDHKGGD@?$GAmanaged?5vector?5constructor?5iter@ 2205fc80     LIBCMTD:undname.obj
 0002:0000bca8       ??_C@_0BN@CKNJLHMB@?$GAplacement?5delete?$FL?$FN?5closure?8?$AA@ 2205fca8     LIBCMTD:undname.obj
 0002:0000bcc8       ??_C@_0BL@CNOONJFP@?$GAplacement?5delete?5closure?8?$AA@ 2205fcc8     LIBCMTD:undname.obj
 0002:0000bce4       ??_C@_0P@HJKNJFNN@?$GAomni?5callsig?8?$AA@ 2205fce4     LIBCMTD:undname.obj
 0002:0000bcf4       ??_C@_09LBNFPBCA@?5delete?$FL?$FN?$AA@ 2205fcf4     LIBCMTD:undname.obj
 0002:0000bd00       ??_C@_06FHBGPFGH@?5new?$FL?$FN?$AA@ 2205fd00     LIBCMTD:undname.obj
 0002:0000bd08       ??_C@_0CE@IIHCMGGL@?$GAlocal?5vftable?5constructor?5closu@ 2205fd08     LIBCMTD:undname.obj
 0002:0000bd2c       ??_C@_0BA@KKLDJDLB@?$GAlocal?5vftable?8?$AA@ 2205fd2c     LIBCMTD:undname.obj
 0002:0000bd3c       ??_C@_05KHLCHHI@?$GARTTI?$AA@ 2205fd3c     LIBCMTD:undname.obj
 0002:0000bd44       ??_C@_03KLGMFNMG@?$GAEH?$AA@ 2205fd44     LIBCMTD:undname.obj
 0002:0000bd48       ??_C@_0BA@KBCDOMBN@?$GAudt?5returning?8?$AA@ 2205fd48     LIBCMTD:undname.obj
 0002:0000bd58       ??_C@_0BL@LLKPOHJI@?$GAcopy?5constructor?5closure?8?$AA@ 2205fd58     LIBCMTD:undname.obj
 0002:0000bd74       ??_C@_0CH@OOJPLCPH@?$GAeh?5vector?5vbase?5constructor?5ite@ 2205fd74     LIBCMTD:undname.obj
 0002:0000bd9c       ??_C@_0CA@GCEOPDGL@?$GAeh?5vector?5destructor?5iterator?8?$AA@ 2205fd9c     LIBCMTD:undname.obj
 0002:0000bdbc       ??_C@_0CB@JONCMFFK@?$GAeh?5vector?5constructor?5iterator?8@ 2205fdbc     LIBCMTD:undname.obj
 0002:0000bde0       ??_C@_0BL@NILFHHPC@?$GAvirtual?5displacement?5map?8?$AA@ 2205fde0     LIBCMTD:undname.obj
 0002:0000bdfc       ??_C@_0CE@IKBNEHA@?$GAvector?5vbase?5constructor?5iterat@ 2205fdfc     LIBCMTD:undname.obj
 0002:0000be20       ??_C@_0BN@LFPFMEDL@?$GAvector?5destructor?5iterator?8?$AA@ 2205fe20     LIBCMTD:undname.obj
 0002:0000be40       ??_C@_0BO@PFGOCPJJ@?$GAvector?5constructor?5iterator?8?$AA@ 2205fe40     LIBCMTD:undname.obj
 0002:0000be60       ??_C@_0BN@IMDCHIKM@?$GAscalar?5deleting?5destructor?8?$AA@ 2205fe60     LIBCMTD:undname.obj
 0002:0000be80       ??_C@_0BO@OBMKPJIG@?$GAdefault?5constructor?5closure?8?$AA@ 2205fe80     LIBCMTD:undname.obj
 0002:0000bea0       ??_C@_0BN@DEGPLNFK@?$GAvector?5deleting?5destructor?8?$AA@ 2205fea0     LIBCMTD:undname.obj
 0002:0000bec0       ??_C@_0BD@JDLKDPAB@?$GAvbase?5destructor?8?$AA@ 2205fec0     LIBCMTD:undname.obj
 0002:0000bed4       ??_C@_08OBABFOLI@?$GAstring?8?$AA@ 2205fed4     LIBCMTD:undname.obj
 0002:0000bee0       ??_C@_0BF@KDPPACIK@?$GAlocal?5static?5guard?8?$AA@ 2205fee0     LIBCMTD:undname.obj
 0002:0000bef8       ??_C@_08LLFFHHDJ@?$GAtypeof?8?$AA@ 2205fef8     LIBCMTD:undname.obj
 0002:0000bf04       ??_C@_07FEEIOKP@?$GAvcall?8?$AA@ 2205ff04     LIBCMTD:undname.obj
 0002:0000bf0c       ??_C@_09BLBHBJP@?$GAvbtable?8?$AA@ 2205ff0c     LIBCMTD:undname.obj
 0002:0000bf18       ??_C@_09IFPLHPGF@?$GAvftable?8?$AA@ 2205ff18     LIBCMTD:undname.obj
 0002:0000bf24       ??_C@_02MHEGNOJ@?$FO?$DN?$AA@ 2205ff24     LIBCMTD:undname.obj
 0002:0000bf28       ??_C@_02DHLNPPGH@?$HM?$DN?$AA@ 2205ff28     LIBCMTD:undname.obj
 0002:0000bf2c       ??_C@_02FGJGFEAB@?$CG?$DN?$AA@ 2205ff2c     LIBCMTD:undname.obj
 0002:0000bf30       ??_C@_03CDNPDDLA@?$DM?$DM?$DN?$AA@ 2205ff30     LIBCMTD:undname.obj
 0002:0000bf34       ??_C@_03IKFCCPFF@?$DO?$DO?$DN?$AA@ 2205ff34     LIBCMTD:undname.obj
 0002:0000bf38       ??_C@_02FENAOKFI@?$CF?$DN?$AA@ 2205ff38     LIBCMTD:undname.obj
 0002:0000bf3c       ??_C@_02FJEHGPIO@?1?$DN?$AA@ 2205ff3c     LIBCMTD:undname.obj
 0002:0000bf40       ??_C@_02FKMDLLOA@?9?$DN?$AA@ 2205ff40     LIBCMTD:undname.obj
 0002:0000bf44       ??_C@_02FOEOMHFC@?$CL?$DN?$AA@ 2205ff44     LIBCMTD:undname.obj
 0002:0000bf48       ??_C@_02FPIMKNGF@?$CK?$DN?$AA@ 2205ff48     LIBCMTD:undname.obj
 0002:0000bf4c       ??_C@_02NONPIBCD@?$HM?$HM?$AA@ 2205ff4c     LIBCMTD:undname.obj
 0002:0000bf50       ??_C@_02PPKAJPJL@?$CG?$CG?$AA@ 2205ff50     LIBCMTD:undname.obj
 0002:0000bf54       ??_C@_01DNKMNLPK@?$HM?$AA@ 2205ff54     LIBCMTD:undname.obj
 0002:0000bf58       ??_C@_01JKBOJNNK@?$FO?$AA@ 2205ff58     LIBCMTD:undname.obj
 0002:0000bf5c       ??_C@_01PJKLJHI@?$HO?$AA@  2205ff5c     LIBCMTD:undname.obj
 0002:0000bf60       ??_C@_02HCKGKOFO@?$CI?$CJ?$AA@ 2205ff60     LIBCMTD:undname.obj
 0002:0000bf64       ??_C@_01IHBHIGKO@?0?$AA@   2205ff64     LIBCMTD:undname.obj
 0002:0000bf68       ??_C@_02EEKDKGMJ@?$DO?$DN?$AA@ 2205ff68     LIBCMTD:undname.obj
 0002:0000bf6c       ??_C@_01PPODPGHN@?$DO?$AA@ 2205ff6c     LIBCMTD:undname.obj
 0002:0000bf70       ??_C@_02EHCHHCKH@?$DM?$DN?$AA@ 2205ff70     LIBCMTD:undname.obj
 0002:0000bf74       ??_C@_01MNNFJEPP@?$DM?$AA@ 2205ff74     LIBCMTD:undname.obj
 0002:0000bf78       ??_C@_01FGNFDNOH@?$CF?$AA@ 2205ff78     LIBCMTD:undname.obj
 0002:0000bf7c       ??_C@_01KMDKNFGN@?1?$AA@   2205ff7c     LIBCMTD:undname.obj
 0002:0000bf80       ??_C@_03MNHNFDLC@?9?$DO?$CK?$AA@ 2205ff80     LIBCMTD:undname.obj
 0002:0000bf84       ??_C@_01HNPIGOCE@?$CG?$AA@ 2205ff84     LIBCMTD:undname.obj
 0002:0000bf88       ??_C@_01MIFGBAGJ@?$CL?$AA@ 2205ff88     LIBCMTD:undname.obj
 0002:0000bf8c       ??_C@_01JOAMLHOP@?9?$AA@   2205ff8c     LIBCMTD:undname.obj
 0002:0000bf90       ??_C@_02BAABKJLB@?9?9?$AA@ 2205ff90     LIBCMTD:undname.obj
 0002:0000bf94       ??_C@_02ECNGHCIF@?$CL?$CL?$AA@ 2205ff94     LIBCMTD:undname.obj
 0002:0000bf98       ??_C@_01NBENCBCI@?$CK?$AA@ 2205ff98     LIBCMTD:undname.obj
 0002:0000bf9c       ??_C@_02HBOOOICD@?9?$DO?$AA@ 2205ff9c     LIBCMTD:undname.obj
 0002:0000bfa0       ??_C@_08LHJFAFGD@operator?$AA@ 2205ffa0     LIBCMTD:undname.obj
 0002:0000bfac       ??_C@_02GPECMEKF@?$FL?$FN?$AA@ 2205ffac     LIBCMTD:undname.obj
 0002:0000bfb0       ??_C@_02FDNJECIE@?$CB?$DN?$AA@ 2205ffb0     LIBCMTD:undname.obj
 0002:0000bfb4       ??_C@_02EGOFBIJA@?$DN?$DN?$AA@ 2205ffb4     LIBCMTD:undname.obj
 0002:0000bfb8       ??_C@_01DCLJPIOD@?$CB?$AA@ 2205ffb8     LIBCMTD:undname.obj
 0002:0000bfbc       ??_C@_02FODMEDOG@?$DM?$DM?$AA@ 2205ffbc     LIBCMTD:undname.obj
 0002:0000bfc0       ??_C@_02GPIOPFAK@?$DO?$DO?$AA@ 2205ffc0     LIBCMTD:undname.obj
 0002:0000bfc4       ??_C@_01NEMOKFLO@?$DN?$AA@ 2205ffc4     LIBCMTD:undname.obj
 0002:0000bfc8       ??_C@_07FPCDHGMM@?5delete?$AA@ 2205ffc8     LIBCMTD:undname.obj
 0002:0000bfd0       ??_C@_04NIHEBCM@?5new?$AA@ 2205ffd0     LIBCMTD:undname.obj
 0002:0000bfd5       ??_C@_00CNPNBAHC@?$AA@     2205ffd5     LIBCMTD:undname.obj
 0002:0000bfd8       ??_C@_0M@GFIIJFMG@__unaligned?$AA@ 2205ffd8     LIBCMTD:undname.obj
 0002:0000bfe4       ??_C@_0L@PILCLIHE@__restrict?$AA@ 2205ffe4     LIBCMTD:undname.obj
 0002:0000bff0       ??_C@_07JOMMBBKO@__ptr64?$AA@ 2205fff0     LIBCMTD:undname.obj
 0002:0000bff8       ??_C@_06GHPCKEAG@__eabi?$AA@ 2205fff8     LIBCMTD:undname.obj
 0002:0000c000       ??_C@_09HIJEGCPM@__clrcall?$AA@ 22060000     LIBCMTD:undname.obj
 0002:0000c00c       ??_C@_0L@JMKHOMEK@__fastcall?$AA@ 2206000c     LIBCMTD:undname.obj
 0002:0000c018       ??_C@_0L@NPHFGOKO@__thiscall?$AA@ 22060018     LIBCMTD:undname.obj
 0002:0000c024       ??_C@_09IFJBGAPI@__stdcall?$AA@ 22060024     LIBCMTD:undname.obj
 0002:0000c030       ??_C@_08GHMPAG@__pascal?$AA@ 22060030     LIBCMTD:undname.obj
 0002:0000c03c       ??_C@_07KOLFKCDI@__cdecl?$AA@ 2206003c     LIBCMTD:undname.obj
 0002:0000c044       ??_C@_08EHJDFFNH@__based?$CI?$AA@ 22060044     LIBCMTD:undname.obj
 0002:0000c1d4       ??_C@_04HEJADOOB@CV?3?5?$AA@ 220601d4     LIBCMTD:undname.obj
 0002:0000c1dc       ??_C@_02MOLJINC@?3?3?$AA@  220601dc     LIBCMTD:undname.obj
 0002:0000c1e0       ??_C@_01GEODFPGF@?8?$AA@   220601e0     LIBCMTD:undname.obj
 0002:0000c1e4       ??_C@_01NLNLIGKH@?$GA?$AA@ 220601e4     LIBCMTD:undname.obj
 0002:0000c1e8       ??_C@_0O@KHGCOMHP@generic?9type?9?$AA@ 220601e8     LIBCMTD:undname.obj
 0002:0000c1f8       ??_C@_0BE@JAEOCHPE@template?9parameter?9?$AA@ 220601f8     LIBCMTD:undname.obj
 0002:0000c20c       ??_C@_02OHHJMEON@?8?8?$AA@ 2206020c     LIBCMTD:undname.obj
 0002:0000c210       ??_C@_0BG@JNJLAMPM@?$GAanonymous?5namespace?8?$AA@ 22060210     LIBCMTD:undname.obj
 0002:0000c228       ??_C@_0BN@IBLMMFAP@?$GAnon?9type?9template?9parameter?$AA@ 22060228     LIBCMTD:undname.obj
 0002:0000c248       ??_C@_0BE@EODMJLIF@?$GAtemplate?9parameter?$AA@ 22060248     LIBCMTD:undname.obj
 0002:0000c25c       ??_C@_04GKJNKENE@void?$AA@ 2206025c     LIBCMTD:undname.obj
 0002:0000c264       ??_C@_04HIBGFPH@NULL?$AA@  22060264     LIBCMTD:undname.obj
 0002:0000c26c       ??_C@_0M@DHNBOJMP@extern?5?$CCC?$CC?5?$AA@ 2206026c     LIBCMTD:undname.obj
 0002:0000c278       ??_C@_08KJLFOPNE@?$FLthunk?$FN?3?$AA@ 22060278     LIBCMTD:undname.obj
 0002:0000c284       ??_C@_08GPDDCMKI@public?3?5?$AA@ 22060284     LIBCMTD:undname.obj
 0002:0000c290       ??_C@_0M@GAIFPFIP@protected?3?5?$AA@ 22060290     LIBCMTD:undname.obj
 0002:0000c29c       ??_C@_09LAPHOOG@private?3?5?$AA@ 2206029c     LIBCMTD:undname.obj
 0002:0000c2a8       ??_C@_08NIEOINHE@virtual?5?$AA@ 220602a8     LIBCMTD:undname.obj
 0002:0000c2b4       ??_C@_07PGOEDBHP@static?5?$AA@ 220602b4     LIBCMTD:undname.obj
 0002:0000c2bc       ??_C@_0DA@HGFJFBBE@?$GAtemplate?5static?5data?5member?5des@ 220602bc     LIBCMTD:undname.obj
 0002:0000c2ec       ??_C@_0DB@ILEFOCIJ@?$GAtemplate?5static?5data?5member?5con@ 220602ec     LIBCMTD:undname.obj
 0002:0000c320       ??_C@_0CB@KJDOOODE@?$GAlocal?5static?5destructor?5helper?8@ 22060320     LIBCMTD:undname.obj
 0002:0000c344       ??_C@_0L@HNGCOGAE@?$GAadjustor?$HL?$AA@ 22060344     LIBCMTD:undname.obj
 0002:0000c350       ??_C@_0L@GHPFDFH@?$GAvtordisp?$HL?$AA@ 22060350     LIBCMTD:undname.obj
 0002:0000c35c       ??_C@_0N@CBHHHENL@?$GAvtordispex?$HL?$AA@ 2206035c     LIBCMTD:undname.obj
 0002:0000c36c       ??_C@_01CLKCMJKC@?5?$AA@   2206036c     LIBCMTD:undname.obj
 0002:0000c370       ??_C@_02IGFCGPIL@?$HN?8?$AA@ 22060370     LIBCMTD:undname.obj
 0002:0000c374       ??_C@_03OPGICMGF@?$HN?8?5?$AA@ 22060374     LIBCMTD:undname.obj
 0002:0000c378       ??_C@_02KCKGHPCA@?$CJ?5?$AA@ 22060378     LIBCMTD:undname.obj
 0002:0000c37c       ??_C@_05BEFAKPML@void?5?$AA@ 2206037c     LIBCMTD:undname.obj
 0002:0000c384       ??_C@_0P@GCOCNKDM@std?3?3nullptr_t?$AA@ 22060384     LIBCMTD:undname.obj
 0002:0000c394       ??_C@_08PABEKFH@volatile?$AA@ 22060394     LIBCMTD:undname.obj
 0002:0000c3a0       ??_C@_0M@ELJOJFFH@?0?$DMellipsis?$DO?$AA@ 220603a0     LIBCMTD:undname.obj
 0002:0000c3ac       ??_C@_04EENFHACM@?0?4?4?4?$AA@ 220603ac     LIBCMTD:undname.obj
 0002:0000c3b4       ??_C@_0L@EGPHHEKN@?$DMellipsis?$DO?$AA@ 220603b4     LIBCMTD:undname.obj
 0002:0000c3c0       ??_C@_03KHICJKCI@?4?4?4?$AA@ 220603c0     LIBCMTD:undname.obj
 0002:0000c3c4       ??_C@_07HDJPLPEK@?5throw?$CI?$AA@ 220603c4     LIBCMTD:undname.obj
 0002:0000c3cc       ??_C@_09EFNPDFFP@?5volatile?$AA@ 220603cc     LIBCMTD:undname.obj
 0002:0000c3d8       ??_C@_05BNCCCJPP@const?$AA@ 220603d8     LIBCMTD:undname.obj
 0002:0000c3e0       ??_C@_07EDHNAJHC@signed?5?$AA@ 220603e0     LIBCMTD:undname.obj
 0002:0000c3e8       ??_C@_09EBBEKKIH@unsigned?5?$AA@ 220603e8     LIBCMTD:undname.obj
 0002:0000c3f4       ??_C@_07NFANNNEC@UNKNOWN?$AA@ 220603f4     LIBCMTD:undname.obj
 0002:0000c3fc       ??_C@_06GCICPBLB@__w64?5?$AA@ 220603fc     LIBCMTD:undname.obj
 0002:0000c404       ??_C@_07CLGGIAMF@wchar_t?$AA@ 22060404     LIBCMTD:undname.obj
 0002:0000c40c       ??_C@_09EEKGDCPH@?$DMunknown?$DO?$AA@ 2206040c     LIBCMTD:undname.obj
 0002:0000c418       ??_C@_08GAHOLHEO@__int128?$AA@ 22060418     LIBCMTD:undname.obj
 0002:0000c424       ??_C@_07LFCOJCAC@__int64?$AA@ 22060424     LIBCMTD:undname.obj
 0002:0000c42c       ??_C@_07OFLPPHGP@__int32?$AA@ 2206042c     LIBCMTD:undname.obj
 0002:0000c434       ??_C@_07ICFHOGAF@__int16?$AA@ 22060434     LIBCMTD:undname.obj
 0002:0000c43c       ??_C@_06EBGKOKIG@__int8?$AA@ 2206043c     LIBCMTD:undname.obj
 0002:0000c444       ??_C@_04DDKJGDCM@bool?$AA@ 22060444     LIBCMTD:undname.obj
 0002:0000c44c       ??_C@_06BNJCAIGJ@double?$AA@ 2206044c     LIBCMTD:undname.obj
 0002:0000c454       ??_C@_05CJIMAING@long?5?$AA@ 22060454     LIBCMTD:undname.obj
 0002:0000c45c       ??_C@_05KNFBNCOH@float?$AA@ 2206045c     LIBCMTD:undname.obj
 0002:0000c464       ??_C@_04GOKPGOLB@long?$AA@ 22060464     LIBCMTD:undname.obj
 0002:0000c46c       ??_C@_03JBIPMCLC@int?$AA@  2206046c     LIBCMTD:undname.obj
 0002:0000c470       ??_C@_05BFKKPKCG@short?$AA@ 22060470     LIBCMTD:undname.obj
 0002:0000c478       ??_C@_04ENMBGAPA@char?$AA@ 22060478     LIBCMTD:undname.obj
 0002:0000c480       ??_C@_05LJGMCFOG@enum?5?$AA@ 22060480     LIBCMTD:undname.obj
 0002:0000c488       ??_C@_0N@DLIEFKNA@cointerface?5?$AA@ 22060488     LIBCMTD:undname.obj
 0002:0000c498       ??_C@_08KOFANOFK@coclass?5?$AA@ 22060498     LIBCMTD:undname.obj
 0002:0000c4a4       ??_C@_06LJBABKPM@class?5?$AA@ 220604a4     LIBCMTD:undname.obj
 0002:0000c4ac       ??_C@_07DIBCDNGL@struct?5?$AA@ 220604ac     LIBCMTD:undname.obj
 0002:0000c4b4       ??_C@_06MOJHIBMG@union?5?$AA@ 220604b4     LIBCMTD:undname.obj
 0002:0000c4bc       ??_C@_0P@GCIFDJCJ@?$GAunknown?5ecsu?8?$AA@ 220604bc     LIBCMTD:undname.obj
 0002:0000c4cc       ??_C@_04LAHKHJMA@int?5?$AA@ 220604cc     LIBCMTD:undname.obj
 0002:0000c4d4       ??_C@_06EHJMALKF@short?5?$AA@ 220604d4     LIBCMTD:undname.obj
 0002:0000c4dc       ??_C@_05CIHEBHNO@char?5?$AA@ 220604dc     LIBCMTD:undname.obj
 0002:0000c4e4       ??_C@_06LIJLOJAG@const?5?$AA@ 220604e4     LIBCMTD:undname.obj
 0002:0000c4ec       ??_C@_09GAIEOBLP@volatile?5?$AA@ 220604ec     LIBCMTD:undname.obj
 0002:0000c4f8       ??_C@_0O@GKABPPIF@cli?3?3pin_ptr?$DM?$AA@ 220604f8     LIBCMTD:undname.obj
 0002:0000c508       ??_C@_0M@EALIELKG@cli?3?3array?$DM?$AA@ 22060508     LIBCMTD:undname.obj
 0002:0000c514       ??_C@_02GOGNNPBN@?$CJ?$FL?$AA@ 22060514     LIBCMTD:undname.obj
 0002:0000c518       ??_C@_06EEGAIFAK@?$HLflat?$HN?$AA@ 22060518     LIBCMTD:undname.obj
 0002:0000c520       ??_C@_02MDINNEEG@s?5?$AA@  22060520     LIBCMTD:undname.obj
 0002:0000c524       ??_C@_05JIBOFOHK@?$HLfor?5?$AA@ 22060524     LIBCMTD:undname.obj
 0002:0000c52c       ??_7DNameNode@@6B@         2206052c     LIBCMTD:undname.obj
 0002:0000c538       ??_7charNode@@6B@          22060538     LIBCMTD:undname.obj
 0002:0000c544       ??_7pcharNode@@6B@         22060544     LIBCMTD:undname.obj
 0002:0000c550       ??_7pDNameNode@@6B@        22060550     LIBCMTD:undname.obj
 0002:0000c55c       ??_7DNameStatusNode@@6B@   2206055c     LIBCMTD:undname.obj
 0002:0000c568       ??_C@_04OKOHEJBO@?5?$DP?$DP?5?$AA@ 22060568     LIBCMTD:undname.obj
 0002:0000c570       ??_7pairNode@@6B@          22060570     LIBCMTD:undname.obj
 0002:0000c5a0       ??_7exception@std@@6B@     220605a0     LIBCMTD:stdexcpt.obj
 0002:0000c5a8       ??_C@_0BC@EOODALEL@Unknown?5exception?$AA@ 220605a8     LIBCMTD:stdexcpt.obj
 0002:0000c5c0       ??_7bad_cast@std@@6B@      220605c0     LIBCMTD:stdexcpt.obj
 0002:0000c5cc       ??_7bad_typeid@std@@6B@    220605cc     LIBCMTD:stdexcpt.obj
 0002:0000c5d8       ??_7__non_rtti_object@std@@6B@ 220605d8     LIBCMTD:stdexcpt.obj
 0002:0000c5e0       ??_C@_1GE@HMAALBPJ@?$AAf?$AA?3?$AA?2?$AAd?$AAd?$AA?2?$AAv?$AAc?$AAt?$AAo?$AAo?$AAl?$AAs?$AA?2?$AAc?$AAr?$AAt?$AA_?$AAb?$AAl?$AAd?$AA?2?$AAs?$AAe?$AAl?$AAf?$AA_?$AAx?$AA8?$AA6?$AA?2?$AAc@ 220605e0     LIBCMTD:localref.obj
 0002:0000c648       ??_C@_1BKC@GGIENNAK@?$AA?$CI?$AA?$CI?$AAp?$AAt?$AAl?$AAo?$AAc?$AAi?$AA?9?$AA?$DO?$AAl?$AAc?$AA_?$AAc?$AAa?$AAt?$AAe?$AAg?$AAo?$AAr?$AAy?$AA?$FL?$AAc?$AAa?$AAt?$AAe?$AAg?$AAo?$AAr?$AAy?$AA?$FN?$AA?4@ 22060648     LIBCMTD:localref.obj
 0002:0000c7ec       ??_C@_1BC@GDGBMEMK@?$AAH?$AAH?$AA?3?$AAm?$AAm?$AA?3?$AAs?$AAs?$AA?$AA@ 220607ec     LIBCMTD:nlsdata2.obj
 0002:0000c800       ??_C@_1CI@KNAKOEBC@?$AAd?$AAd?$AAd?$AAd?$AA?0?$AA?5?$AAM?$AAM?$AAM?$AAM?$AA?5?$AAd?$AAd?$AA?0?$AA?5?$AAy?$AAy?$AAy?$AAy?$AA?$AA@ 22060800     LIBCMTD:nlsdata2.obj
 0002:0000c828       ??_C@_1BC@IEBCMHCM@?$AAM?$AAM?$AA?1?$AAd?$AAd?$AA?1?$AAy?$AAy?$AA?$AA@ 22060828     LIBCMTD:nlsdata2.obj
 0002:0000c83c       ??_C@_15CLMNNGEL@?$AAP?$AAM?$AA?$AA@ 2206083c     LIBCMTD:nlsdata2.obj
 0002:0000c844       ??_C@_15ODEHAHHF@?$AAA?$AAM?$AA?$AA@ 22060844     LIBCMTD:nlsdata2.obj
 0002:0000c84c       ??_C@_1BC@FEMKIFH@?$AAD?$AAe?$AAc?$AAe?$AAm?$AAb?$AAe?$AAr?$AA?$AA@ 2206084c     LIBCMTD:nlsdata2.obj
 0002:0000c860       ??_C@_1BC@BGLIFPF@?$AAN?$AAo?$AAv?$AAe?$AAm?$AAb?$AAe?$AAr?$AA?$AA@ 22060860     LIBCMTD:nlsdata2.obj
 0002:0000c874       ??_C@_1BA@EPANDLNG@?$AAO?$AAc?$AAt?$AAo?$AAb?$AAe?$AAr?$AA?$AA@ 22060874     LIBCMTD:nlsdata2.obj
 0002:0000c884       ??_C@_1BE@DKAAMBJL@?$AAS?$AAe?$AAp?$AAt?$AAe?$AAm?$AAb?$AAe?$AAr?$AA?$AA@ 22060884     LIBCMTD:nlsdata2.obj
 0002:0000c898       ??_C@_1O@PAHLKOAC@?$AAA?$AAu?$AAg?$AAu?$AAs?$AAt?$AA?$AA@ 22060898     LIBCMTD:nlsdata2.obj
 0002:0000c8a8       ??_C@_19BIFMLPCD@?$AAJ?$AAu?$AAl?$AAy?$AA?$AA@ 220608a8     LIBCMTD:nlsdata2.obj
 0002:0000c8b4       ??_C@_19EPFLPGAP@?$AAJ?$AAu?$AAn?$AAe?$AA?$AA@ 220608b4     LIBCMTD:nlsdata2.obj
 0002:0000c8c0       ??_C@_1M@GJNLMHFD@?$AAA?$AAp?$AAr?$AAi?$AAl?$AA?$AA@ 220608c0     LIBCMTD:nlsdata2.obj
 0002:0000c8cc       ??_C@_1M@IKEENEDF@?$AAM?$AAa?$AAr?$AAc?$AAh?$AA?$AA@ 220608cc     LIBCMTD:nlsdata2.obj
 0002:0000c8d8       ??_C@_1BC@JGDDFFAM@?$AAF?$AAe?$AAb?$AAr?$AAu?$AAa?$AAr?$AAy?$AA?$AA@ 220608d8     LIBCMTD:nlsdata2.obj
 0002:0000c8ec       ??_C@_1BA@EFMEIEBA@?$AAJ?$AAa?$AAn?$AAu?$AAa?$AAr?$AAy?$AA?$AA@ 220608ec     LIBCMTD:nlsdata2.obj
 0002:0000c8fc       ??_C@_17EGKACKIF@?$AAD?$AAe?$AAc?$AA?$AA@ 220608fc     LIBCMTD:nlsdata2.obj
 0002:0000c904       ??_C@_17BBDMLCIG@?$AAN?$AAo?$AAv?$AA?$AA@ 22060904     LIBCMTD:nlsdata2.obj
 0002:0000c90c       ??_C@_17FNLKOI@?$AAO?$AAc?$AAt?$AA?$AA@ 2206090c     LIBCMTD:nlsdata2.obj
 0002:0000c914       ??_C@_17HCHCOKMG@?$AAS?$AAe?$AAp?$AA?$AA@ 22060914     LIBCMTD:nlsdata2.obj
 0002:0000c91c       ??_C@_17ICPELBCN@?$AAA?$AAu?$AAg?$AA?$AA@ 2206091c     LIBCMTD:nlsdata2.obj
 0002:0000c924       ??_C@_17IJPCKHK@?$AAJ?$AAu?$AAl?$AA?$AA@ 22060924     LIBCMTD:nlsdata2.obj
 0002:0000c92c       ??_C@_17KCJGOCPB@?$AAJ?$AAu?$AAn?$AA?$AA@ 2206092c     LIBCMTD:nlsdata2.obj
 0002:0000c934       ??_C@_17PNNKMEED@?$AAM?$AAa?$AAy?$AA?$AA@ 22060934     LIBCMTD:nlsdata2.obj
 0002:0000c93c       ??_C@_17LFPOIHDD@?$AAA?$AAp?$AAr?$AA?$AA@ 2206093c     LIBCMTD:nlsdata2.obj
 0002:0000c944       ??_C@_17CKNLEDEC@?$AAM?$AAa?$AAr?$AA?$AA@ 22060944     LIBCMTD:nlsdata2.obj
 0002:0000c94c       ??_C@_17LMDJEKJN@?$AAF?$AAe?$AAb?$AA?$AA@ 2206094c     LIBCMTD:nlsdata2.obj
 0002:0000c954       ??_C@_17DKNBKCHM@?$AAJ?$AAa?$AAn?$AA?$AA@ 22060954     LIBCMTD:nlsdata2.obj
 0002:0000c95c       ??_C@_1BC@ENMNNPAJ@?$AAS?$AAa?$AAt?$AAu?$AAr?$AAd?$AAa?$AAy?$AA?$AA@ 2206095c     LIBCMTD:nlsdata2.obj
 0002:0000c970       ??_C@_1O@PDICJHAG@?$AAF?$AAr?$AAi?$AAd?$AAa?$AAy?$AA?$AA@ 22060970     LIBCMTD:nlsdata2.obj
 0002:0000c980       ??_C@_1BC@HHMNLIHE@?$AAT?$AAh?$AAu?$AAr?$AAs?$AAd?$AAa?$AAy?$AA?$AA@ 22060980     LIBCMTD:nlsdata2.obj
 0002:0000c994       ??_C@_1BE@EBOGMDOH@?$AAW?$AAe?$AAd?$AAn?$AAe?$AAs?$AAd?$AAa?$AAy?$AA?$AA@ 22060994     LIBCMTD:nlsdata2.obj
 0002:0000c9a8       ??_C@_1BA@ENFBFFEK@?$AAT?$AAu?$AAe?$AAs?$AAd?$AAa?$AAy?$AA?$AA@ 220609a8     LIBCMTD:nlsdata2.obj
 0002:0000c9b8       ??_C@_1O@MMNBFLIA@?$AAM?$AAo?$AAn?$AAd?$AAa?$AAy?$AA?$AA@ 220609b8     LIBCMTD:nlsdata2.obj
 0002:0000c9c8       ??_C@_1O@IHNHDHPB@?$AAS?$AAu?$AAn?$AAd?$AAa?$AAy?$AA?$AA@ 220609c8     LIBCMTD:nlsdata2.obj
 0002:0000c9d8       ??_C@_17GGIBDPIH@?$AAS?$AAa?$AAt?$AA?$AA@ 220609d8     LIBCMTD:nlsdata2.obj
 0002:0000c9e0       ??_C@_17HFOLPPLP@?$AAF?$AAr?$AAi?$AA?$AA@ 220609e0     LIBCMTD:nlsdata2.obj
 0002:0000c9e8       ??_C@_17PDPHAADD@?$AAT?$AAh?$AAu?$AA?$AA@ 220609e8     LIBCMTD:nlsdata2.obj
 0002:0000c9f0       ??_C@_17CJEDCEPE@?$AAW?$AAe?$AAd?$AA?$AA@ 220609f0     LIBCMTD:nlsdata2.obj
 0002:0000c9f8       ??_C@_17BMKGEGOJ@?$AAT?$AAu?$AAe?$AA?$AA@ 220609f8     LIBCMTD:nlsdata2.obj
 0002:0000ca00       ??_C@_17KBOMKBF@?$AAM?$AAo?$AAn?$AA?$AA@ 22060a00     LIBCMTD:nlsdata2.obj
 0002:0000ca08       ??_C@_17MBGCMIPB@?$AAS?$AAu?$AAn?$AA?$AA@ 22060a08     LIBCMTD:nlsdata2.obj
 0002:0000ca10       ??_C@_08JCCMCCIL@HH?3mm?3ss?$AA@ 22060a10     LIBCMTD:nlsdata2.obj
 0002:0000ca1c       ??_C@_0BE@CKGJFCPC@dddd?0?5MMMM?5dd?0?5yyyy?$AA@ 22060a1c     LIBCMTD:nlsdata2.obj
 0002:0000ca30       ??_C@_08BPBNCDIB@MM?1dd?1yy?$AA@ 22060a30     LIBCMTD:nlsdata2.obj
 0002:0000ca3c       ??_C@_02CJNFDJBF@PM?$AA@   22060a3c     LIBCMTD:nlsdata2.obj
 0002:0000ca40       ??_C@_02DEDBPAFC@AM?$AA@   22060a40     LIBCMTD:nlsdata2.obj
 0002:0000ca44       ??_C@_08EDHMEBNP@December?$AA@ 22060a44     LIBCMTD:nlsdata2.obj
 0002:0000ca50       ??_C@_08HCHEGEOA@November?$AA@ 22060a50     LIBCMTD:nlsdata2.obj
 0002:0000ca5c       ??_C@_07JJNFCEND@October?$AA@ 22060a5c     LIBCMTD:nlsdata2.obj
 0002:0000ca64       ??_C@_09BHHEALKD@September?$AA@ 22060a64     LIBCMTD:nlsdata2.obj
 0002:0000ca70       ??_C@_06LBBHFDDG@August?$AA@ 22060a70     LIBCMTD:nlsdata2.obj
 0002:0000ca78       ??_C@_04MIEPOIFP@July?$AA@ 22060a78     LIBCMTD:nlsdata2.obj
 0002:0000ca80       ??_C@_04CNLMGBGM@June?$AA@ 22060a80     LIBCMTD:nlsdata2.obj
 0002:0000ca88       ??_C@_05DMJDNLEJ@April?$AA@ 22060a88     LIBCMTD:nlsdata2.obj
 0002:0000ca90       ??_C@_05HPCKOFNC@March?$AA@ 22060a90     LIBCMTD:nlsdata2.obj
 0002:0000ca98       ??_C@_08GNJGEPFN@February?$AA@ 22060a98     LIBCMTD:nlsdata2.obj
 0002:0000caa4       ??_C@_07CGJPFGJA@January?$AA@ 22060aa4     LIBCMTD:nlsdata2.obj
 0002:0000caac       ??_C@_03MKABNOCG@Dec?$AA@  22060aac     LIBCMTD:nlsdata2.obj
 0002:0000cab0       ??_C@_03JPJOFNIA@Nov?$AA@  22060ab0     LIBCMTD:nlsdata2.obj
 0002:0000cab4       ??_C@_03BMAOKBAD@Oct?$AA@  22060ab4     LIBCMTD:nlsdata2.obj
 0002:0000cab8       ??_C@_03GGCAPAJC@Sep?$AA@  22060ab8     LIBCMTD:nlsdata2.obj
 0002:0000cabc       ??_C@_03IFJFEIGA@Aug?$AA@  22060abc     LIBCMTD:nlsdata2.obj
 0002:0000cac0       ??_C@_03LBGABGKK@Jul?$AA@  22060ac0     LIBCMTD:nlsdata2.obj
 0002:0000cac4       ??_C@_03IDFGHECI@Jun?$AA@  22060ac4     LIBCMTD:nlsdata2.obj
 0002:0000cac8       ??_C@_03CNMDKL@May?$AA@    22060ac8     LIBCMTD:nlsdata2.obj
 0002:0000cacc       ??_C@_03LEOLGMJP@Apr?$AA@  22060acc     LIBCMTD:nlsdata2.obj
 0002:0000cad0       ??_C@_03ODNJBKGA@Mar?$AA@  22060ad0     LIBCMTD:nlsdata2.obj
 0002:0000cad4       ??_C@_03HJBDCHOM@Feb?$AA@  22060ad4     LIBCMTD:nlsdata2.obj
 0002:0000cad8       ??_C@_03JIHJHPIE@Jan?$AA@  22060ad8     LIBCMTD:nlsdata2.obj
 0002:0000cadc       ??_C@_08INBOOONO@Saturday?$AA@ 22060adc     LIBCMTD:nlsdata2.obj
 0002:0000cae8       ??_C@_06JECMNKMI@Friday?$AA@ 22060ae8     LIBCMTD:nlsdata2.obj
 0002:0000caf0       ??_C@_08HACCIKIA@Thursday?$AA@ 22060af0     LIBCMTD:nlsdata2.obj
 0002:0000cafc       ??_C@_09DLIGFAKA@Wednesday?$AA@ 22060afc     LIBCMTD:nlsdata2.obj
 0002:0000cb08       ??_C@_07BAAGCFCM@Tuesday?$AA@ 22060b08     LIBCMTD:nlsdata2.obj
 0002:0000cb10       ??_C@_06JLEDEDGH@Monday?$AA@ 22060b10     LIBCMTD:nlsdata2.obj
 0002:0000cb18       ??_C@_06OOPIFAJ@Sunday?$AA@ 22060b18     LIBCMTD:nlsdata2.obj
 0002:0000cb20       ??_C@_03FEFJNEK@Sat?$AA@   22060b20     LIBCMTD:nlsdata2.obj
 0002:0000cb24       ??_C@_03IDIOELNC@Fri?$AA@  22060b24     LIBCMTD:nlsdata2.obj
 0002:0000cb28       ??_C@_03IOFIKPDN@Thu?$AA@  22060b28     LIBCMTD:nlsdata2.obj
 0002:0000cb2c       ??_C@_03MHOMLAJA@Wed?$AA@  22060b2c     LIBCMTD:nlsdata2.obj
 0002:0000cb30       ??_C@_03NAGEINEP@Tue?$AA@  22060b30     LIBCMTD:nlsdata2.obj
 0002:0000cb34       ??_C@_03PDAGKDH@Mon?$AA@   22060b34     LIBCMTD:nlsdata2.obj
 0002:0000cb38       ??_C@_03KOEHGMDN@Sun?$AA@  22060b38     LIBCMTD:nlsdata2.obj
 0002:0000cb3c       ??_C@_0DB@MHMEONEC@f?3?2dd?2vctools?2crt_bld?2self_x86?2c@ 22060b3c     LIBCMTD:mbctype.obj
 0002:0000cb70       ??_C@_1BG@KCMPBBDK@?$AA_?$AAg?$AAe?$AAt?$AA_?$AAe?$AAr?$AAr?$AAn?$AAo?$AA?$AA@ 22060b70     LIBCMTD:dosmap.obj
 0002:0000cb88       ??_C@_1GA@MFGIMPNL@?$AAf?$AA?3?$AA?2?$AAd?$AAd?$AA?2?$AAv?$AAc?$AAt?$AAo?$AAo?$AAl?$AAs?$AA?2?$AAc?$AAr?$AAt?$AA_?$AAb?$AAl?$AAd?$AA?2?$AAs?$AAe?$AAl?$AAf?$AA_?$AAx?$AA8?$AA6?$AA?2?$AAc@ 22060b88     LIBCMTD:dosmap.obj
 0002:0000cbe8       ??_C@_1BM@INIPHHDD@?$AA_?$AAg?$AAe?$AAt?$AA_?$AAd?$AAo?$AAs?$AAe?$AAr?$AAr?$AAn?$AAo?$AA?$AA@ 22060be8     LIBCMTD:dosmap.obj
 0002:0000cc08       ??_C@_1GG@CDHAPCGF@?$AAf?$AA?3?$AA?2?$AAd?$AAd?$AA?2?$AAv?$AAc?$AAt?$AAo?$AAo?$AAl?$AAs?$AA?2?$AAc?$AAr?$AAt?$AA_?$AAb?$AAl?$AAd?$AA?2?$AAs?$AAe?$AAl?$AAf?$AA_?$AAx?$AA8?$AA6?$AA?2?$AAc@ 22060c08     LIBCMTD:handler.obj
 0002:0000cc70       ??_C@_1BC@JLLICHIC@?$AAp?$AAn?$AAh?$AA?5?$AA?$DN?$AA?$DN?$AA?5?$AA0?$AA?$AA@ 22060c70     LIBCMTD:handler.obj
 0002:0000cc84       ??_C@_0BB@NAGLCMLI@Assertion?5Failed?$AA@ 22060c84     LIBCMTD:dbgrpt.obj
 0002:0000cc98       ??_C@_05NAOIJFC@Error?$AA@ 22060c98     LIBCMTD:dbgrpt.obj
 0002:0000cca0       ??_C@_07KGMMFLDN@Warning?$AA@ 22060ca0     LIBCMTD:dbgrpt.obj
 0002:0000ccb4       ??_C@_1CG@GNMJDMIO@?$AA_?$AAC?$AAr?$AAt?$AAS?$AAe?$AAt?$AAR?$AAe?$AAp?$AAo?$AAr?$AAt?$AAH?$AAo?$AAo?$AAk?$AA2?$AA?$AA@ 22060cb4     LIBCMTD:dbgrpt.obj
 0002:0000ccdc       ??_C@_0CD@EBCGLDDL@Microsoft?5Visual?5C?$CL?$CL?5Debug?5Libra@ 22060cdc     LIBCMTD:dbgrpt.obj
 0002:0000cd00       ??_C@_0CL@EACFGMNB@_CrtDbgReport?3?5String?5too?5long?5o@ 22060d00     LIBCMTD:dbgrpt.obj
 0002:0000cd30       ??_C@_1JG@CPKCIOEE@?$AAs?$AAt?$AAr?$AAc?$AAp?$AAy?$AA_?$AAs?$AA?$CI?$AAs?$AAz?$AAO?$AAu?$AAt?$AAM?$AAe?$AAs?$AAs?$AAa?$AAg?$AAe?$AA?0?$AA?5?$AA4?$AA0?$AA9?$AA6?$AA?0?$AA?5?$AA?$CC?$AA_?$AAC@ 22060d30     LIBCMTD:dbgrpt.obj
 0002:0000cdc8       ??_C@_0FF@CCONDJCB@Debug?5?$CFs?$CB?6?6Program?3?5?$CFs?$CFs?$CFs?$CFs?$CFs?$CFs@ 22060dc8     LIBCMTD:dbgrpt.obj
 0002:0000ce20       ??_C@_09OFBFHMBK@?6Module?3?5?$AA@ 22060e20     LIBCMTD:dbgrpt.obj
 0002:0000ce2c       ??_C@_07OPHPPLBG@?6File?3?5?$AA@ 22060e2c     LIBCMTD:dbgrpt.obj
 0002:0000ce34       ??_C@_07DBMPPHDI@?6Line?3?5?$AA@ 22060e34     LIBCMTD:dbgrpt.obj
 0002:0000ce3c       ??_C@_02PHMGELLB@?6?6?$AA@ 22060e3c     LIBCMTD:dbgrpt.obj
 0002:0000ce40       ??_C@_0N@MEECIJGN@Expression?3?5?$AA@ 22060e40     LIBCMTD:dbgrpt.obj
 0002:0000ce50       ??_C@_0HD@GNBNFCCL@?6?6For?5information?5on?5how?5your?5pr@ 22060e50     LIBCMTD:dbgrpt.obj
 0002:0000cec4       ??_C@_0BH@DNAGHKFM@?$DMprogram?5name?5unknown?$DO?$AA@ 22060ec4     LIBCMTD:dbgrpt.obj
 0002:0000cee0       ??_C@_1GG@DLDHOIGE@?$AAs?$AAt?$AAr?$AAc?$AAp?$AAy?$AA_?$AAs?$AA?$CI?$AAs?$AAz?$AAE?$AAx?$AAe?$AAN?$AAa?$AAm?$AAe?$AA?0?$AA?5?$AA2?$AA6?$AA0?$AA?0?$AA?5?$AA?$CC?$AA?$DM?$AAp?$AAr?$AAo?$AAg?$AAr@ 22060ee0     LIBCMTD:dbgrpt.obj
 0002:0000cf48       ??_C@_1CI@IDOKFLAJ@?$AA_?$AA_?$AAc?$AAr?$AAt?$AAM?$AAe?$AAs?$AAs?$AAa?$AAg?$AAe?$AAW?$AAi?$AAn?$AAd?$AAo?$AAw?$AAA?$AA?$AA@ 22060f48     LIBCMTD:dbgrpt.obj
 0002:0000cf70       ??_C@_1BK@JMCGJOCC@?$AA_?$AAe?$AAx?$AAp?$AAa?$AAn?$AAd?$AA_?$AAb?$AAa?$AAs?$AAe?$AA?$AA@ 22060f70     LIBCMTD:expand.obj
 0002:0000cf90       ??_C@_1GA@EBHFLDNH@?$AAf?$AA?3?$AA?2?$AAd?$AAd?$AA?2?$AAv?$AAc?$AAt?$AAo?$AAo?$AAl?$AAs?$AA?2?$AAc?$AAr?$AAt?$AA_?$AAb?$AAl?$AAd?$AA?2?$AAs?$AAe?$AAl?$AAf?$AA_?$AAx?$AA8?$AA6?$AA?2?$AAc@ 22060f90     LIBCMTD:expand.obj
 0002:0000cff0       ??_C@_1BO@KFIJIAEA@?$AAp?$AAB?$AAl?$AAo?$AAc?$AAk?$AA?5?$AA?$CB?$AA?$DN?$AA?5?$AAN?$AAU?$AAL?$AAL?$AA?$AA@ 22060ff0     LIBCMTD:expand.obj
 0002:0000d010       ??_C@_1CC@OLIJCKA@?$AA?$CI?$AAs?$AAt?$AAr?$AAi?$AAn?$AAg?$AA?5?$AA?$CB?$AA?$DN?$AA?5?$AAN?$AAU?$AAL?$AAL?$AA?$CJ?$AA?$AA@ 22061010     LIBCMTD:sprintf.obj
 0002:0000d034       ??_C@_1BA@KBJJGFFE@?$AAs?$AAp?$AAr?$AAi?$AAn?$AAt?$AAf?$AA?$AA@ 22061034     LIBCMTD:sprintf.obj
 0002:0000d048       ??_C@_1GC@BMNPEKNN@?$AAf?$AA?3?$AA?2?$AAd?$AAd?$AA?2?$AAv?$AAc?$AAt?$AAo?$AAo?$AAl?$AAs?$AA?2?$AAc?$AAr?$AAt?$AA_?$AAb?$AAl?$AAd?$AA?2?$AAs?$AAe?$AAl?$AAf?$AA_?$AAx?$AA8?$AA6?$AA?2?$AAc@ 22061048     LIBCMTD:sprintf.obj
 0002:0000d0ac       ??_C@_1CC@MGIEJOME@?$AA?$CI?$AAf?$AAo?$AAr?$AAm?$AAa?$AAt?$AA?5?$AA?$CB?$AA?$DN?$AA?5?$AAN?$AAU?$AAL?$AAL?$AA?$CJ?$AA?$AA@ 220610ac     LIBCMTD:sprintf.obj
 0002:0000d0d0       ??_C@_1GC@CHGJNMHG@?$AAf?$AA?3?$AA?2?$AAd?$AAd?$AA?2?$AAv?$AAc?$AAt?$AAo?$AAo?$AAl?$AAs?$AA?2?$AAc?$AAr?$AAt?$AA_?$AAb?$AAl?$AAd?$AA?2?$AAs?$AAe?$AAl?$AAf?$AA_?$AAx?$AA8?$AA6?$AA?2?$AAc@ 220610d0     LIBCMTD:isctype.obj
 0002:0000d134       ??_C@_1DC@BPLPALML@?$AA?$CI?$AAu?$AAn?$AAs?$AAi?$AAg?$AAn?$AAe?$AAd?$AA?$CJ?$AA?$CI?$AAc?$AA?5?$AA?$CL?$AA?5?$AA1?$AA?$CJ?$AA?5?$AA?$DM?$AA?$DN?$AA?5?$AA2?$AA5?$AA6?$AA?$AA@ 22061134     LIBCMTD:isctype.obj
 0002:0000d168       ??_C@_0DA@HMCPFNKN@f?3?2dd?2vctools?2crt_bld?2self_x86?2c@ 22061168     LIBCMTD:onexit.obj
 0002:0000d198       ??_C@_1BO@BKOMIGKJ@?$AAr?$AAu?$AAn?$AAt?$AAi?$AAm?$AAe?$AA?5?$AAe?$AAr?$AAr?$AAo?$AAr?$AA?5?$AA?$AA@ 22061198     LIBCMTD:crt0msg.obj
 0002:0000d1b8       ??_C@_15JNBOKNOG@?$AA?$AN?$AA?6?$AA?$AA@ 220611b8     LIBCMTD:crt0msg.obj
 0002:0000d1c0       ??_C@_1BM@JBBEPPHI@?$AAT?$AAL?$AAO?$AAS?$AAS?$AA?5?$AAe?$AAr?$AAr?$AAo?$AAr?$AA?$AN?$AA?6?$AA?$AA@ 220611c0     LIBCMTD:crt0msg.obj
 0002:0000d1dc       ??_C@_1BK@KMOMNAAI@?$AAS?$AAI?$AAN?$AAG?$AA?5?$AAe?$AAr?$AAr?$AAo?$AAr?$AA?$AN?$AA?6?$AA?$AA@ 220611dc     LIBCMTD:crt0msg.obj
 0002:0000d1f8       ??_C@_1BO@BFCDCGC@?$AAD?$AAO?$AAM?$AAA?$AAI?$AAN?$AA?5?$AAe?$AAr?$AAr?$AAo?$AAr?$AA?$AN?$AA?6?$AA?$AA@ 220611f8     LIBCMTD:crt0msg.obj
 0002:0000d218       ??_C@_1BOO@KGEDBGAJ@?$AAR?$AA6?$AA0?$AA3?$AA3?$AA?$AN?$AA?6?$AA?9?$AA?5?$AAA?$AAt?$AAt?$AAe?$AAm?$AAp?$AAt?$AA?5?$AAt?$AAo?$AA?5?$AAu?$AAs?$AAe?$AA?5?$AAM?$AAS?$AAI?$AAL?$AA?5?$AAc?$AAo?$AAd@ 22061218     LIBCMTD:crt0msg.obj
 0002:0000d408       ??_C@_1GG@GOPILAJP@?$AAR?$AA6?$AA0?$AA3?$AA2?$AA?$AN?$AA?6?$AA?9?$AA?5?$AAn?$AAo?$AAt?$AA?5?$AAe?$AAn?$AAo?$AAu?$AAg?$AAh?$AA?5?$AAs?$AAp?$AAa?$AAc?$AAe?$AA?5?$AAf?$AAo?$AAr?$AA?5?$AAl?$AAo@ 22061408     LIBCMTD:crt0msg.obj
 0002:0000d470       ??_C@_1MG@ENCOOIDF@?$AAR?$AA6?$AA0?$AA3?$AA1?$AA?$AN?$AA?6?$AA?9?$AA?5?$AAA?$AAt?$AAt?$AAe?$AAm?$AAp?$AAt?$AA?5?$AAt?$AAo?$AA?5?$AAi?$AAn?$AAi?$AAt?$AAi?$AAa?$AAl?$AAi?$AAz?$AAe?$AA?5?$AAt@ 22061470     LIBCMTD:crt0msg.obj
 0002:0000d538       ??_C@_1DO@BMFCDCD@?$AAR?$AA6?$AA0?$AA3?$AA0?$AA?$AN?$AA?6?$AA?9?$AA?5?$AAC?$AAR?$AAT?$AA?5?$AAn?$AAo?$AAt?$AA?5?$AAi?$AAn?$AAi?$AAt?$AAi?$AAa?$AAl?$AAi?$AAz?$AAe?$AAd?$AA?$AN?$AA?6?$AA?$AA@ 22061538     LIBCMTD:crt0msg.obj
 0002:0000d578       ??_C@_1EK@HHFLMAOL@?$AAR?$AA6?$AA0?$AA2?$AA8?$AA?$AN?$AA?6?$AA?9?$AA?5?$AAu?$AAn?$AAa?$AAb?$AAl?$AAe?$AA?5?$AAt?$AAo?$AA?5?$AAi?$AAn?$AAi?$AAt?$AAi?$AAa?$AAl?$AAi?$AAz?$AAe?$AA?5?$AAh?$AAe@ 22061578     LIBCMTD:crt0msg.obj
 0002:0000d5c8       ??_C@_1GK@MFGOKLAG@?$AAR?$AA6?$AA0?$AA2?$AA7?$AA?$AN?$AA?6?$AA?9?$AA?5?$AAn?$AAo?$AAt?$AA?5?$AAe?$AAn?$AAo?$AAu?$AAg?$AAh?$AA?5?$AAs?$AAp?$AAa?$AAc?$AAe?$AA?5?$AAf?$AAo?$AAr?$AA?5?$AAl?$AAo@ 220615c8     LIBCMTD:crt0msg.obj
 0002:0000d638       ??_C@_1GK@MCAAGJMO@?$AAR?$AA6?$AA0?$AA2?$AA6?$AA?$AN?$AA?6?$AA?9?$AA?5?$AAn?$AAo?$AAt?$AA?5?$AAe?$AAn?$AAo?$AAu?$AAg?$AAh?$AA?5?$AAs?$AAp?$AAa?$AAc?$AAe?$AA?5?$AAf?$AAo?$AAr?$AA?5?$AAs?$AAt@ 22061638     LIBCMTD:crt0msg.obj
 0002:0000d6a8       ??_C@_1EM@MAADIHMB@?$AAR?$AA6?$AA0?$AA2?$AA5?$AA?$AN?$AA?6?$AA?9?$AA?5?$AAp?$AAu?$AAr?$AAe?$AA?5?$AAv?$AAi?$AAr?$AAt?$AAu?$AAa?$AAl?$AA?5?$AAf?$AAu?$AAn?$AAc?$AAt?$AAi?$AAo?$AAn?$AA?5?$AAc@ 220616a8     LIBCMTD:crt0msg.obj
 0002:0000d6f8       ??_C@_1GK@FHCKBEFA@?$AAR?$AA6?$AA0?$AA2?$AA4?$AA?$AN?$AA?6?$AA?9?$AA?5?$AAn?$AAo?$AAt?$AA?5?$AAe?$AAn?$AAo?$AAu?$AAg?$AAh?$AA?5?$AAs?$AAp?$AAa?$AAc?$AAe?$AA?5?$AAf?$AAo?$AAr?$AA?5?$AA_?$AAo@ 220616f8     LIBCMTD:crt0msg.obj
 0002:0000d768       ??_C@_1FC@ECHBIFBC@?$AAR?$AA6?$AA0?$AA1?$AA9?$AA?$AN?$AA?6?$AA?9?$AA?5?$AAu?$AAn?$AAa?$AAb?$AAl?$AAe?$AA?5?$AAt?$AAo?$AA?5?$AAo?$AAp?$AAe?$AAn?$AA?5?$AAc?$AAo?$AAn?$AAs?$AAo?$AAl?$AAe?$AA?5@ 22061768     LIBCMTD:crt0msg.obj
 0002:0000d7c0       ??_C@_1EC@JIBHAOPH@?$AAR?$AA6?$AA0?$AA1?$AA8?$AA?$AN?$AA?6?$AA?9?$AA?5?$AAu?$AAn?$AAe?$AAx?$AAp?$AAe?$AAc?$AAt?$AAe?$AAd?$AA?5?$AAh?$AAe?$AAa?$AAp?$AA?5?$AAe?$AAr?$AAr?$AAo?$AAr?$AA?$AN?$AA?6@ 220617c0     LIBCMTD:crt0msg.obj
 0002:0000d808       ??_C@_1FK@BEOGODMC@?$AAR?$AA6?$AA0?$AA1?$AA7?$AA?$AN?$AA?6?$AA?9?$AA?5?$AAu?$AAn?$AAe?$AAx?$AAp?$AAe?$AAc?$AAt?$AAe?$AAd?$AA?5?$AAm?$AAu?$AAl?$AAt?$AAi?$AAt?$AAh?$AAr?$AAe?$AAa?$AAd?$AA?5@ 22061808     LIBCMTD:crt0msg.obj
 0002:0000d868       ??_C@_1FI@LOGNIKDM@?$AAR?$AA6?$AA0?$AA1?$AA6?$AA?$AN?$AA?6?$AA?9?$AA?5?$AAn?$AAo?$AAt?$AA?5?$AAe?$AAn?$AAo?$AAu?$AAg?$AAh?$AA?5?$AAs?$AAp?$AAa?$AAc?$AAe?$AA?5?$AAf?$AAo?$AAr?$AA?5?$AAt?$AAh@ 22061868     LIBCMTD:crt0msg.obj
 0002:0000d8c0       ??_C@_1EG@BEHAGFJD@?$AAR?$AA6?$AA0?$AA1?$AA0?$AA?$AN?$AA?6?$AA?9?$AA?5?$AAa?$AAb?$AAo?$AAr?$AAt?$AA?$CI?$AA?$CJ?$AA?5?$AAh?$AAa?$AAs?$AA?5?$AAb?$AAe?$AAe?$AAn?$AA?5?$AAc?$AAa?$AAl?$AAl?$AAe?$AAd@ 220618c0     LIBCMTD:crt0msg.obj
 0002:0000d908       ??_C@_1FI@HONFMGBI@?$AAR?$AA6?$AA0?$AA0?$AA9?$AA?$AN?$AA?6?$AA?9?$AA?5?$AAn?$AAo?$AAt?$AA?5?$AAe?$AAn?$AAo?$AAu?$AAg?$AAh?$AA?5?$AAs?$AAp?$AAa?$AAc?$AAe?$AA?5?$AAf?$AAo?$AAr?$AA?5?$AAe?$AAn@ 22061908     LIBCMTD:crt0msg.obj
 0002:0000d960       ??_C@_1FE@LLNEDJMD@?$AAR?$AA6?$AA0?$AA0?$AA8?$AA?$AN?$AA?6?$AA?9?$AA?5?$AAn?$AAo?$AAt?$AA?5?$AAe?$AAn?$AAo?$AAu?$AAg?$AAh?$AA?5?$AAs?$AAp?$AAa?$AAc?$AAe?$AA?5?$AAf?$AAo?$AAr?$AA?5?$AAa?$AAr@ 22061960     LIBCMTD:crt0msg.obj
 0002:0000d9b8       ??_C@_1FK@PGACCAFB@?$AAR?$AA6?$AA0?$AA0?$AA2?$AA?$AN?$AA?6?$AA?9?$AA?5?$AAf?$AAl?$AAo?$AAa?$AAt?$AAi?$AAn?$AAg?$AA?5?$AAp?$AAo?$AAi?$AAn?$AAt?$AA?5?$AAs?$AAu?$AAp?$AAp?$AAo?$AAr?$AAt?$AA?5@ 220619b8     LIBCMTD:crt0msg.obj
 0002:0000dac8       ??_C@_1EK@MBDPDCGA@?$AAM?$AAi?$AAc?$AAr?$AAo?$AAs?$AAo?$AAf?$AAt?$AA?5?$AAV?$AAi?$AAs?$AAu?$AAa?$AAl?$AA?5?$AAC?$AA?$CL?$AA?$CL?$AA?5?$AAR?$AAu?$AAn?$AAt?$AAi?$AAm?$AAe?$AA?5?$AAL?$AAi?$AAb@ 22061ac8     LIBCMTD:crt0msg.obj
 0002:0000db18       ??_C@_1IG@NMONDPP@?$AAw?$AAc?$AAs?$AAc?$AAa?$AAt?$AA_?$AAs?$AA?$CI?$AAo?$AAu?$AAt?$AAm?$AAs?$AAg?$AA?0?$AA?5?$AA?$CI?$AAs?$AAi?$AAz?$AAe?$AAo?$AAf?$AA?$CI?$AAo?$AAu?$AAt?$AAm?$AAs?$AAg?$AA?$CJ@ 22061b18     LIBCMTD:crt0msg.obj
 0002:0000dba0       ??_C@_1IA@DCJGKHFO@?$AAw?$AAc?$AAs?$AAc?$AAa?$AAt?$AA_?$AAs?$AA?$CI?$AAo?$AAu?$AAt?$AAm?$AAs?$AAg?$AA?0?$AA?5?$AA?$CI?$AAs?$AAi?$AAz?$AAe?$AAo?$AAf?$AA?$CI?$AAo?$AAu?$AAt?$AAm?$AAs?$AAg?$AA?$CJ@ 22061ba0     LIBCMTD:crt0msg.obj
 0002:0000dc20       ??_C@_1HI@FLHKGEBE@?$AAw?$AAc?$AAs?$AAn?$AAc?$AAp?$AAy?$AA_?$AAs?$AA?$CI?$AAp?$AAc?$AAh?$AA?0?$AA?5?$AAp?$AAr?$AAo?$AAg?$AAn?$AAa?$AAm?$AAe?$AA_?$AAs?$AAi?$AAz?$AAe?$AA?5?$AA?9?$AA?5?$AA?$CI@ 22061c20     LIBCMTD:crt0msg.obj
 0002:0000dc98       ??_C@_1HK@FJJNAABO@?$AAw?$AAc?$AAs?$AAc?$AAp?$AAy?$AA_?$AAs?$AA?$CI?$AAp?$AAr?$AAo?$AAg?$AAn?$AAa?$AAm?$AAe?$AA?0?$AA?5?$AAp?$AAr?$AAo?$AAg?$AAn?$AAa?$AAm?$AAe?$AA_?$AAs?$AAi?$AAz?$AAe@ 22061c98     LIBCMTD:crt0msg.obj
 0002:0000dd14       ??_C@_1DE@JNGNBFGO@?$AAR?$AAu?$AAn?$AAt?$AAi?$AAm?$AAe?$AA?5?$AAE?$AAr?$AAr?$AAo?$AAr?$AA?$CB?$AA?6?$AA?6?$AAP?$AAr?$AAo?$AAg?$AAr?$AAa?$AAm?$AA?3?$AA?5?$AA?$AA@ 22061d14     LIBCMTD:crt0msg.obj
 0002:0000dd48       ??_C@_1KO@BKLCKNFL@?$AAw?$AAc?$AAs?$AAc?$AAp?$AAy?$AA_?$AAs?$AA?$CI?$AAo?$AAu?$AAt?$AAm?$AAs?$AAg?$AA?0?$AA?5?$AA?$CI?$AAs?$AAi?$AAz?$AAe?$AAo?$AAf?$AA?$CI?$AAo?$AAu?$AAt?$AAm?$AAs?$AAg?$AA?$CJ@ 22061d48     LIBCMTD:crt0msg.obj
 0002:0000ddf8       ??_C@_1BI@EAHMBMEC@?$AA_?$AAN?$AAM?$AAS?$AAG?$AA_?$AAW?$AAR?$AAI?$AAT?$AAE?$AA?$AA@ 22061df8     LIBCMTD:crt0msg.obj
 0002:0000de10       ??_C@_1GC@HKOJBOFF@?$AAf?$AA?3?$AA?2?$AAd?$AAd?$AA?2?$AAv?$AAc?$AAt?$AAo?$AAo?$AAl?$AAs?$AA?2?$AAc?$AAr?$AAt?$AA_?$AAb?$AAl?$AAd?$AA?2?$AAs?$AAe?$AAl?$AAf?$AA_?$AAx?$AA8?$AA6?$AA?2?$AAc@ 22061e10     LIBCMTD:crt0msg.obj
 0002:0000de74       ??_C@_1O@EJLDHPPL@?$AAs?$AAi?$AAg?$AAn?$AAa?$AAl?$AA?$AA@ 22061e74     LIBCMTD:winsig.obj
 0002:0000de88       ??_C@_1GA@DBECNFG@?$AAf?$AA?3?$AA?2?$AAd?$AAd?$AA?2?$AAv?$AAc?$AAt?$AAo?$AAo?$AAl?$AAs?$AA?2?$AAc?$AAr?$AAt?$AA_?$AAb?$AAl?$AAd?$AA?2?$AAs?$AAe?$AAl?$AAf?$AA_?$AAx?$AA8?$AA6?$AA?2?$AAc@ 22061e88     LIBCMTD:winsig.obj
 0002:0000dee8       ??_C@_1DO@MLNEDKGB@?$AA?$CI?$AA?$CC?$AAI?$AAn?$AAv?$AAa?$AAl?$AAi?$AAd?$AA?5?$AAs?$AAi?$AAg?$AAn?$AAa?$AAl?$AA?5?$AAo?$AAr?$AA?5?$AAe?$AAr?$AAr?$AAo?$AAr?$AA?$CC?$AA?0?$AA?5?$AA0?$AA?$CJ?$AA?$AA@ 22061ee8     LIBCMTD:winsig.obj
 0002:0000df28       ??_C@_0DA@ELJOOIJF@f?3?2dd?2vctools?2crt_bld?2self_x86?2c@ 22061f28     LIBCMTD:winsig.obj
 0002:0000df58       ??_C@_1M@DMJEIKHL@?$AAr?$AAa?$AAi?$AAs?$AAe?$AA?$AA@ 22061f58     LIBCMTD:winsig.obj
 0002:0000df64       ??_C@_0BC@JEAENNKH@SystemFunction036?$AA@ 22061f64     LIBCMTD:rand_s.obj
 0002:0000df78       ??_C@_1GA@EBEDGGGB@?$AA?$CI?$AA?$CC?$AAr?$AAa?$AAn?$AAd?$AA_?$AAs?$AA?5?$AAi?$AAs?$AA?5?$AAn?$AAo?$AAt?$AA?5?$AAa?$AAv?$AAa?$AAi?$AAl?$AAa?$AAb?$AAl?$AAe?$AA?5?$AAo?$AAn?$AA?5?$AAt?$AAh?$AAi@ 22061f78     LIBCMTD:rand_s.obj
 0002:0000dfd8       ??_C@_1BK@GAEMIDIL@?$AAA?$AAD?$AAV?$AAA?$AAP?$AAI?$AA3?$AA2?$AA?4?$AAD?$AAL?$AAL?$AA?$AA@ 22061fd8     LIBCMTD:rand_s.obj
 0002:0000dff4       ??_C@_1O@IJGPPOGF@?$AAr?$AAa?$AAn?$AAd?$AA_?$AAs?$AA?$AA@ 22061ff4     LIBCMTD:rand_s.obj
 0002:0000e008       ??_C@_1GA@HBGBBKCD@?$AAf?$AA?3?$AA?2?$AAd?$AAd?$AA?2?$AAv?$AAc?$AAt?$AAo?$AAo?$AAl?$AAs?$AA?2?$AAc?$AAr?$AAt?$AA_?$AAb?$AAl?$AAd?$AA?2?$AAs?$AAe?$AAl?$AAf?$AA_?$AAx?$AA8?$AA6?$AA?2?$AAc@ 22062008     LIBCMTD:rand_s.obj
 0002:0000e068       ??_C@_1CK@GFDNDKK@?$AA_?$AAR?$AAa?$AAn?$AAd?$AAo?$AAm?$AAV?$AAa?$AAl?$AAu?$AAe?$AA?5?$AA?$CB?$AA?$DN?$AA?5?$AAN?$AAU?$AAL?$AAL?$AA?$AA@ 22062068     LIBCMTD:rand_s.obj
 0002:0000e098       ??_C@_1GO@NGIGJNHH@?$AAs?$AAt?$AAr?$AAn?$AAc?$AAp?$AAy?$AA_?$AAs?$AA?$CI?$AA?$CK?$AAs?$AAt?$AAr?$AAa?$AAd?$AAd?$AAr?$AAe?$AAs?$AAs?$AA?0?$AA?5?$AAo?$AAu?$AAt?$AAs?$AAi?$AAz?$AAe?$AA?0?$AA?5@ 22062098     LIBCMTD:inithelp.obj
 0002:0000e108       ??_C@_1CA@KHHCPEI@?$AA_?$AA_?$AAg?$AAe?$AAt?$AAl?$AAo?$AAc?$AAa?$AAl?$AAe?$AAi?$AAn?$AAf?$AAo?$AA?$AA@ 22062108     LIBCMTD:inithelp.obj
 0002:0000e128       ??_C@_1GE@PLPIMDHG@?$AAf?$AA?3?$AA?2?$AAd?$AAd?$AA?2?$AAv?$AAc?$AAt?$AAo?$AAo?$AAl?$AAs?$AA?2?$AAc?$AAr?$AAt?$AA_?$AAb?$AAl?$AAd?$AA?2?$AAs?$AAe?$AAl?$AAf?$AA_?$AAx?$AA8?$AA6?$AA?2?$AAc@ 22062128     LIBCMTD:inithelp.obj
 0002:0000e18c       ??_C@_0DC@CFDMMFIG@f?3?2dd?2vctools?2crt_bld?2self_x86?2c@ 2206218c     LIBCMTD:inithelp.obj
 0002:0000e1c0       ??_C@_1NK@LOFHIHFC@?$AAf?$AAM?$AAo?$AAd?$AAe?$AA?5?$AA?$DN?$AA?$DN?$AA?5?$AA_?$AAC?$AAR?$AAT?$AAD?$AAB?$AAG?$AA_?$AAR?$AAE?$AAP?$AAO?$AAR?$AAT?$AA_?$AAM?$AAO?$AAD?$AAE?$AA?5?$AA?$HM?$AA?$HM?$AA?5@ 220621c0     LIBCMTD:dbgrptt.obj
 0002:0000e29c       ??_C@_1CE@FIHIECNJ@?$AA_?$AAC?$AAr?$AAt?$AAS?$AAe?$AAt?$AAR?$AAe?$AAp?$AAo?$AAr?$AAt?$AAM?$AAo?$AAd?$AAe?$AA?$AA@ 2206229c     LIBCMTD:dbgrptt.obj
 0002:0000e2c0       ??_C@_1GC@FIGJJMEN@?$AAf?$AA?3?$AA?2?$AAd?$AAd?$AA?2?$AAv?$AAc?$AAt?$AAo?$AAo?$AAl?$AAs?$AA?2?$AAc?$AAr?$AAt?$AA_?$AAb?$AAl?$AAd?$AA?2?$AAs?$AAe?$AAl?$AAf?$AA_?$AAx?$AA8?$AA6?$AA?2?$AAc@ 220622c0     LIBCMTD:dbgrptt.obj
 0002:0000e328       ??_C@_1FA@IFFFOLDJ@?$AAn?$AAR?$AAp?$AAt?$AAT?$AAy?$AAp?$AAe?$AA?5?$AA?$DO?$AA?$DN?$AA?5?$AA0?$AA?5?$AA?$CG?$AA?$CG?$AA?5?$AAn?$AAR?$AAp?$AAt?$AAT?$AAy?$AAp?$AAe?$AA?5?$AA?$DM?$AA?5?$AA_?$AAC?$AAR?$AAT@ 22062328     LIBCMTD:dbgrptt.obj
 0002:0000e378       ??_C@_1CE@IKKEDCME@?$AA_?$AAC?$AAr?$AAt?$AAS?$AAe?$AAt?$AAR?$AAe?$AAp?$AAo?$AAr?$AAt?$AAF?$AAi?$AAl?$AAe?$AA?$AA@ 22062378     LIBCMTD:dbgrptt.obj
 0002:0000e3a0       ??_C@_1HO@PJOFIKFE@?$AA_?$AAC?$AAr?$AAt?$AAD?$AAb?$AAg?$AAR?$AAe?$AAp?$AAo?$AAr?$AAt?$AA?3?$AA?5?$AAS?$AAt?$AAr?$AAi?$AAn?$AAg?$AA?5?$AAt?$AAo?$AAo?$AA?5?$AAl?$AAo?$AAn?$AAg?$AA?5?$AAo@ 220623a0     LIBCMTD:dbgrptt.obj
 0002:0000e420       ??_C@_1MC@IGEECMDB@?$AAw?$AAc?$AAs?$AAc?$AAp?$AAy?$AA_?$AAs?$AA?$CI?$AAs?$AAz?$AAO?$AAu?$AAt?$AAM?$AAe?$AAs?$AAs?$AAa?$AAg?$AAe?$AA2?$AA?0?$AA?5?$AA4?$AA0?$AA9?$AA6?$AA?0?$AA?5?$AAL?$AA?$CC@ 22062420     LIBCMTD:dbgrptt.obj
 0002:0000e4e8       ??_C@_1IM@OOKIFKOH@?$AAe?$AA?5?$AA?$DN?$AA?5?$AAm?$AAb?$AAs?$AAt?$AAo?$AAw?$AAc?$AAs?$AA_?$AAs?$AA?$CI?$AA?$CG?$AAr?$AAe?$AAt?$AA?0?$AA?5?$AAs?$AAz?$AAO?$AAu?$AAt?$AAM?$AAe?$AAs?$AAs?$AAa?$AAg@ 220624e8     LIBCMTD:dbgrptt.obj
 0002:0000e578       ??_C@_1FI@IBIOIHEG@?$AAs?$AAt?$AAr?$AAc?$AAp?$AAy?$AA_?$AAs?$AA?$CI?$AAs?$AAz?$AAO?$AAu?$AAt?$AAM?$AAe?$AAs?$AAs?$AAa?$AAg?$AAe?$AA?0?$AA?5?$AA4?$AA0?$AA9?$AA6?$AA?0?$AA?5?$AAs?$AAz?$AAL@ 22062578     LIBCMTD:dbgrptt.obj
 0002:0000e5d0       ??_C@_0M@IPILFDFN@?$CFs?$CI?$CFd?$CJ?5?3?5?$CFs?$AA@ 220625d0     LIBCMTD:dbgrptt.obj
 0002:0000e5e0       ??_C@_1EI@LDHJEDO@?$AAs?$AAt?$AAr?$AAc?$AAa?$AAt?$AA_?$AAs?$AA?$CI?$AAs?$AAz?$AAL?$AAi?$AAn?$AAe?$AAM?$AAe?$AAs?$AAs?$AAa?$AAg?$AAe?$AA?0?$AA?5?$AA4?$AA0?$AA9?$AA6?$AA?0?$AA?5?$AA?$CC?$AA?2@ 220625e0     LIBCMTD:dbgrptt.obj
 0002:0000e628       ??_C@_01LIIJDEN@?$AN?$AA@  22062628     LIBCMTD:dbgrptt.obj
 0002:0000e630       ??_C@_1EI@CACDLAFK@?$AAs?$AAt?$AAr?$AAc?$AAa?$AAt?$AA_?$AAs?$AA?$CI?$AAs?$AAz?$AAL?$AAi?$AAn?$AAe?$AAM?$AAe?$AAs?$AAs?$AAa?$AAg?$AAe?$AA?0?$AA?5?$AA4?$AA0?$AA9?$AA6?$AA?0?$AA?5?$AA?$CC?$AA?2@ 22062630     LIBCMTD:dbgrptt.obj
 0002:0000e678       ??_C@_1FK@NPGBPOFO@?$AAs?$AAt?$AAr?$AAc?$AAa?$AAt?$AA_?$AAs?$AA?$CI?$AAs?$AAz?$AAL?$AAi?$AAn?$AAe?$AAM?$AAe?$AAs?$AAs?$AAa?$AAg?$AAe?$AA?0?$AA?5?$AA4?$AA0?$AA9?$AA6?$AA?0?$AA?5?$AAs?$AAz@ 22062678     LIBCMTD:dbgrptt.obj
 0002:0000e6d8       ??_C@_1KK@GIGAEDMO@?$AAs?$AAt?$AAr?$AAc?$AAp?$AAy?$AA_?$AAs?$AA?$CI?$AAs?$AAz?$AAL?$AAi?$AAn?$AAe?$AAM?$AAe?$AAs?$AAs?$AAa?$AAg?$AAe?$AA?0?$AA?5?$AA4?$AA0?$AA9?$AA6?$AA?0?$AA?5?$AAs?$AAz@ 220626d8     LIBCMTD:dbgrptt.obj
 0002:0000e784       ??_C@_0BC@LAIDCHCH@Assertion?5failed?$CB?$AA@ 22062784     LIBCMTD:dbgrptt.obj
 0002:0000e798       ??_C@_0BD@CAENFOHP@Assertion?5failed?3?5?$AA@ 22062798     LIBCMTD:dbgrptt.obj
 0002:0000e7b0       ??_C@_1JI@GAALPGBM@?$AAs?$AAt?$AAr?$AAc?$AAp?$AAy?$AA_?$AAs?$AA?$CI?$AAs?$AAz?$AAU?$AAs?$AAe?$AAr?$AAM?$AAe?$AAs?$AAs?$AAa?$AAg?$AAe?$AA?0?$AA?5?$AA4?$AA0?$AA9?$AA6?$AA?0?$AA?5?$AA?$CC?$AA_@ 220627b0     LIBCMTD:dbgrptt.obj
 0002:0000e848       ??_C@_01EEMJAFIK@?6?$AA@   22062848     LIBCMTD:dbgrptt.obj
 0002:0000e84c       ??_C@_07BHGABMGB@?0?5Line?5?$AA@ 2206284c     LIBCMTD:dbgrptt.obj
 0002:0000e854       ??_C@_0P@DFJNDPOP@?$DMfile?5unknown?$DO?$AA@ 22062854     LIBCMTD:dbgrptt.obj
 0002:0000e864       ??_C@_0CG@BNGLOCEO@Second?5Chance?5Assertion?5Failed?3?5@ 22062864     LIBCMTD:dbgrptt.obj
 0002:0000e890       ??_C@_1FA@JPHJBHEM@?$AA_?$AAi?$AAt?$AAo?$AAa?$AA_?$AAs?$AA?$CI?$AAn?$AAL?$AAi?$AAn?$AAe?$AA?0?$AA?5?$AAs?$AAz?$AAL?$AAi?$AAn?$AAe?$AAM?$AAe?$AAs?$AAs?$AAa?$AAg?$AAe?$AA?0?$AA?5?$AA4?$AA0@ 22062890     LIBCMTD:dbgrptt.obj
 0002:0000e8e0       ??_C@_1CA@KHJHLKA@?$AA_?$AAV?$AAC?$AAr?$AAt?$AAD?$AAb?$AAg?$AAR?$AAe?$AAp?$AAo?$AAr?$AAt?$AAA?$AA?$AA@ 220628e0     LIBCMTD:dbgrptt.obj
 0002:0000e900       ??_C@_1IE@CPGKIAGP@?$AAw?$AAc?$AAs?$AAt?$AAo?$AAm?$AAb?$AAs?$AA_?$AAs?$AA?$CI?$AA?$CG?$AAr?$AAe?$AAt?$AA?0?$AA?5?$AAs?$AAz?$AAa?$AAO?$AAu?$AAt?$AAM?$AAe?$AAs?$AAs?$AAa?$AAg?$AAe?$AA?0?$AA?5@ 22062900     LIBCMTD:dbgrptt.obj
 0002:0000e984       ??_C@_0DP@GNPEPHJD@_CrtDbgReport?3?5String?5too?5long?5o@ 22062984     LIBCMTD:dbgrptt.obj
 0002:0000e9c8       ??_C@_1MA@LBAMNNOB@?$AAs?$AAt?$AAr?$AAc?$AAp?$AAy?$AA_?$AAs?$AA?$CI?$AAs?$AAz?$AAO?$AAu?$AAt?$AAM?$AAe?$AAs?$AAs?$AAa?$AAg?$AAe?$AA2?$AA?0?$AA?5?$AA4?$AA0?$AA9?$AA6?$AA?0?$AA?5?$AA?$CC?$AA_@ 220629c8     LIBCMTD:dbgrptt.obj
 0002:0000ea88       ??_C@_1JC@EOAPFDLN@?$AAw?$AAc?$AAs?$AAt?$AAo?$AAm?$AAb?$AAs?$AA_?$AAs?$AA?$CI?$AA?$CI?$AA?$CI?$AAv?$AAo?$AAi?$AAd?$AA?5?$AA?$CK?$AA?$CJ?$AA0?$AA?$CJ?$AA?0?$AA?5?$AAs?$AAz?$AAO?$AAu?$AAt?$AAM?$AAe?$AAs@ 22062a88     LIBCMTD:dbgrptt.obj
 0002:0000eb20       ??_C@_1FI@DBAIJPJE@?$AAw?$AAc?$AAs?$AAc?$AAp?$AAy?$AA_?$AAs?$AA?$CI?$AAs?$AAz?$AAO?$AAu?$AAt?$AAM?$AAe?$AAs?$AAs?$AAa?$AAg?$AAe?$AA?0?$AA?5?$AA4?$AA0?$AA9?$AA6?$AA?0?$AA?5?$AAs?$AAz?$AAL@ 22062b20     LIBCMTD:dbgrptt.obj
 0002:0000eb78       ??_C@_1BI@JIDBEPIG@?$AA?$CF?$AAs?$AA?$CI?$AA?$CF?$AAd?$AA?$CJ?$AA?5?$AA?3?$AA?5?$AA?$CF?$AAs?$AA?$AA@ 22062b78     LIBCMTD:dbgrptt.obj
 0002:0000eb90       ??_C@_1EK@PHCBEDKB@?$AAw?$AAc?$AAs?$AAc?$AAa?$AAt?$AA_?$AAs?$AA?$CI?$AAs?$AAz?$AAL?$AAi?$AAn?$AAe?$AAM?$AAe?$AAs?$AAs?$AAa?$AAg?$AAe?$AA?0?$AA?5?$AA4?$AA0?$AA9?$AA6?$AA?0?$AA?5?$AAL?$AA?$CC@ 22062b90     LIBCMTD:dbgrptt.obj
 0002:0000ebdc       ??_C@_13CMNBPIDO@?$AA?$AN?$AA?$AA@ 22062bdc     LIBCMTD:dbgrptt.obj
 0002:0000ebe0       ??_C@_1EK@NMDFGHMF@?$AAw?$AAc?$AAs?$AAc?$AAa?$AAt?$AA_?$AAs?$AA?$CI?$AAs?$AAz?$AAL?$AAi?$AAn?$AAe?$AAM?$AAe?$AAs?$AAs?$AAa?$AAg?$AAe?$AA?0?$AA?5?$AA4?$AA0?$AA9?$AA6?$AA?0?$AA?5?$AAL?$AA?$CC@ 22062be0     LIBCMTD:dbgrptt.obj
 0002:0000ec30       ??_C@_1FK@HPADHBBD@?$AAw?$AAc?$AAs?$AAc?$AAa?$AAt?$AA_?$AAs?$AA?$CI?$AAs?$AAz?$AAL?$AAi?$AAn?$AAe?$AAM?$AAe?$AAs?$AAs?$AAa?$AAg?$AAe?$AA?0?$AA?5?$AA4?$AA0?$AA9?$AA6?$AA?0?$AA?5?$AAs?$AAz@ 22062c30     LIBCMTD:dbgrptt.obj
 0002:0000ec90       ??_C@_1KO@DGAHENCH@?$AAw?$AAc?$AAs?$AAc?$AAp?$AAy?$AA_?$AAs?$AA?$CI?$AAs?$AAz?$AAL?$AAi?$AAn?$AAe?$AAM?$AAe?$AAs?$AAs?$AAa?$AAg?$AAe?$AA?0?$AA?5?$AA4?$AA0?$AA9?$AA6?$AA?0?$AA?5?$AAs?$AAz@ 22062c90     LIBCMTD:dbgrptt.obj
 0002:0000ed40       ??_C@_1CE@OJBNHDMO@?$AAA?$AAs?$AAs?$AAe?$AAr?$AAt?$AAi?$AAo?$AAn?$AA?5?$AAf?$AAa?$AAi?$AAl?$AAe?$AAd?$AA?$CB?$AA?$AA@ 22062d40     LIBCMTD:dbgrptt.obj
 0002:0000ed64       ??_C@_1CG@FFFGGODN@?$AAA?$AAs?$AAs?$AAe?$AAr?$AAt?$AAi?$AAo?$AAn?$AA?5?$AAf?$AAa?$AAi?$AAl?$AAe?$AAd?$AA?3?$AA?5?$AA?$AA@ 22062d64     LIBCMTD:dbgrptt.obj
 0002:0000ed90       ??_C@_1JK@KHFABAEO@?$AAw?$AAc?$AAs?$AAc?$AAp?$AAy?$AA_?$AAs?$AA?$CI?$AAs?$AAz?$AAU?$AAs?$AAe?$AAr?$AAM?$AAe?$AAs?$AAs?$AAa?$AAg?$AAe?$AA?0?$AA?5?$AA4?$AA0?$AA9?$AA6?$AA?0?$AA?5?$AAL?$AA?$CC@ 22062d90     LIBCMTD:dbgrptt.obj
 0002:0000ee2c       ??_C@_13LBAGMAIH@?$AA?6?$AA?$AA@ 22062e2c     LIBCMTD:dbgrptt.obj
 0002:0000ee30       ??_C@_1BA@ELMMDCFC@?$AA?0?$AA?5?$AAL?$AAi?$AAn?$AAe?$AA?5?$AA?$AA@ 22062e30     LIBCMTD:dbgrptt.obj
 0002:0000ee40       ??_C@_1BO@OCHMLCAG@?$AA?$DM?$AAf?$AAi?$AAl?$AAe?$AA?5?$AAu?$AAn?$AAk?$AAn?$AAo?$AAw?$AAn?$AA?$DO?$AA?$AA@ 22062e40     LIBCMTD:dbgrptt.obj
 0002:0000ee60       ??_C@_1EM@MJFLEDMB@?$AAS?$AAe?$AAc?$AAo?$AAn?$AAd?$AA?5?$AAC?$AAh?$AAa?$AAn?$AAc?$AAe?$AA?5?$AAA?$AAs?$AAs?$AAe?$AAr?$AAt?$AAi?$AAo?$AAn?$AA?5?$AAF?$AAa?$AAi?$AAl?$AAe?$AAd?$AA?3?$AA?5@ 22062e60     LIBCMTD:dbgrptt.obj
 0002:0000eeb0       ??_C@_1FA@CNLLOMHI@?$AA_?$AAi?$AAt?$AAo?$AAw?$AA_?$AAs?$AA?$CI?$AAn?$AAL?$AAi?$AAn?$AAe?$AA?0?$AA?5?$AAs?$AAz?$AAL?$AAi?$AAn?$AAe?$AAM?$AAe?$AAs?$AAs?$AAa?$AAg?$AAe?$AA?0?$AA?5?$AA4?$AA0@ 22062eb0     LIBCMTD:dbgrptt.obj
 0002:0000ef00       ??_C@_1CA@HPALHDOD@?$AA_?$AAV?$AAC?$AAr?$AAt?$AAD?$AAb?$AAg?$AAR?$AAe?$AAp?$AAo?$AAr?$AAt?$AAW?$AA?$AA@ 22062f00     LIBCMTD:dbgrptt.obj
 0002:0000ef20       ??_C@_0BI@DFKBFLJE@GetProcessWindowStation?$AA@ 22062f20     LIBCMTD:crtmboxw.obj
 0002:0000ef38       ??_C@_0BK@DEKFELLI@GetUserObjectInformationW?$AA@ 22062f38     LIBCMTD:crtmboxw.obj
 0002:0000ef54       ??_C@_0BD@HHGDFDBJ@GetLastActivePopup?$AA@ 22062f54     LIBCMTD:crtmboxw.obj
 0002:0000ef68       ??_C@_0BA@HNOPNCHB@GetActiveWindow?$AA@ 22062f68     LIBCMTD:crtmboxw.obj
 0002:0000ef78       ??_C@_0M@DLDCCGNP@MessageBoxW?$AA@ 22062f78     LIBCMTD:crtmboxw.obj
 0002:0000ef84       ??_C@_1BG@GOEBHBDC@?$AAU?$AAS?$AAE?$AAR?$AA3?$AA2?$AA?4?$AAD?$AAL?$AAL?$AA?$AA@ 22062f84     LIBCMTD:crtmboxw.obj
 0002:0000ef9c       ??_C@_1BE@BMIJMLDD@?$AA_?$AAs?$AAw?$AAp?$AAr?$AAi?$AAn?$AAt?$AAf?$AA?$AA@ 22062f9c     LIBCMTD:swprintf.obj
 0002:0000efb0       ??_C@_1GE@DKGHLBLP@?$AAf?$AA?3?$AA?2?$AAd?$AAd?$AA?2?$AAv?$AAc?$AAt?$AAo?$AAo?$AAl?$AAs?$AA?2?$AAc?$AAr?$AAt?$AA_?$AAb?$AAl?$AAd?$AA?2?$AAs?$AAe?$AAl?$AAf?$AA_?$AAx?$AA8?$AA6?$AA?2?$AAc@ 22062fb0     LIBCMTD:swprintf.obj
 0002:0000f014       ??_C@_1CK@DDKKOLAN@?$AAs?$AAi?$AAz?$AAe?$AAI?$AAn?$AAB?$AAy?$AAt?$AAe?$AAs?$AA?5?$AA?$DO?$AA?$DN?$AA?5?$AAc?$AAo?$AAu?$AAn?$AAt?$AA?$AA@ 22063014     LIBCMTD:memcpy_s.obj
 0002:0000f040       ??_C@_1BI@DCHLDCPP@?$AAs?$AAr?$AAc?$AA?5?$AA?$CB?$AA?$DN?$AA?5?$AAN?$AAU?$AAL?$AAL?$AA?$AA@ 22063040     LIBCMTD:memcpy_s.obj
 0002:0000f058       ??_C@_1BC@GKHDJMGB@?$AAm?$AAe?$AAm?$AAc?$AAp?$AAy?$AA_?$AAs?$AA?$AA@ 22063058     LIBCMTD:memcpy_s.obj
 0002:0000f070       ??_C@_1GE@NEOPGGBM@?$AAf?$AA?3?$AA?2?$AAd?$AAd?$AA?2?$AAv?$AAc?$AAt?$AAo?$AAo?$AAl?$AAs?$AA?2?$AAc?$AAr?$AAt?$AA_?$AAb?$AAl?$AAd?$AA?2?$AAs?$AAe?$AAl?$AAf?$AA_?$AAx?$AA8?$AA6?$AA?2?$AAc@ 22063070     LIBCMTD:memcpy_s.obj
 0002:0000f0d4       ??_C@_1BI@GKKCBDMD@?$AAd?$AAs?$AAt?$AA?5?$AA?$CB?$AA?$DN?$AA?5?$AAN?$AAU?$AAL?$AAL?$AA?$AA@ 220630d4     LIBCMTD:memcpy_s.obj
 0002:0000f0ec       ??_C@_1BC@KIONAFPO@?$AAw?$AAc?$AAs?$AAc?$AAp?$AAy?$AA_?$AAs?$AA?$AA@ 220630ec     LIBCMTD:wcscpy_s.obj
 0002:0000f100       ??_C@_1FC@PFMLEHKI@?$AA?$CI?$AA?$CI?$AA_?$AAD?$AAs?$AAt?$AA?$CJ?$AA?$CJ?$AA?5?$AA?$CB?$AA?$DN?$AA?5?$AAN?$AAU?$AAL?$AAL?$AA?5?$AA?$CG?$AA?$CG?$AA?5?$AA?$CI?$AA?$CI?$AA_?$AAS?$AAi?$AAz?$AAe?$AAI?$AAn?$AAW?$AAo?$AAr@ 22063100     LIBCMTD:wcscpy_s.obj
 0002:0000f158       ??_C@_1GE@GJCMHHMH@?$AAf?$AA?3?$AA?2?$AAd?$AAd?$AA?2?$AAv?$AAc?$AAt?$AAo?$AAo?$AAl?$AAs?$AA?2?$AAc?$AAr?$AAt?$AA_?$AAb?$AAl?$AAd?$AA?2?$AAs?$AAe?$AAl?$AAf?$AA_?$AAx?$AA8?$AA6?$AA?2?$AAc@ 22063158     LIBCMTD:inittime.obj
 0002:0000f1c0       ??_C@_1EE@FDHCFDHN@?$AAp?$AAl?$AAo?$AAc?$AAi?$AA?9?$AA?$DO?$AAl?$AAc?$AA_?$AAt?$AAi?$AAm?$AAe?$AA_?$AAc?$AAu?$AAr?$AAr?$AA?9?$AA?$DO?$AAr?$AAe?$AAf?$AAc?$AAo?$AAu?$AAn?$AAt?$AA?5?$AA?$DO?$AA?5@ 220631c0     LIBCMTD:inittime.obj
 0002:0000f204       ??_C@_0DC@KICHHNFK@f?3?2dd?2vctools?2crt_bld?2self_x86?2c@ 22063204     LIBCMTD:inittime.obj
 0002:0000f238       ??_C@_1GC@EDJOCBCL@?$AAf?$AA?3?$AA?2?$AAd?$AAd?$AA?2?$AAv?$AAc?$AAt?$AAo?$AAo?$AAl?$AAs?$AA?2?$AAc?$AAr?$AAt?$AA_?$AAb?$AAl?$AAd?$AA?2?$AAs?$AAe?$AAl?$AAf?$AA_?$AAx?$AA8?$AA6?$AA?2?$AAc@ 22063238     LIBCMTD:initnum.obj
 0002:0000f29c       ??_C@_1DM@IFKAINNE@?$AAp?$AAl?$AAo?$AAc?$AAi?$AA?9?$AA?$DO?$AAl?$AAc?$AAo?$AAn?$AAv?$AA_?$AAn?$AAu?$AAm?$AA_?$AAr?$AAe?$AAf?$AAc?$AAo?$AAu?$AAn?$AAt?$AA?5?$AA?$DO?$AA?5?$AA0?$AA?$AA@ 2206329c     LIBCMTD:initnum.obj
 0002:0000f2d8       ??_C@_0DB@KKFMDHFI@f?3?2dd?2vctools?2crt_bld?2self_x86?2c@ 220632d8     LIBCMTD:initnum.obj
 0002:0000f310       ??_C@_1GC@IKADOFBJ@?$AAf?$AA?3?$AA?2?$AAd?$AAd?$AA?2?$AAv?$AAc?$AAt?$AAo?$AAo?$AAl?$AAs?$AA?2?$AAc?$AAr?$AAt?$AA_?$AAb?$AAl?$AAd?$AA?2?$AAs?$AAe?$AAl?$AAf?$AA_?$AAx?$AA8?$AA6?$AA?2?$AAc@ 22063310     LIBCMTD:initmon.obj
 0002:0000f374       ??_C@_1DM@GKAPAMDO@?$AAp?$AAl?$AAo?$AAc?$AAi?$AA?9?$AA?$DO?$AAl?$AAc?$AAo?$AAn?$AAv?$AA_?$AAm?$AAo?$AAn?$AA_?$AAr?$AAe?$AAf?$AAc?$AAo?$AAu?$AAn?$AAt?$AA?5?$AA?$DO?$AA?5?$AA0?$AA?$AA@ 22063374     LIBCMTD:initmon.obj
 0002:0000f3b0       ??_C@_0DB@BECNGFDL@f?3?2dd?2vctools?2crt_bld?2self_x86?2c@ 220633b0     LIBCMTD:initmon.obj
 0002:0000f3e8       ___newctype                220633e8     LIBCMTD:ctype.obj
 0002:0000f6e8       __wctype                   220636e8     LIBCMTD:ctype.obj
 0002:0000f8f0       ___newclmap                220638f0     LIBCMTD:ctype.obj
 0002:0000fa70       ___newcumap                22063a70     LIBCMTD:ctype.obj
 0002:0000fbf0       ??_C@_1GA@INJGGEBC@?$AAf?$AA?3?$AA?2?$AAd?$AAd?$AA?2?$AAv?$AAc?$AAt?$AAo?$AAo?$AAl?$AAs?$AA?2?$AAc?$AAr?$AAt?$AA_?$AAb?$AAl?$AAd?$AA?2?$AAs?$AAe?$AAl?$AAf?$AA_?$AAx?$AA8?$AA6?$AA?2?$AAc@ 22063bf0     LIBCMTD:a_map.obj
 0002:0000fc50       ??_C@_1FE@KNPCCODH@?$AA?$CI?$AA?$CC?$AAC?$AAo?$AAr?$AAr?$AAu?$AAp?$AAt?$AAe?$AAd?$AA?5?$AAp?$AAo?$AAi?$AAn?$AAt?$AAe?$AAr?$AA?5?$AAp?$AAa?$AAs?$AAs?$AAe?$AAd?$AA?5?$AAt?$AAo?$AA?5?$AA_?$AAf@ 22063c50     LIBCMTD:a_map.obj
 0002:0000fca4       ??_C@_0BK@CIDNPOGP@GetUserObjectInformationA?$AA@ 22063ca4     LIBCMTD:crtmbox.obj
 0002:0000fcc0       ??_C@_0M@CHKKJDAI@MessageBoxA?$AA@ 22063cc0     LIBCMTD:crtmbox.obj
 0002:0000fcd0       ??_C@_1HO@MLMGPAFH@?$AA?$CI?$AA?$CC?$AAi?$AAn?$AAc?$AAo?$AAn?$AAs?$AAi?$AAs?$AAt?$AAe?$AAn?$AAt?$AA?5?$AAI?$AAO?$AAB?$AA?5?$AAf?$AAi?$AAe?$AAl?$AAd?$AAs?$AA?$CC?$AA?0?$AA?5?$AAs?$AAt?$AAr?$AAe@ 22063cd0     LIBCMTD:_flsbuf.obj
 0002:0000fd50       ??_C@_1GC@GNCCMPNN@?$AAf?$AA?3?$AA?2?$AAd?$AAd?$AA?2?$AAv?$AAc?$AAt?$AAo?$AAo?$AAl?$AAs?$AA?2?$AAc?$AAr?$AAt?$AA_?$AAb?$AAl?$AAd?$AA?2?$AAs?$AAe?$AAl?$AAf?$AA_?$AAx?$AA8?$AA6?$AA?2?$AAc@ 22063d50     LIBCMTD:_flsbuf.obj
 0002:0000fdb4       ??_C@_1BI@MFCLPIBM@?$AAs?$AAt?$AAr?$AA?5?$AA?$CB?$AA?$DN?$AA?5?$AAN?$AAU?$AAL?$AAL?$AA?$AA@ 22063db4     LIBCMTD:_flsbuf.obj
 0002:0000fdcc       ??_C@_1O@CEDCILHN@?$AA?$CI?$AAn?$AAu?$AAl?$AAl?$AA?$CJ?$AA?$AA@ 22063dcc     LIBCMTD:output.obj
 0002:0000fddc       ??_C@_06OJHGLDPL@?$CInull?$CJ?$AA@ 22063ddc     LIBCMTD:output.obj
 0002:0000fde8       ___lookuptable             22063de8     LIBCMTD:output.obj
 0002:0000fe44       ??_C@_0DA@NFBEBPEE@f?3?2dd?2vctools?2crt_bld?2self_x86?2c@ 22063e44     LIBCMTD:output.obj
 0002:0000fe78       ??_C@_1EK@PNGFDECN@?$AA?$CI?$AA?$CC?$AA?8?$AAn?$AA?8?$AA?5?$AAf?$AAo?$AAr?$AAm?$AAa?$AAt?$AA?5?$AAs?$AAp?$AAe?$AAc?$AAi?$AAf?$AAi?$AAe?$AAr?$AA?5?$AAd?$AAi?$AAs?$AAa?$AAb?$AAl?$AAe?$AAd?$AA?$CC@ 22063e78     LIBCMTD:output.obj
 0002:0000fec4       ??_C@_1CC@IFFHEMNF@?$AA?$CI?$AAc?$AAh?$AA?5?$AA?$CB?$AA?$DN?$AA?5?$AA_?$AAT?$AA?$CI?$AA?8?$AA?2?$AA0?$AA?8?$AA?$CJ?$AA?$CJ?$AA?$AA@ 22063ec4     LIBCMTD:output.obj
 0002:0000fee8       ??_C@_1BAA@ODEGEDCK@?$AA?$CI?$AA?5?$AA?$CI?$AA_?$AAS?$AAt?$AAr?$AAe?$AAa?$AAm?$AA?9?$AA?$DO?$AA_?$AAf?$AAl?$AAa?$AAg?$AA?5?$AA?$CG?$AA?5?$AA_?$AAI?$AAO?$AAS?$AAT?$AAR?$AAG?$AA?$CJ?$AA?5?$AA?$HM?$AA?$HM?$AA?5@ 22063ee8     LIBCMTD:output.obj
 0002:0000ffe8       ??_C@_1BE@IONLIDNC@?$AA_?$AAo?$AAu?$AAt?$AAp?$AAu?$AAt?$AA_?$AAl?$AA?$AA@ 22063fe8     LIBCMTD:output.obj
 0002:00010000       ??_C@_1GA@HHFOFBLN@?$AAf?$AA?3?$AA?2?$AAd?$AAd?$AA?2?$AAv?$AAc?$AAt?$AAo?$AAo?$AAl?$AAs?$AA?2?$AAc?$AAr?$AAt?$AA_?$AAb?$AAl?$AAd?$AA?2?$AAs?$AAe?$AAl?$AAf?$AA_?$AAx?$AA8?$AA6?$AA?2?$AAc@ 22064000     LIBCMTD:output.obj
 0002:00010060       ??_C@_1CC@FADMNIL@?$AA?$CI?$AAs?$AAt?$AAr?$AAe?$AAa?$AAm?$AA?5?$AA?$CB?$AA?$DN?$AA?5?$AAN?$AAU?$AAL?$AAL?$AA?$CJ?$AA?$AA@ 22064060     LIBCMTD:output.obj
 0002:00010084       ??_C@_1BI@IGILPKD@?$AA_?$AAv?$AAs?$AAp?$AAr?$AAi?$AAn?$AAt?$AAf?$AA_?$AAl?$AA?$AA@ 22064084     LIBCMTD:vsprintf.obj
 0002:000100a0       ??_C@_1GE@DPADKNCG@?$AAf?$AA?3?$AA?2?$AAd?$AAd?$AA?2?$AAv?$AAc?$AAt?$AAo?$AAo?$AAl?$AAs?$AA?2?$AAc?$AAr?$AAt?$AA_?$AAb?$AAl?$AAd?$AA?2?$AAs?$AAe?$AAl?$AAf?$AA_?$AAx?$AA8?$AA6?$AA?2?$AAc@ 220640a0     LIBCMTD:vsprintf.obj
 0002:00010104       ??_C@_1CE@HMKDJHB@?$AA_?$AAv?$AAs?$AAc?$AAp?$AAr?$AAi?$AAn?$AAt?$AAf?$AA_?$AAh?$AAe?$AAl?$AAp?$AAe?$AAr?$AA?$AA@ 22064104     LIBCMTD:vsprintf.obj
 0002:00010128       ??_C@_1EC@FABAOFFO@?$AA?$CI?$AAc?$AAo?$AAu?$AAn?$AAt?$AA?5?$AA?$DN?$AA?$DN?$AA?5?$AA0?$AA?$CJ?$AA?5?$AA?$HM?$AA?$HM?$AA?5?$AA?$CI?$AAs?$AAt?$AAr?$AAi?$AAn?$AAg?$AA?5?$AA?$CB?$AA?$DN?$AA?5?$AAN?$AAU?$AAL?$AAL?$AA?$CJ@ 22064128     LIBCMTD:vsnprnc.obj
 0002:0001016c       ??_C@_1CE@PCFPEIFI@?$AA_?$AAv?$AAs?$AAn?$AAp?$AAr?$AAi?$AAn?$AAt?$AAf?$AA_?$AAh?$AAe?$AAl?$AAp?$AAe?$AAr?$AA?$AA@ 2206416c     LIBCMTD:vsnprnc.obj
 0002:00010190       ??_C@_1DA@HPBFKMEB@?$AA?$CI?$AA?$CC?$AAB?$AAu?$AAf?$AAf?$AAe?$AAr?$AA?5?$AAt?$AAo?$AAo?$AA?5?$AAs?$AAm?$AAa?$AAl?$AAl?$AA?$CC?$AA?0?$AA?5?$AA0?$AA?$CJ?$AA?$AA@ 22064190     LIBCMTD:vsnprnc.obj
 0002:000101c0       ??_C@_1EE@OKCKIGFK@?$AAs?$AAt?$AAr?$AAi?$AAn?$AAg?$AA?5?$AA?$CB?$AA?$DN?$AA?5?$AAN?$AAU?$AAL?$AAL?$AA?5?$AA?$CG?$AA?$CG?$AA?5?$AAs?$AAi?$AAz?$AAe?$AAI?$AAn?$AAB?$AAy?$AAt?$AAe?$AAs?$AA?5?$AA?$DO?$AA?5@ 220641c0     LIBCMTD:vsnprnc.obj
 0002:00010204       ??_C@_1BM@BLJALHEF@?$AA_?$AAv?$AAs?$AAp?$AAr?$AAi?$AAn?$AAt?$AAf?$AA_?$AAs?$AA_?$AAl?$AA?$AA@ 22064204     LIBCMTD:vsnprnc.obj
 0002:00010220       ??_C@_1BO@MLMCMBKN@?$AAf?$AAo?$AAr?$AAm?$AAa?$AAt?$AA?5?$AA?$CB?$AA?$DN?$AA?5?$AAN?$AAU?$AAL?$AAL?$AA?$AA@ 22064220     LIBCMTD:vsnprnc.obj
 0002:00010240       ??_C@_1BO@MMPELNIM@?$AA_?$AAv?$AAs?$AAn?$AAp?$AAr?$AAi?$AAn?$AAt?$AAf?$AA_?$AAs?$AA_?$AAl?$AA?$AA@ 22064240     LIBCMTD:vsnprnc.obj
 0002:00010260       ??_C@_07LCBHPJJN@LC_TIME?$AA@ 22064260     LIBCMTD:setlocal.obj
 0002:00010268       ??_C@_0L@DLHIECNL@LC_NUMERIC?$AA@ 22064268     LIBCMTD:setlocal.obj
 0002:00010274       ??_C@_0M@MIENIKLA@LC_MONETARY?$AA@ 22064274     LIBCMTD:setlocal.obj
 0002:00010280       ??_C@_08EADHIDAD@LC_CTYPE?$AA@ 22064280     LIBCMTD:setlocal.obj
 0002:0001028c       ??_C@_0L@KFJHEKIK@LC_COLLATE?$AA@ 2206428c     LIBCMTD:setlocal.obj
 0002:00010298       ??_C@_06NEFDFEKB@LC_ALL?$AA@ 22064298     LIBCMTD:setlocal.obj
 0002:000102a0       ___lc_category             220642a0     LIBCMTD:setlocal.obj
 0002:00010368       ??_C@_1CI@FGIONOJM@?$AA_?$AAc?$AAo?$AAn?$AAf?$AAi?$AAg?$AAt?$AAh?$AAr?$AAe?$AAa?$AAd?$AAl?$AAo?$AAc?$AAa?$AAl?$AAe?$AA?$AA@ 22064368     LIBCMTD:setlocal.obj
 0002:00010390       ??_C@_1GE@OLEIGPBJ@?$AAf?$AA?3?$AA?2?$AAd?$AAd?$AA?2?$AAv?$AAc?$AAt?$AAo?$AAo?$AAl?$AAs?$AA?2?$AAc?$AAr?$AAt?$AA_?$AAb?$AAl?$AAd?$AA?2?$AAs?$AAe?$AAl?$AAf?$AA_?$AAx?$AA8?$AA6?$AA?2?$AAc@ 22064390     LIBCMTD:setlocal.obj
 0002:000103f8       ??_C@_1GA@LDEGDKD@?$AA?$CI?$AA?$CC?$AAI?$AAn?$AAv?$AAa?$AAl?$AAi?$AAd?$AA?5?$AAp?$AAa?$AAr?$AAa?$AAm?$AAe?$AAt?$AAe?$AAr?$AA?5?$AAf?$AAo?$AAr?$AA?5?$AA_?$AAc?$AAo?$AAn?$AAf?$AAi?$AAg?$AAt@ 220643f8     LIBCMTD:setlocal.obj
 0002:00010458       ??_C@_0DC@JCPFNMID@f?3?2dd?2vctools?2crt_bld?2self_x86?2c@ 22064458     LIBCMTD:setlocal.obj
 0002:0001048c       ??_C@_1BE@DBJGBOJC@?$AAs?$AAe?$AAt?$AAl?$AAo?$AAc?$AAa?$AAl?$AAe?$AA?$AA@ 2206448c     LIBCMTD:setlocal.obj
 0002:000104a0       ??_C@_1FG@OHLFEKMC@?$AAL?$AAC?$AA_?$AAM?$AAI?$AAN?$AA?5?$AA?$DM?$AA?$DN?$AA?5?$AA_?$AAc?$AAa?$AAt?$AAe?$AAg?$AAo?$AAr?$AAy?$AA?5?$AA?$CG?$AA?$CG?$AA?5?$AA_?$AAc?$AAa?$AAt?$AAe?$AAg?$AAo?$AAr?$AAy@ 220644a0     LIBCMTD:setlocal.obj
 0002:000104f8       ??_C@_1IA@PFIKKKFB@?$AAs?$AAt?$AAr?$AAn?$AAc?$AAp?$AAy?$AA_?$AAs?$AA?$CI?$AAl?$AAc?$AAt?$AAe?$AAm?$AAp?$AA?0?$AA?5?$AA?$CI?$AAs?$AAi?$AAz?$AAe?$AAo?$AAf?$AA?$CI?$AAl?$AAc?$AAt?$AAe?$AAm?$AAp@ 220644f8     LIBCMTD:setlocal.obj
 0002:00010578       ??_C@_1CE@OFNHIOO@?$AA_?$AAs?$AAe?$AAt?$AAl?$AAo?$AAc?$AAa?$AAl?$AAe?$AA_?$AAn?$AAo?$AAl?$AAo?$AAc?$AAk?$AA?$AA@ 22064578     LIBCMTD:setlocal.obj
 0002:0001059c       ??_C@_01ICJEACDI@?$DL?$AA@ 2206459c     LIBCMTD:setlocal.obj
 0002:000105a0       ??_C@_02BALPLPBG@?$DN?$DL?$AA@ 220645a0     LIBCMTD:setlocal.obj
 0002:000105a8       ??_C@_1GO@JALHLJEH@?$AAs?$AAt?$AAr?$AAc?$AAp?$AAy?$AA_?$AAs?$AA?$CI?$AAp?$AAc?$AAh?$AA?5?$AA?$CL?$AA?5?$AAs?$AAi?$AAz?$AAe?$AAo?$AAf?$AA?$CI?$AAi?$AAn?$AAt?$AA?$CJ?$AA?0?$AA?5?$AAc?$AAc?$AAh?$AA?5@ 220645a8     LIBCMTD:setlocal.obj
 0002:00010618       ??_C@_1CG@IEFIICPK@?$AA_?$AAs?$AAe?$AAt?$AAl?$AAo?$AAc?$AAa?$AAl?$AAe?$AA_?$AAs?$AAe?$AAt?$AA_?$AAc?$AAa?$AAt?$AA?$AA@ 22064618     LIBCMTD:setlocal.obj
 0002:00010640       ??_C@_1DA@GDKKLCLM@?$AAs?$AAt?$AAr?$AAc?$AAa?$AAt?$AA_?$AAs?$AA?$CI?$AAp?$AAc?$AAh?$AA?0?$AA?5?$AAc?$AAc?$AAh?$AA?0?$AA?5?$AA?$CC?$AA?$DL?$AA?$CC?$AA?$CJ?$AA?$AA@ 22064640     LIBCMTD:setlocal.obj
 0002:00010670       ??_C@_1CG@NNFIJLDA@?$AA_?$AAs?$AAe?$AAt?$AAl?$AAo?$AAc?$AAa?$AAl?$AAe?$AA_?$AAg?$AAe?$AAt?$AA_?$AAa?$AAl?$AAl?$AA?$AA@ 22064670     LIBCMTD:setlocal.obj
 0002:00010698       ??_C@_1FA@MHAOOIBO@?$AAs?$AAt?$AAr?$AAc?$AAp?$AAy?$AA_?$AAs?$AA?$CI?$AAo?$AAu?$AAt?$AAp?$AAu?$AAt?$AA?0?$AA?5?$AAs?$AAi?$AAz?$AAe?$AAI?$AAn?$AAC?$AAh?$AAa?$AAr?$AAs?$AA?0?$AA?5?$AAc?$AAa@ 22064698     LIBCMTD:setlocal.obj
 0002:000106e8       ??_C@_1IA@ONNFOEDA@?$AAs?$AAt?$AAr?$AAn?$AAc?$AAp?$AAy?$AA_?$AAs?$AA?$CI?$AAc?$AAa?$AAc?$AAh?$AAe?$AAi?$AAn?$AA?0?$AA?5?$AAc?$AAa?$AAc?$AAh?$AAe?$AAi?$AAn?$AAS?$AAi?$AAz?$AAe?$AA?0?$AA?5@ 220646e8     LIBCMTD:setlocal.obj
 0002:00010768       ??_C@_01GFHCPBMG@C?$AA@    22064768     LIBCMTD:setlocal.obj
 0002:00010770       ??_C@_1EG@MOMHKOD@?$AAs?$AAt?$AAr?$AAc?$AAp?$AAy?$AA_?$AAs?$AA?$CI?$AAo?$AAu?$AAt?$AAp?$AAu?$AAt?$AA?0?$AA?5?$AAs?$AAi?$AAz?$AAe?$AAI?$AAn?$AAC?$AAh?$AAa?$AAr?$AAs?$AA?0?$AA?5?$AA?$CC?$AAC@ 22064770     LIBCMTD:setlocal.obj
 0002:000107b8       ??_C@_1BM@OIIBLEFG@?$AA_?$AAe?$AAx?$AAp?$AAa?$AAn?$AAd?$AAl?$AAo?$AAc?$AAa?$AAl?$AAe?$AA?$AA@ 220647b8     LIBCMTD:setlocal.obj
 0002:000107d8       ??_C@_1BGM@IJDLABMC@?$AAs?$AAt?$AAr?$AAc?$AAa?$AAt?$AA_?$AAs?$AA?$CI?$AAo?$AAu?$AAt?$AAs?$AAt?$AAr?$AA?0?$AA?5?$AAs?$AAi?$AAz?$AAe?$AAI?$AAn?$AAB?$AAy?$AAt?$AAe?$AAs?$AA?0?$AA?5?$AA?$CI?$AA?5@ 220647d8     LIBCMTD:setlocal.obj
 0002:00010944       ??_C@_1BC@PIABMDIP@?$AA_?$AAs?$AAt?$AAr?$AAc?$AAa?$AAt?$AAs?$AA?$AA@ 22064944     LIBCMTD:setlocal.obj
 0002:00010958       ??_C@_1MM@NOPMGFHF@?$AAs?$AAt?$AAr?$AAn?$AAc?$AAp?$AAy?$AA_?$AAs?$AA?$CI?$AAn?$AAa?$AAm?$AAe?$AAs?$AA?9?$AA?$DO?$AAs?$AAz?$AAC?$AAo?$AAd?$AAe?$AAP?$AAa?$AAg?$AAe?$AA?0?$AA?5?$AA?$CI?$AAs?$AAi@ 22064958     LIBCMTD:setlocal.obj
 0002:00010a28       ??_C@_1MG@PHNILIAG@?$AAs?$AAt?$AAr?$AAn?$AAc?$AAp?$AAy?$AA_?$AAs?$AA?$CI?$AAn?$AAa?$AAm?$AAe?$AAs?$AA?9?$AA?$DO?$AAs?$AAz?$AAC?$AAo?$AAu?$AAn?$AAt?$AAr?$AAy?$AA?0?$AA?5?$AA?$CI?$AAs?$AAi?$AAz@ 22064a28     LIBCMTD:setlocal.obj
 0002:00010af0       ??_C@_1MM@BFEECMAF@?$AAs?$AAt?$AAr?$AAn?$AAc?$AAp?$AAy?$AA_?$AAs?$AA?$CI?$AAn?$AAa?$AAm?$AAe?$AAs?$AA?9?$AA?$DO?$AAs?$AAz?$AAL?$AAa?$AAn?$AAg?$AAu?$AAa?$AAg?$AAe?$AA?0?$AA?5?$AA?$CI?$AAs?$AAi@ 22064af0     LIBCMTD:setlocal.obj
 0002:00010bbc       ??_C@_03EGDHDPFD@_?4?0?$AA@ 22064bbc     LIBCMTD:setlocal.obj
 0002:00010bc0       ??_C@_1NG@FMOPGKGG@?$AAs?$AAt?$AAr?$AAn?$AAc?$AAp?$AAy?$AA_?$AAs?$AA?$CI?$AAn?$AAa?$AAm?$AAe?$AAs?$AA?9?$AA?$DO?$AAs?$AAz?$AAC?$AAo?$AAd?$AAe?$AAP?$AAa?$AAg?$AAe?$AA?0?$AA?5?$AA?$CI?$AAs?$AAi@ 22064bc0     LIBCMTD:setlocal.obj
 0002:00010c98       ??_C@_1BK@CBMMLAGJ@?$AA_?$AA_?$AAl?$AAc?$AA_?$AAs?$AAt?$AAr?$AAt?$AAo?$AAl?$AAc?$AA?$AA@ 22064c98     LIBCMTD:setlocal.obj
 0002:00010cb4       ??_C@_01LFCBOECM@?4?$AA@   22064cb4     LIBCMTD:setlocal.obj
 0002:00010cb8       ??_C@_01IDAFKMJL@_?$AA@    22064cb8     LIBCMTD:setlocal.obj
 0002:00010cc0       ??_C@_1HC@IBDBLKCB@?$AAs?$AAt?$AAr?$AAc?$AAp?$AAy?$AA_?$AAs?$AA?$CI?$AAl?$AAo?$AAc?$AAa?$AAl?$AAe?$AA?0?$AA?5?$AAs?$AAi?$AAz?$AAe?$AAI?$AAn?$AAB?$AAy?$AAt?$AAe?$AAs?$AA?0?$AA?5?$AA?$CI?$AAc@ 22064cc0     LIBCMTD:setlocal.obj
 0002:00010d34       ??_C@_1BK@FGDJDEPG@?$AA_?$AA_?$AAl?$AAc?$AA_?$AAl?$AAc?$AAt?$AAo?$AAs?$AAt?$AAr?$AA?$AA@ 22064d34     LIBCMTD:setlocal.obj
 0002:00010d50       ??_C@_1CA@LFDHAMEM@?$AA_?$AAs?$AAe?$AAt?$AA_?$AAe?$AAr?$AAr?$AAo?$AAr?$AA_?$AAm?$AAo?$AAd?$AAe?$AA?$AA@ 22064d50     LIBCMTD:errmode.obj
 0002:00010d70       ??_C@_1GC@FGMGFCNB@?$AAf?$AA?3?$AA?2?$AAd?$AAd?$AA?2?$AAv?$AAc?$AAt?$AAo?$AAo?$AAl?$AAs?$AA?2?$AAc?$AAr?$AAt?$AA_?$AAb?$AAl?$AAd?$AA?2?$AAs?$AAe?$AAl?$AAf?$AA_?$AAx?$AA8?$AA6?$AA?2?$AAc@ 22064d70     LIBCMTD:errmode.obj
 0002:00010dd4       ??_C@_1DE@BCNCAIK@?$AA?$CI?$AA?$CC?$AAI?$AAn?$AAv?$AAa?$AAl?$AAi?$AAd?$AA?5?$AAe?$AAr?$AAr?$AAo?$AAr?$AA_?$AAm?$AAo?$AAd?$AAe?$AA?$CC?$AA?0?$AA?5?$AA0?$AA?$CJ?$AA?$AA@ 22064dd4     LIBCMTD:errmode.obj
 0002:00010e08       ??_C@_1FA@MJKDNFFB@?$AA?$CI?$AAL?$AA?$CC?$AAS?$AAt?$AAr?$AAi?$AAn?$AAg?$AA?5?$AAi?$AAs?$AA?5?$AAn?$AAo?$AAt?$AA?5?$AAn?$AAu?$AAl?$AAl?$AA?5?$AAt?$AAe?$AAr?$AAm?$AAi?$AAn?$AAa?$AAt?$AAe?$AAd@ 22064e08     LIBCMTD:wcscat_s.obj
 0002:00010e58       ??_C@_1DM@FHLMIEG@?$AAS?$AAt?$AAr?$AAi?$AAn?$AAg?$AA?5?$AAi?$AAs?$AA?5?$AAn?$AAo?$AAt?$AA?5?$AAn?$AAu?$AAl?$AAl?$AA?5?$AAt?$AAe?$AAr?$AAm?$AAi?$AAn?$AAa?$AAt?$AAe?$AAd?$AA?$AA@ 22064e58     LIBCMTD:wcscat_s.obj
 0002:00010e94       ??_C@_1BC@PLIEPKPJ@?$AAw?$AAc?$AAs?$AAc?$AAa?$AAt?$AA_?$AAs?$AA?$AA@ 22064e94     LIBCMTD:wcscat_s.obj
 0002:00010ea8       ??_C@_1GI@NOKGIAGA@?$AAf?$AA?3?$AA?2?$AAd?$AAd?$AA?2?$AAv?$AAc?$AAt?$AAo?$AAo?$AAl?$AAs?$AA?2?$AAc?$AAr?$AAt?$AA_?$AAb?$AAl?$AAd?$AA?2?$AAs?$AAe?$AAl?$AAf?$AA_?$AAx?$AA8?$AA6?$AA?2?$AAc@ 22064ea8     LIBCMTD:wcscat_s.obj
 0002:00010f10       ??_C@_1BE@PMMBFFCC@?$AAw?$AAc?$AAs?$AAn?$AAc?$AAp?$AAy?$AA_?$AAs?$AA?$AA@ 22064f10     LIBCMTD:wcsncpy_s.obj
 0002:00010f28       ??_C@_1GK@PAJJBKJF@?$AAf?$AA?3?$AA?2?$AAd?$AAd?$AA?2?$AAv?$AAc?$AAt?$AAo?$AAo?$AAl?$AAs?$AA?2?$AAc?$AAr?$AAt?$AA_?$AAb?$AAl?$AAd?$AA?2?$AAs?$AAe?$AAl?$AAf?$AA_?$AAx?$AA8?$AA6?$AA?2?$AAc@ 22064f28     LIBCMTD:wcsncpy_s.obj
 0002:00010f94       ??_C@_1BE@NDMJHJJG@?$AAs?$AAt?$AAr?$AAn?$AAc?$AAp?$AAy?$AA_?$AAs?$AA?$AA@ 22064f94     LIBCMTD:strncpy_s.obj
 0002:00010fa8       ??_C@_1CG@JEHFHLNG@?$AA_?$AAm?$AAb?$AAs?$AAt?$AAo?$AAw?$AAc?$AAs?$AA_?$AAl?$AA_?$AAh?$AAe?$AAl?$AAp?$AAe?$AAr?$AA?$AA@ 22064fa8     LIBCMTD:mbstowcs.obj
 0002:00010fd0       ??_C@_1GE@LCCDHBMH@?$AAf?$AA?3?$AA?2?$AAd?$AAd?$AA?2?$AAv?$AAc?$AAt?$AAo?$AAo?$AAl?$AAs?$AA?2?$AAc?$AAr?$AAt?$AA_?$AAb?$AAl?$AAd?$AA?2?$AAs?$AAe?$AAl?$AAf?$AA_?$AAx?$AA8?$AA6?$AA?2?$AAc@ 22064fd0     LIBCMTD:mbstowcs.obj
 0002:00011034       ??_C@_1BE@EEKACIGI@?$AAs?$AA?5?$AA?$CB?$AA?$DN?$AA?5?$AAN?$AAU?$AAL?$AAL?$AA?$AA@ 22065034     LIBCMTD:mbstowcs.obj
 0002:00011048       ??_C@_1CO@JNPEPJAL@?$AAr?$AAe?$AAt?$AAs?$AAi?$AAz?$AAe?$AA?5?$AA?$DM?$AA?$DN?$AA?5?$AAs?$AAi?$AAz?$AAe?$AAI?$AAn?$AAW?$AAo?$AAr?$AAd?$AAs?$AA?$AA@ 22065048     LIBCMTD:mbstowcs.obj
 0002:00011078       ??_C@_1CM@LLECFMFH@?$AAb?$AAu?$AAf?$AAf?$AAe?$AAr?$AAS?$AAi?$AAz?$AAe?$AA?5?$AA?$DM?$AA?$DN?$AA?5?$AAI?$AAN?$AAT?$AA_?$AAM?$AAA?$AAX?$AA?$AA@ 22065078     LIBCMTD:mbstowcs.obj
 0002:000110a4       ??_C@_1BM@PHENIGHD@?$AA_?$AAm?$AAb?$AAs?$AAt?$AAo?$AAw?$AAc?$AAs?$AA_?$AAs?$AA_?$AAl?$AA?$AA@ 220650a4     LIBCMTD:mbstowcs.obj
 0002:000110c0       ??_C@_1JA@JKDFMOPO@?$AA?$CI?$AAp?$AAw?$AAc?$AAs?$AA?5?$AA?$DN?$AA?$DN?$AA?5?$AAN?$AAU?$AAL?$AAL?$AA?5?$AA?$CG?$AA?$CG?$AA?5?$AAs?$AAi?$AAz?$AAe?$AAI?$AAn?$AAW?$AAo?$AAr?$AAd?$AAs?$AA?5?$AA?$DN?$AA?$DN?$AA?5@ 220650c0     LIBCMTD:mbstowcs.obj
 0002:00011150       ??_C@_1BC@HGPNAKGC@?$AAs?$AAt?$AAr?$AAc?$AAa?$AAt?$AA_?$AAs?$AA?$AA@ 22065150     LIBCMTD:strcat_s.obj
 0002:00011164       ??_C@_1CM@HABGDNLJ@?$AAl?$AAe?$AAn?$AAg?$AAt?$AAh?$AA?5?$AA?$DM?$AA?5?$AAs?$AAi?$AAz?$AAe?$AAI?$AAn?$AAT?$AAC?$AAh?$AAa?$AAr?$AAs?$AA?$AA@ 22065164     LIBCMTD:xtoas.obj
 0002:00011190       ??_C@_1DE@PCJGDBBD@?$AA2?$AA?5?$AA?$DM?$AA?$DN?$AA?5?$AAr?$AAa?$AAd?$AAi?$AAx?$AA?5?$AA?$CG?$AA?$CG?$AA?5?$AAr?$AAa?$AAd?$AAi?$AAx?$AA?5?$AA?$DM?$AA?$DN?$AA?5?$AA3?$AA6?$AA?$AA@ 22065190     LIBCMTD:xtoas.obj
 0002:000111c8       ??_C@_1FA@MKGGAGEI@?$AAs?$AAi?$AAz?$AAe?$AAI?$AAn?$AAT?$AAC?$AAh?$AAa?$AAr?$AAs?$AA?5?$AA?$DO?$AA?5?$AA?$CI?$AAs?$AAi?$AAz?$AAe?$AA_?$AAt?$AA?$CJ?$AA?$CI?$AAi?$AAs?$AA_?$AAn?$AAe?$AAg?$AA?5?$AA?$DP@ 220651c8     LIBCMTD:xtoas.obj
 0002:00011218       ??_C@_1CC@JNJFIMGE@?$AAs?$AAi?$AAz?$AAe?$AAI?$AAn?$AAT?$AAC?$AAh?$AAa?$AAr?$AAs?$AA?5?$AA?$DO?$AA?5?$AA0?$AA?$AA@ 22065218     LIBCMTD:xtoas.obj
 0002:0001123c       ??_C@_1O@GIMBNLEI@?$AAx?$AAt?$AAo?$AAa?$AA_?$AAs?$AA?$AA@ 2206523c     LIBCMTD:xtoas.obj
 0002:00011250       ??_C@_1FM@MFCBFCGB@?$AAf?$AA?3?$AA?2?$AAd?$AAd?$AA?2?$AAv?$AAc?$AAt?$AAo?$AAo?$AAl?$AAs?$AA?2?$AAc?$AAr?$AAt?$AA_?$AAb?$AAl?$AAd?$AA?2?$AAs?$AAe?$AAl?$AAf?$AA_?$AAx?$AA8?$AA6?$AA?2?$AAc@ 22065250     LIBCMTD:xtoas.obj
 0002:000112ac       ??_C@_1BI@ICGGMGLK@?$AAb?$AAu?$AAf?$AA?5?$AA?$CB?$AA?$DN?$AA?5?$AAN?$AAU?$AAL?$AAL?$AA?$AA@ 220652ac     LIBCMTD:xtoas.obj
 0002:000112c4       ??_C@_1BC@MJJNBNFN@?$AAx?$AA6?$AA4?$AAt?$AAo?$AAa?$AA_?$AAs?$AA?$AA@ 220652c4     LIBCMTD:xtoas.obj
 0002:000112d8       ??_C@_1CG@LLJCAOHF@?$AA_?$AAw?$AAc?$AAs?$AAt?$AAo?$AAm?$AAb?$AAs?$AA_?$AAl?$AA_?$AAh?$AAe?$AAl?$AAp?$AAe?$AAr?$AA?$AA@ 220652d8     LIBCMTD:wcstombs.obj
 0002:00011300       ??_C@_1GE@OAENIBOD@?$AAf?$AA?3?$AA?2?$AAd?$AAd?$AA?2?$AAv?$AAc?$AAt?$AAo?$AAo?$AAl?$AAs?$AA?2?$AAc?$AAr?$AAt?$AA_?$AAb?$AAl?$AAd?$AA?2?$AAs?$AAe?$AAl?$AAf?$AA_?$AAx?$AA8?$AA6?$AA?2?$AAc@ 22065300     LIBCMTD:wcstombs.obj
 0002:00011364       ??_C@_1BK@OIBENBPM@?$AAp?$AAw?$AAc?$AAs?$AA?5?$AA?$CB?$AA?$DN?$AA?5?$AAN?$AAU?$AAL?$AAL?$AA?$AA@ 22065364     LIBCMTD:wcstombs.obj
 0002:00011380       ??_C@_1CM@KEOGBFLI@?$AAs?$AAi?$AAz?$AAe?$AAI?$AAn?$AAB?$AAy?$AAt?$AAe?$AAs?$AA?5?$AA?$DO?$AA?5?$AAr?$AAe?$AAt?$AAs?$AAi?$AAz?$AAe?$AA?$AA@ 22065380     LIBCMTD:wcstombs.obj
 0002:000113ac       ??_C@_1BM@BDMCLLDL@?$AA_?$AAw?$AAc?$AAs?$AAt?$AAo?$AAm?$AAb?$AAs?$AA_?$AAs?$AA_?$AAl?$AA?$AA@ 220653ac     LIBCMTD:wcstombs.obj
 0002:000113c8       ??_C@_1IM@MFGKHGBP@?$AA?$CI?$AAd?$AAs?$AAt?$AA?5?$AA?$CB?$AA?$DN?$AA?5?$AAN?$AAU?$AAL?$AAL?$AA?5?$AA?$CG?$AA?$CG?$AA?5?$AAs?$AAi?$AAz?$AAe?$AAI?$AAn?$AAB?$AAy?$AAt?$AAe?$AAs?$AA?5?$AA?$DO?$AA?5?$AA0?$AA?$CJ@ 220653c8     LIBCMTD:wcstombs.obj
 0002:00011454       ??_C@_1CE@IGKFIJFD@?$AA_?$AAv?$AAs?$AAw?$AAp?$AAr?$AAi?$AAn?$AAt?$AAf?$AA_?$AAh?$AAe?$AAl?$AAp?$AAe?$AAr?$AA?$AA@ 22065454     LIBCMTD:vswprnc.obj
 0002:00011478       ??_C@_1GE@KINELFI@?$AAf?$AA?3?$AA?2?$AAd?$AAd?$AA?2?$AAv?$AAc?$AAt?$AAo?$AAo?$AAl?$AAs?$AA?2?$AAc?$AAr?$AAt?$AA_?$AAb?$AAl?$AAd?$AA?2?$AAs?$AAe?$AAl?$AAf?$AA_?$AAx?$AA8?$AA6?$AA?2?$AAc@ 22065478     LIBCMTD:vswprnc.obj
 0002:000114e0       ??_C@_1EE@MPCHJFGP@?$AAs?$AAt?$AAr?$AAi?$AAn?$AAg?$AA?5?$AA?$CB?$AA?$DN?$AA?5?$AAN?$AAU?$AAL?$AAL?$AA?5?$AA?$CG?$AA?$CG?$AA?5?$AAs?$AAi?$AAz?$AAe?$AAI?$AAn?$AAW?$AAo?$AAr?$AAd?$AAs?$AA?5?$AA?$DO?$AA?5@ 220654e0     LIBCMTD:vswprnc.obj
 0002:00011524       ??_C@_1BO@OALHJLCI@?$AA_?$AAv?$AAs?$AAw?$AAp?$AAr?$AAi?$AAn?$AAt?$AAf?$AA_?$AAs?$AA_?$AAl?$AA?$AA@ 22065524     LIBCMTD:vswprnc.obj
 0002:00011544       ??_C@_1CA@BKFKMJFF@?$AA_?$AAv?$AAs?$AAn?$AAw?$AAp?$AAr?$AAi?$AAn?$AAt?$AAf?$AA_?$AAs?$AA_?$AAl?$AA?$AA@ 22065544     LIBCMTD:vswprnc.obj
 0002:00011564       ??_C@_1O@NCBFODOE@?$AAx?$AAt?$AAo?$AAw?$AA_?$AAs?$AA?$AA@ 22065564     LIBCMTD:xtows.obj
 0002:00011574       ??_C@_1BC@HDEJCFPB@?$AAx?$AA6?$AA4?$AAt?$AAo?$AAw?$AA_?$AAs?$AA?$AA@ 22065574     LIBCMTD:xtows.obj
 0002:00011588       ??_C@_1BG@BBCDFOMA@?$AA_?$AAw?$AAo?$AAu?$AAt?$AAp?$AAu?$AAt?$AA_?$AAl?$AA?$AA@ 22065588     LIBCMTD:woutput.obj
 0002:000115a0       ??_C@_1BK@EPLNBKAK@?$AA_?$AAv?$AAs?$AAw?$AAp?$AAr?$AAi?$AAn?$AAt?$AAf?$AA_?$AAl?$AA?$AA@ 220655a0     LIBCMTD:vswprint.obj
 0002:000115bc       ??_C@_1CG@IMMIEPNA@?$AA_?$AAv?$AAs?$AAc?$AAw?$AAp?$AAr?$AAi?$AAn?$AAt?$AAf?$AA_?$AAh?$AAe?$AAl?$AAp?$AAe?$AAr?$AA?$AA@ 220655bc     LIBCMTD:vswprint.obj
 0002:000115e8       ??_C@_1FE@CEHLKAHD@?$AAi?$AAb?$AAa?$AAs?$AAe?$AA?5?$AA?$DN?$AA?$DN?$AA?5?$AA0?$AA?5?$AA?$HM?$AA?$HM?$AA?5?$AA?$CI?$AA2?$AA?5?$AA?$DM?$AA?$DN?$AA?5?$AAi?$AAb?$AAa?$AAs?$AAe?$AA?5?$AA?$CG?$AA?$CG?$AA?5?$AAi?$AAb?$AAa@ 220655e8     LIBCMTD:strtol.obj
 0002:0001163c       ??_C@_1BA@LOLAMAJG@?$AAs?$AAt?$AAr?$AAt?$AAo?$AAx?$AAl?$AA?$AA@ 2206563c     LIBCMTD:strtol.obj
 0002:00011650       ??_C@_1GA@IPHKKOEI@?$AAf?$AA?3?$AA?2?$AAd?$AAd?$AA?2?$AAv?$AAc?$AAt?$AAo?$AAo?$AAl?$AAs?$AA?2?$AAc?$AAr?$AAt?$AA_?$AAb?$AAl?$AAd?$AA?2?$AAs?$AAe?$AAl?$AAf?$AA_?$AAx?$AA8?$AA6?$AA?2?$AAc@ 22065650     LIBCMTD:strtol.obj
 0002:000116b0       ??_C@_1BK@LAOAACLJ@?$AAn?$AAp?$AAt?$AAr?$AA?5?$AA?$CB?$AA?$DN?$AA?5?$AAN?$AAU?$AAL?$AAL?$AA?$AA@ 220656b0     LIBCMTD:strtol.obj
 0002:000116cc       ??_C@_1BA@BMMDEPNE@?$AAs?$AAt?$AAr?$AAt?$AAo?$AAx?$AAq?$AA?$AA@ 220656cc     LIBCMTD:strtoq.obj
 0002:000116e0       ??_C@_1GA@GIMEIKLC@?$AAf?$AA?3?$AA?2?$AAd?$AAd?$AA?2?$AAv?$AAc?$AAt?$AAo?$AAo?$AAl?$AAs?$AA?2?$AAc?$AAr?$AAt?$AA_?$AAb?$AAl?$AAd?$AA?2?$AAs?$AAe?$AAl?$AAf?$AA_?$AAx?$AA8?$AA6?$AA?2?$AAc@ 220656e0     LIBCMTD:strtoq.obj
 0002:00011740       ??_C@_1JE@ECKHFIFP@?$AA?$CI?$AA?$CC?$AAI?$AAn?$AAv?$AAa?$AAl?$AAi?$AAd?$AA?5?$AAf?$AAi?$AAl?$AAe?$AA?5?$AAd?$AAe?$AAs?$AAc?$AAr?$AAi?$AAp?$AAt?$AAo?$AAr?$AA?4?$AA?5?$AAF?$AAi?$AAl?$AAe?$AA?5@ 22065740     LIBCMTD:lseeki64.obj
 0002:000117d4       ??_C@_1CM@OKGMMMDH@?$AA?$CI?$AA_?$AAo?$AAs?$AAf?$AAi?$AAl?$AAe?$AA?$CI?$AAf?$AAh?$AA?$CJ?$AA?5?$AA?$CG?$AA?5?$AAF?$AAO?$AAP?$AAE?$AAN?$AA?$CJ?$AA?$AA@ 220657d4     LIBCMTD:lseeki64.obj
 0002:00011800       ??_C@_1BE@KHFBJMNM@?$AA_?$AAl?$AAs?$AAe?$AAe?$AAk?$AAi?$AA6?$AA4?$AA?$AA@ 22065800     LIBCMTD:lseeki64.obj
 0002:00011818       ??_C@_1GE@MINKPNPH@?$AAf?$AA?3?$AA?2?$AAd?$AAd?$AA?2?$AAv?$AAc?$AAt?$AAo?$AAo?$AAl?$AAs?$AA?2?$AAc?$AAr?$AAt?$AA_?$AAb?$AAl?$AAd?$AA?2?$AAs?$AAe?$AAl?$AAf?$AA_?$AAx?$AA8?$AA6?$AA?2?$AAc@ 22065818     LIBCMTD:lseeki64.obj
 0002:00011880       ??_C@_1FO@LPCLHKGE@?$AA?$CI?$AAf?$AAh?$AA?5?$AA?$DO?$AA?$DN?$AA?5?$AA0?$AA?5?$AA?$CG?$AA?$CG?$AA?5?$AA?$CI?$AAu?$AAn?$AAs?$AAi?$AAg?$AAn?$AAe?$AAd?$AA?$CJ?$AAf?$AAh?$AA?5?$AA?$DM?$AA?5?$AA?$CI?$AAu?$AAn?$AAs?$AAi@ 22065880     LIBCMTD:lseeki64.obj
 0002:000118e0       ??_C@_1O@KOFKDHPL@?$AA_?$AAw?$AAr?$AAi?$AAt?$AAe?$AA?$AA@ 220658e0     LIBCMTD:write.obj
 0002:000118f0       ??_C@_1FO@EPLDPDDL@?$AAf?$AA?3?$AA?2?$AAd?$AAd?$AA?2?$AAv?$AAc?$AAt?$AAo?$AAo?$AAl?$AAs?$AA?2?$AAc?$AAr?$AAt?$AA_?$AAb?$AAl?$AAd?$AA?2?$AAs?$AAe?$AAl?$AAf?$AA_?$AAx?$AA8?$AA6?$AA?2?$AAc@ 220658f0     LIBCMTD:write.obj
 0002:00011950       ??_C@_1DI@CNMHHHLG@?$AAi?$AAs?$AAl?$AAe?$AAa?$AAd?$AAb?$AAy?$AAt?$AAe?$AA?$CI?$AA_?$AAd?$AAb?$AAc?$AAs?$AAB?$AAu?$AAf?$AAf?$AAe?$AAr?$AA?$CI?$AAf?$AAh?$AA?$CJ?$AA?$CJ?$AA?$AA@ 22065950     LIBCMTD:write.obj
 0002:00011988       ??_C@_1CC@EEOLPHGO@?$AA?$CI?$AA?$CI?$AAc?$AAn?$AAt?$AA?5?$AA?$CG?$AA?5?$AA1?$AA?$CJ?$AA?5?$AA?$DN?$AA?$DN?$AA?5?$AA0?$AA?$CJ?$AA?$AA@ 22065988     LIBCMTD:write.obj
 0002:000119ac       ??_C@_1BM@NCANHCIP@?$AA_?$AAw?$AAr?$AAi?$AAt?$AAe?$AA_?$AAn?$AAo?$AAl?$AAo?$AAc?$AAk?$AA?$AA@ 220659ac     LIBCMTD:write.obj
 0002:000119c8       ??_C@_1BM@KFJLMBPG@?$AA?$CI?$AAb?$AAu?$AAf?$AA?5?$AA?$CB?$AA?$DN?$AA?5?$AAN?$AAU?$AAL?$AAL?$AA?$CJ?$AA?$AA@ 220659c8     LIBCMTD:write.obj
 0002:000119e4       ??_C@_0DB@JEHOCBEJ@f?3?2dd?2vctools?2crt_bld?2self_x86?2c@ 220659e4     LIBCMTD:_getbuf.obj
 0002:00011a18       ??_C@_1GC@DKMGNNCC@?$AAf?$AA?3?$AA?2?$AAd?$AAd?$AA?2?$AAv?$AAc?$AAt?$AAo?$AAo?$AAl?$AAs?$AA?2?$AAc?$AAr?$AAt?$AA_?$AAb?$AAl?$AAd?$AA?2?$AAs?$AAe?$AAl?$AAf?$AA_?$AAx?$AA8?$AA6?$AA?2?$AAc@ 22065a18     LIBCMTD:_getbuf.obj
 0002:00011a7c       ??_C@_1BA@LEBDGIHM@?$AA_?$AAi?$AAs?$AAa?$AAt?$AAt?$AAy?$AA?$AA@ 22065a7c     LIBCMTD:isatty.obj
 0002:00011a90       ??_C@_1GA@LPGDJDEN@?$AAf?$AA?3?$AA?2?$AAd?$AAd?$AA?2?$AAv?$AAc?$AAt?$AAo?$AAo?$AAl?$AAs?$AA?2?$AAc?$AAr?$AAt?$AA_?$AAb?$AAl?$AAd?$AA?2?$AAs?$AAe?$AAl?$AAf?$AA_?$AAx?$AA8?$AA6?$AA?2?$AAc@ 22065a90     LIBCMTD:isatty.obj
 0002:00011af0       ??_C@_0CP@BNKDODJJ@f?3?2dd?2vctools?2crt_bld?2self_x86?2c@ 22065af0     LIBCMTD:_file.obj
 0002:00011b20       ??_C@_1BA@JGHIEKKM@?$AA_?$AAf?$AAi?$AAl?$AAe?$AAn?$AAo?$AA?$AA@ 22065b20     LIBCMTD:fileno.obj
 0002:00011b30       ??_C@_1GA@PBJHELNC@?$AAf?$AA?3?$AA?2?$AAd?$AAd?$AA?2?$AAv?$AAc?$AAt?$AAo?$AAo?$AAl?$AAs?$AA?2?$AAc?$AAr?$AAt?$AA_?$AAb?$AAl?$AAd?$AA?2?$AAs?$AAe?$AAl?$AAf?$AA_?$AAx?$AA8?$AA6?$AA?2?$AAc@ 22065b30     LIBCMTD:fileno.obj
 0002:00011b90       ??_C@_1O@GKDHFACN@?$AAp?$AAr?$AAi?$AAn?$AAt?$AAf?$AA?$AA@ 22065b90     LIBCMTD:printf.obj
 0002:00011ba0       ??_C@_1GA@LHEGHOAF@?$AAf?$AA?3?$AA?2?$AAd?$AAd?$AA?2?$AAv?$AAc?$AAt?$AAo?$AAo?$AAl?$AAs?$AA?2?$AAc?$AAr?$AAt?$AA_?$AAb?$AAl?$AAd?$AA?2?$AAs?$AAe?$AAl?$AAf?$AA_?$AAx?$AA8?$AA6?$AA?2?$AAc@ 22065ba0     LIBCMTD:printf.obj
 0002:00011c00       ??_C@_1CA@CBMNPEO@?$AAs?$AAi?$AAz?$AAe?$AAI?$AAn?$AAB?$AAy?$AAt?$AAe?$AAs?$AA?5?$AA?$DO?$AA?5?$AA0?$AA?$AA@ 22065c00     LIBCMTD:wctomb.obj
 0002:00011c20       ??_C@_1BI@IEADNOHF@?$AA_?$AAw?$AAc?$AAt?$AAo?$AAm?$AAb?$AA_?$AAs?$AA_?$AAl?$AA?$AA@ 22065c20     LIBCMTD:wctomb.obj
 0002:00011c38       ??_C@_1GA@LDLHPOO@?$AAf?$AA?3?$AA?2?$AAd?$AAd?$AA?2?$AAv?$AAc?$AAt?$AAo?$AAo?$AAl?$AAs?$AA?2?$AAc?$AAr?$AAt?$AA_?$AAb?$AAl?$AAd?$AA?2?$AAs?$AAe?$AAl?$AAf?$AA_?$AAx?$AA8?$AA6?$AA?2?$AAc@ 22065c38     LIBCMTD:wctomb.obj
 0002:00011c98       ??_C@_1CO@HFMIILNF@?$AAs?$AAi?$AAz?$AAe?$AAI?$AAn?$AAB?$AAy?$AAt?$AAe?$AAs?$AA?5?$AA?$DM?$AA?$DN?$AA?5?$AAI?$AAN?$AAT?$AA_?$AAM?$AAA?$AAX?$AA?$AA@ 22065c98     LIBCMTD:wctomb.obj
 0002:00011cc8       ??_C@_1FK@BCPANIEK@?$AA?$CI?$AA?$CC?$AAM?$AAi?$AAs?$AAs?$AAi?$AAn?$AAg?$AA?5?$AAp?$AAo?$AAs?$AAi?$AAt?$AAi?$AAo?$AAn?$AA?5?$AAi?$AAn?$AA?5?$AAt?$AAh?$AAe?$AA?5?$AAf?$AAo?$AAr?$AAm?$AAa?$AAt@ 22065cc8     LIBCMTD:outputp.obj
 0002:00011d28       ??_C@_1FK@LNCFKALM@?$AA?$CI?$AA?$CI?$AAs?$AAt?$AAa?$AAt?$AAe?$AA?5?$AA?$DN?$AA?$DN?$AA?5?$AAS?$AAT?$AA_?$AAN?$AAO?$AAR?$AAM?$AAA?$AAL?$AA?$CJ?$AA?5?$AA?$HM?$AA?$HM?$AA?5?$AA?$CI?$AAs?$AAt?$AAa?$AAt?$AAe?$AA?5@ 22065d28     LIBCMTD:outputp.obj
 0002:00011d88       ??_C@_1JC@OACKELNN@?$AA_?$AAt?$AAv?$AAa?$AAl?$AAi?$AAd?$AAa?$AAt?$AAe?$AA_?$AAp?$AAa?$AAr?$AAa?$AAm?$AA_?$AAr?$AAe?$AAu?$AAs?$AAe?$AA?$CI?$AA?$CG?$AAp?$AAo?$AAs?$AA_?$AAv?$AAa?$AAl?$AAu@ 22065d88     LIBCMTD:outputp.obj
 0002:00011e20       ??_C@_1IK@NBGDDCBN@?$AA_?$AAt?$AAv?$AAa?$AAl?$AAi?$AAd?$AAa?$AAt?$AAe?$AA_?$AAp?$AAa?$AAr?$AAa?$AAm?$AA_?$AAr?$AAe?$AAu?$AAs?$AAe?$AA?$CI?$AA?$CG?$AAp?$AAo?$AAs?$AA_?$AAv?$AAa?$AAl?$AAu@ 22065e20     LIBCMTD:outputp.obj
 0002:00011eac       ??_C@_1DG@GOHGNKHE@?$AAp?$AAa?$AAs?$AAs?$AA?5?$AA?$DN?$AA?$DN?$AA?5?$AAF?$AAO?$AAR?$AAM?$AAA?$AAT?$AA_?$AAO?$AAU?$AAT?$AAP?$AAU?$AAT?$AA_?$AAP?$AAA?$AAS?$AAS?$AA?$AA@ 22065eac     LIBCMTD:outputp.obj
 0002:00011ee8       ??_C@_1IM@DNGHAPLB@?$AA_?$AAt?$AAv?$AAa?$AAl?$AAi?$AAd?$AAa?$AAt?$AAe?$AA_?$AAp?$AAa?$AAr?$AAa?$AAm?$AA_?$AAr?$AAe?$AAu?$AAs?$AAe?$AA?$CI?$AA?$CG?$AAp?$AAo?$AAs?$AA_?$AAv?$AAa?$AAl?$AAu@ 22065ee8     LIBCMTD:outputp.obj
 0002:00011f78       ??_C@_1IG@HJIMKDHC@?$AA_?$AAt?$AAv?$AAa?$AAl?$AAi?$AAd?$AAa?$AAt?$AAe?$AA_?$AAp?$AAa?$AAr?$AAa?$AAm?$AA_?$AAr?$AAe?$AAu?$AAs?$AAe?$AA?$CI?$AA?$CG?$AAp?$AAo?$AAs?$AA_?$AAv?$AAa?$AAl?$AAu@ 22065f78     LIBCMTD:outputp.obj
 0002:00012000       ??_C@_1IG@FDCPLALG@?$AA_?$AAt?$AAv?$AAa?$AAl?$AAi?$AAd?$AAa?$AAt?$AAe?$AA_?$AAp?$AAa?$AAr?$AAa?$AAm?$AA_?$AAr?$AAe?$AAu?$AAs?$AAe?$AA?$CI?$AA?$CG?$AAp?$AAo?$AAs?$AA_?$AAv?$AAa?$AAl?$AAu@ 22066000     LIBCMTD:outputp.obj
 0002:00012088       ??_C@_1IK@MHEDJAMK@?$AA_?$AAt?$AAv?$AAa?$AAl?$AAi?$AAd?$AAa?$AAt?$AAe?$AA_?$AAp?$AAa?$AAr?$AAa?$AAm?$AA_?$AAr?$AAe?$AAu?$AAs?$AAe?$AA?$CI?$AA?$CG?$AAp?$AAo?$AAs?$AA_?$AAv?$AAa?$AAl?$AAu@ 22066088     LIBCMTD:outputp.obj
 0002:00012118       ??_C@_1EM@BNPHBBIA@?$AA?$CI?$AA?$CI?$AAt?$AAy?$AAp?$AAe?$AA_?$AAp?$AAo?$AAs?$AA?$DO?$AA?$DN?$AA0?$AA?$CJ?$AA?5?$AA?$CG?$AA?$CG?$AA?5?$AA?$CI?$AAt?$AAy?$AAp?$AAe?$AA_?$AAp?$AAo?$AAs?$AA?$DM?$AA_?$AAA?$AAR?$AAG@ 22066118     LIBCMTD:outputp.obj
 0002:00012168       ??_C@_1IK@EIEPDKHJ@?$AA_?$AAt?$AAv?$AAa?$AAl?$AAi?$AAd?$AAa?$AAt?$AAe?$AA_?$AAp?$AAa?$AAr?$AAa?$AAm?$AA_?$AAr?$AAe?$AAu?$AAs?$AAe?$AA?$CI?$AA?$CG?$AAp?$AAo?$AAs?$AA_?$AAv?$AAa?$AAl?$AAu@ 22066168     LIBCMTD:outputp.obj
 0002:000121f8       ??_C@_1JG@JBJBOCFB@?$AA?$CI?$AA?$CI?$AAp?$AAr?$AAe?$AAc?$AAi?$AAs?$AA_?$AAp?$AAo?$AAs?$AA?5?$AA?$DO?$AA?$DN?$AA?5?$AA0?$AA?$CJ?$AA?5?$AA?$CG?$AA?$CG?$AA?5?$AA?$CI?$AA?$CK?$AAe?$AAn?$AAd?$AA_?$AAp?$AAo?$AAs?$AA?5@ 220661f8     LIBCMTD:outputp.obj
 0002:00012290       ??_C@_1II@PIPIMLPF@?$AA_?$AAt?$AAv?$AAa?$AAl?$AAi?$AAd?$AAa?$AAt?$AAe?$AA_?$AAp?$AAa?$AAr?$AAa?$AAm?$AA_?$AAr?$AAe?$AAu?$AAs?$AAe?$AA?$CI?$AA?$CG?$AAp?$AAo?$AAs?$AA_?$AAv?$AAa?$AAl?$AAu@ 22066290     LIBCMTD:outputp.obj
 0002:00012318       ??_C@_1JE@NMBHOLFI@?$AA?$CI?$AA?$CI?$AAw?$AAi?$AAd?$AAt?$AAh?$AA_?$AAp?$AAo?$AAs?$AA?5?$AA?$DO?$AA?$DN?$AA?5?$AA0?$AA?$CJ?$AA?5?$AA?$CG?$AA?$CG?$AA?5?$AA?$CI?$AA?$CK?$AAe?$AAn?$AAd?$AA_?$AAp?$AAo?$AAs?$AA?5?$AA?$DN@ 22066318     LIBCMTD:outputp.obj
 0002:000123b0       ??_C@_1EE@DMAIGNBG@?$AA?$CI?$AA?$CC?$AAI?$AAn?$AAc?$AAo?$AAr?$AAr?$AAe?$AAc?$AAt?$AA?5?$AAf?$AAo?$AAr?$AAm?$AAa?$AAt?$AA?5?$AAs?$AAp?$AAe?$AAc?$AAi?$AAf?$AAi?$AAe?$AAr?$AA?$CC?$AA?0?$AA?5?$AA0@ 220663b0     LIBCMTD:outputp.obj
 0002:000123f8       ??_C@_1JC@PFJNKEIO@?$AA?$CI?$AA?$CI?$AAt?$AAy?$AAp?$AAe?$AA_?$AAp?$AAo?$AAs?$AA?5?$AA?$DO?$AA?$DN?$AA?5?$AA0?$AA?$CJ?$AA?5?$AA?$CG?$AA?$CG?$AA?5?$AA?$CI?$AA?$CK?$AAe?$AAn?$AAd?$AA_?$AAp?$AAo?$AAs?$AA?5?$AA?$DN?$AA?$DN@ 220663f8     LIBCMTD:outputp.obj
 0002:0001248c       ??_C@_1BI@KANOLAMF@?$AA_?$AAo?$AAu?$AAt?$AAp?$AAu?$AAt?$AA_?$AAp?$AA_?$AAl?$AA?$AA@ 2206648c     LIBCMTD:outputp.obj
 0002:000124a8       ___lookuptable_s           220664a8     LIBCMTD:outputs.obj
 0002:00012504       ??_C@_1BI@COFBLHCG@?$AA_?$AAo?$AAu?$AAt?$AAp?$AAu?$AAt?$AA_?$AAs?$AA_?$AAl?$AA?$AA@ 22066504     LIBCMTD:outputs.obj
 0002:0001251c       ??_C@_1DG@NMBGBDM@?$AAp?$AAl?$AAo?$AAc?$AAi?$AA?9?$AA?$DO?$AAc?$AAt?$AAy?$AAp?$AAe?$AA1?$AA_?$AAr?$AAe?$AAf?$AAc?$AAo?$AAu?$AAn?$AAt?$AA?5?$AA?$DO?$AA?5?$AA0?$AA?$AA@ 2206651c     LIBCMTD:initctyp.obj
 0002:00012558       ??_C@_1GE@OCPKBDKE@?$AAf?$AA?3?$AA?2?$AAd?$AAd?$AA?2?$AAv?$AAc?$AAt?$AAo?$AAo?$AAl?$AAs?$AA?2?$AAc?$AAr?$AAt?$AA_?$AAb?$AAl?$AAd?$AA?2?$AAs?$AAe?$AAl?$AAf?$AA_?$AAx?$AA8?$AA6?$AA?2?$AAc@ 22066558     LIBCMTD:initctyp.obj
 0002:000125bc       ??_C@_0DC@EHLBFILA@f?3?2dd?2vctools?2crt_bld?2self_x86?2c@ 220665bc     LIBCMTD:initctyp.obj
 0002:000125f0       ??_C@_0O@FMJNFNKE@united?9states?$AA@ 220665f0     LIBCMTD:getqloc.obj
 0002:00012600       ??_C@_0P@NDHFFKCA@united?9kingdom?$AA@ 22066600     LIBCMTD:getqloc.obj
 0002:00012610       ??_C@_0BC@HHDADLGF@trinidad?5?$CG?5tobago?$AA@ 22066610     LIBCMTD:getqloc.obj
 0002:00012624       ??_C@_0M@IOAEBDAC@south?9korea?$AA@ 22066624     LIBCMTD:getqloc.obj
 0002:00012630       ??_C@_0N@FIELFKIJ@south?9africa?$AA@ 22066630     LIBCMTD:getqloc.obj
 0002:00012640       ??_C@_0M@OPNDHCMC@south?5korea?$AA@ 22066640     LIBCMTD:getqloc.obj
 0002:0001264c       ??_C@_0N@MDEOEPFI@south?5africa?$AA@ 2206664c     LIBCMTD:getqloc.obj
 0002:0001265c       ??_C@_06FKAPCJLB@slovak?$AA@ 2206665c     LIBCMTD:getqloc.obj
 0002:00012664       ??_C@_0M@EFJANOAL@puerto?9rico?$AA@ 22066664     LIBCMTD:getqloc.obj
 0002:00012670       ??_C@_08PGOJKDAI@pr?9china?$AA@ 22066670     LIBCMTD:getqloc.obj
 0002:0001267c       ??_C@_08JHDOMCMI@pr?5china?$AA@ 2206667c     LIBCMTD:getqloc.obj
 0002:00012688       ??_C@_02JHCHFBLL@nz?$AA@   22066688     LIBCMTD:getqloc.obj
 0002:0001268c       ??_C@_0M@LINHDHKP@new?9zealand?$AA@ 2206668c     LIBCMTD:getqloc.obj
 0002:00012698       ??_C@_09IIIPPBDB@hong?9kong?$AA@ 22066698     LIBCMTD:getqloc.obj
 0002:000126a4       ??_C@_07HJLCKBG@holland?$AA@ 220666a4     LIBCMTD:getqloc.obj
 0002:000126ac       ??_C@_0O@LEHGMHAG@great?5britain?$AA@ 220666ac     LIBCMTD:getqloc.obj
 0002:000126bc       ??_C@_07FACOMELA@england?$AA@ 220666bc     LIBCMTD:getqloc.obj
 0002:000126c4       ??_C@_05JIHCEICB@czech?$AA@ 220666c4     LIBCMTD:getqloc.obj
 0002:000126cc       ??_C@_05BBJOBLGB@china?$AA@ 220666cc     LIBCMTD:getqloc.obj
 0002:000126d4       ??_C@_07GPKPHICP@britain?$AA@ 220666d4     LIBCMTD:getqloc.obj
 0002:000126dc       ??_C@_07MHIPBHMG@america?$AA@ 220666dc     LIBCMTD:getqloc.obj
 0002:000126e4       ??_C@_03KIALPMKC@usa?$AA@  220666e4     LIBCMTD:getqloc.obj
 0002:000126e8       ??_C@_02FGJGKGGD@us?$AA@   220666e8     LIBCMTD:getqloc.obj
 0002:000126ec       ??_C@_02NEINDODK@uk?$AA@   220666ec     LIBCMTD:getqloc.obj
 0002:000126f0       ??_C@_05JMPCFJFJ@swiss?$AA@ 220666f0     LIBCMTD:getqloc.obj
 0002:000126f8       ??_C@_0BA@HLOCPIOD@swedish?9finland?$AA@ 220666f8     LIBCMTD:getqloc.obj
 0002:00012708       ??_C@_0BC@PKCNIABK@spanish?9venezuela?$AA@ 22066708     LIBCMTD:getqloc.obj
 0002:0001271c       ??_C@_0BA@GBHHMIJI@spanish?9uruguay?$AA@ 2206671c     LIBCMTD:getqloc.obj
 0002:0001272c       ??_C@_0BE@BHDOHPMC@spanish?9puerto?5rico?$AA@ 2206672c     LIBCMTD:getqloc.obj
 0002:00012740       ??_C@_0N@KMOIDGGN@spanish?9peru?$AA@ 22066740     LIBCMTD:getqloc.obj
 0002:00012750       ??_C@_0BB@HMHLPGPH@spanish?9paraguay?$AA@ 22066750     LIBCMTD:getqloc.obj
 0002:00012764       ??_C@_0P@MCPKNGFD@spanish?9panama?$AA@ 22066764     LIBCMTD:getqloc.obj
 0002:00012774       ??_C@_0BC@IHOHGAIL@spanish?9nicaragua?$AA@ 22066774     LIBCMTD:getqloc.obj
 0002:00012788       ??_C@_0P@KLMJDNFJ@spanish?9modern?$AA@ 22066788     LIBCMTD:getqloc.obj
 0002:00012798       ??_C@_0BA@BPAPGBCM@spanish?9mexican?$AA@ 22066798     LIBCMTD:getqloc.obj
 0002:000127a8       ??_C@_0BB@PDECHHHE@spanish?9honduras?$AA@ 220667a8     LIBCMTD:getqloc.obj
 0002:000127bc       ??_C@_0BC@KLHKFGDB@spanish?9guatemala?$AA@ 220667bc     LIBCMTD:getqloc.obj
 0002:000127d0       ??_C@_0BE@MFOOKJAI@spanish?9el?5salvador?$AA@ 220667d0     LIBCMTD:getqloc.obj
 0002:000127e4       ??_C@_0BA@FCOKFPFC@spanish?9ecuador?$AA@ 220667e4     LIBCMTD:getqloc.obj
 0002:000127f4       ??_C@_0BL@PLMGIMOO@spanish?9dominican?5republic?$AA@ 220667f4     LIBCMTD:getqloc.obj
 0002:00012810       ??_C@_0BD@HLGDNMHB@spanish?9costa?5rica?$AA@ 22066810     LIBCMTD:getqloc.obj
 0002:00012824       ??_C@_0BB@PKCBKCPE@spanish?9colombia?$AA@ 22066824     LIBCMTD:getqloc.obj
 0002:00012838       ??_C@_0O@MCBIJGNE@spanish?9chile?$AA@ 22066838     LIBCMTD:getqloc.obj
 0002:00012848       ??_C@_0BA@BEFEIGJJ@spanish?9bolivia?$AA@ 22066848     LIBCMTD:getqloc.obj
 0002:00012858       ??_C@_0BC@EMECMPD@spanish?9argentina?$AA@ 22066858     LIBCMTD:getqloc.obj
 0002:0001286c       ??_C@_0BF@EALFLENP@portuguese?9brazilian?$AA@ 2206686c     LIBCMTD:getqloc.obj
 0002:00012884       ??_C@_0BC@HBLEBLNN@norwegian?9nynorsk?$AA@ 22066884     LIBCMTD:getqloc.obj
 0002:00012898       ??_C@_0BB@HMACDDCK@norwegian?9bokmal?$AA@ 22066898     LIBCMTD:getqloc.obj
 0002:000128ac       ??_C@_09BAFFPPHE@norwegian?$AA@ 220668ac     LIBCMTD:getqloc.obj
 0002:000128b8       ??_C@_0O@EAJFJDFG@italian?9swiss?$AA@ 220668b8     LIBCMTD:getqloc.obj
 0002:000128c8       ??_C@_0O@CNOMPGD@irish?9english?$AA@ 220668c8     LIBCMTD:getqloc.obj
 0002:000128d8       ??_C@_0N@EDHBGCKG@german?9swiss?$AA@ 220668d8     LIBCMTD:getqloc.obj
 0002:000128e8       ??_C@_0BC@JACMHNBP@german?9luxembourg?$AA@ 220668e8     LIBCMTD:getqloc.obj
 0002:000128fc       ??_C@_0BE@HBGMGFEG@german?9lichtenstein?$AA@ 220668fc     LIBCMTD:getqloc.obj
 0002:00012910       ??_C@_0BA@HKKBIBKL@german?9austrian?$AA@ 22066910     LIBCMTD:getqloc.obj
 0002:00012920       ??_C@_0N@GCAEPEBK@french?9swiss?$AA@ 22066920     LIBCMTD:getqloc.obj
 0002:00012930       ??_C@_0BC@DJFJJCK@french?9luxembourg?$AA@ 22066930     LIBCMTD:getqloc.obj
 0002:00012944       ??_C@_0BA@NNCEDFIC@french?9canadian?$AA@ 22066944     LIBCMTD:getqloc.obj
 0002:00012954       ??_C@_0P@CMPOCLM@french?9belgian?$AA@ 22066954     LIBCMTD:getqloc.obj
 0002:00012964       ??_C@_0M@GHHDJOK@english?9usa?$AA@ 22066964     LIBCMTD:getqloc.obj
 0002:00012970       ??_C@_0L@PLDJKEIL@english?9us?$AA@ 22066970     LIBCMTD:getqloc.obj
 0002:0001297c       ??_C@_0L@HJCCDMNC@english?9uk?$AA@ 2206697c     LIBCMTD:getqloc.obj
 0002:00012988       ??_C@_0BK@CKLIAGJB@english?9trinidad?5y?5tobago?$AA@ 22066988     LIBCMTD:getqloc.obj
 0002:000129a4       ??_C@_0BF@JMJMGNNF@english?9south?5africa?$AA@ 220669a4     LIBCMTD:getqloc.obj
 0002:000129bc       ??_C@_0L@DKIIFDFD@english?9nz?$AA@ 220669bc     LIBCMTD:getqloc.obj
 0002:000129c8       ??_C@_0BA@ONHGJCLH@english?9jamaica?$AA@ 220669c8     LIBCMTD:getqloc.obj
 0002:000129d8       ??_C@_0M@HJBGHOPO@english?9ire?$AA@ 220669d8     LIBCMTD:getqloc.obj
 0002:000129e4       ??_C@_0BC@LFEKMIFB@english?9caribbean?$AA@ 220669e4     LIBCMTD:getqloc.obj
 0002:000129f8       ??_C@_0M@OLDPFKHI@english?9can?$AA@ 220669f8     LIBCMTD:getqloc.obj
 0002:00012a04       ??_C@_0P@OMDEHBMP@english?9belize?$AA@ 22066a04     LIBCMTD:getqloc.obj
 0002:00012a14       ??_C@_0M@KFHFPFED@english?9aus?$AA@ 22066a14     LIBCMTD:getqloc.obj
 0002:00012a20       ??_C@_0BB@MNMBKDFE@english?9american?$AA@ 22066a20     LIBCMTD:getqloc.obj
 0002:00012a34       ??_C@_0O@KIDLNNBA@dutch?9belgian?$AA@ 22066a34     LIBCMTD:getqloc.obj
 0002:00012a44       ??_C@_0BE@JBKABBMH@chinese?9traditional?$AA@ 22066a44     LIBCMTD:getqloc.obj
 0002:00012a58       ??_C@_0BC@MJJMPKCG@chinese?9singapore?$AA@ 22066a58     LIBCMTD:getqloc.obj
 0002:00012a6c       ??_C@_0BD@FDKADDCP@chinese?9simplified?$AA@ 22066a6c     LIBCMTD:getqloc.obj
 0002:00012a80       ??_C@_0BB@DBEFDDME@chinese?9hongkong?$AA@ 22066a80     LIBCMTD:getqloc.obj
 0002:00012a94       ??_C@_07DHNMFMCI@chinese?$AA@ 22066a94     LIBCMTD:getqloc.obj
 0002:00012a9c       ??_C@_03FNDDCHI@chi?$AA@   22066a9c     LIBCMTD:getqloc.obj
 0002:00012aa0       ??_C@_03BMMIADDJ@chh?$AA@  22066aa0     LIBCMTD:getqloc.obj
 0002:00012aa4       ??_C@_08OAIPJDGI@canadian?$AA@ 22066aa4     LIBCMTD:getqloc.obj
 0002:00012ab0       ??_C@_07HBPMNPNJ@belgian?$AA@ 22066ab0     LIBCMTD:getqloc.obj
 0002:00012ab8       ??_C@_0L@OEKOPBEL@australian?$AA@ 22066ab8     LIBCMTD:getqloc.obj
 0002:00012ac4       ??_C@_0BB@MEIMBEDG@american?9english?$AA@ 22066ac4     LIBCMTD:getqloc.obj
 0002:00012ad8       ??_C@_0BB@DFMDPDGB@american?5english?$AA@ 22066ad8     LIBCMTD:getqloc.obj
 0002:00012aec       ??_C@_08IJLOKOLL@american?$AA@ 22066aec     LIBCMTD:getqloc.obj
 0002:00012af8       ___rg_language             22066af8     LIBCMTD:getqloc.obj
 0002:00012d00       ___rg_country              22066d00     LIBCMTD:getqloc.obj
 0002:00012db8       ___rglangidNotDefault      22066db8     LIBCMTD:getqloc.obj
 0002:00012dcc       ??_C@_0BC@NFIEMBLL@Norwegian?9Nynorsk?$AA@ 22066dcc     LIBCMTD:getqloc.obj
 0002:00012de0       ??_C@_1OM@OECHDGCF@?$AAs?$AAt?$AAr?$AAc?$AAp?$AAy?$AA_?$AAs?$AA?$CI?$AAl?$AAp?$AAO?$AAu?$AAt?$AAS?$AAt?$AAr?$AA?9?$AA?$DO?$AAs?$AAz?$AAL?$AAa?$AAn?$AAg?$AAu?$AAa?$AAg?$AAe?$AA?0?$AA?5?$AA?$CI@ 22066de0     LIBCMTD:getqloc.obj
 0002:00012ecc       ??_C@_1CO@NJACLALJ@?$AA_?$AA_?$AAg?$AAe?$AAt?$AA_?$AAq?$AAu?$AAa?$AAl?$AAi?$AAf?$AAi?$AAe?$AAd?$AA_?$AAl?$AAo?$AAc?$AAa?$AAl?$AAe?$AA?$AA@ 22066ecc     LIBCMTD:getqloc.obj
 0002:00012f00       ??_C@_1GC@FECJGAE@?$AAf?$AA?3?$AA?2?$AAd?$AAd?$AA?2?$AAv?$AAc?$AAt?$AAo?$AAo?$AAl?$AAs?$AA?2?$AAc?$AAr?$AAt?$AA_?$AAb?$AAl?$AAd?$AA?2?$AAs?$AAe?$AAl?$AAf?$AA_?$AAx?$AA8?$AA6?$AA?2?$AAc@ 22066f00     LIBCMTD:getqloc.obj
 0002:00012f64       ??_C@_03NFKLAGEF@OCP?$AA@  22066f64     LIBCMTD:getqloc.obj
 0002:00012f68       ??_C@_03DFHEHBHG@ACP?$AA@  22066f68     LIBCMTD:getqloc.obj
 0002:00012f6c       ??_C@_1BK@ONMFGLDB@?$AA_?$AAw?$AAo?$AAu?$AAt?$AAp?$AAu?$AAt?$AA_?$AAs?$AA_?$AAl?$AA?$AA@ 22066f6c     LIBCMTD:woutputs.obj
 0002:00012f88       ??_C@_1BK@GDEKGMNC@?$AA_?$AAw?$AAo?$AAu?$AAt?$AAp?$AAu?$AAt?$AA_?$AAp?$AA_?$AAl?$AA?$AA@ 22066f88     LIBCMTD:woutputp.obj
 0002:00012fa8       ??_C@_1GA@GFFDGGFH@?$AAf?$AA?3?$AA?2?$AAd?$AAd?$AA?2?$AAv?$AAc?$AAt?$AAo?$AAo?$AAl?$AAs?$AA?2?$AAc?$AAr?$AAt?$AA_?$AAb?$AAl?$AAd?$AA?2?$AAs?$AAe?$AAl?$AAf?$AA_?$AAx?$AA8?$AA6?$AA?2?$AAc@ 22066fa8     LIBCMTD:mbtowc.obj
 0002:00013008       ??_C@_1NC@EINCOKCO@?$AA_?$AAl?$AAo?$AAc?$AA_?$AAu?$AAp?$AAd?$AAa?$AAt?$AAe?$AA?4?$AAG?$AAe?$AAt?$AAL?$AAo?$AAc?$AAa?$AAl?$AAe?$AAT?$AA?$CI?$AA?$CJ?$AA?9?$AA?$DO?$AAl?$AAo?$AAc?$AAi?$AAn?$AAf@ 22067008     LIBCMTD:mbtowc.obj
 0002:000130dc       ??_C@_1O@HJNPHHHB@?$AAf?$AAp?$AAu?$AAt?$AAw?$AAc?$AA?$AA@ 220670dc     LIBCMTD:fputwc.obj
 0002:000130f0       ??_C@_1GA@BJIGKGEA@?$AAf?$AA?3?$AA?2?$AAd?$AAd?$AA?2?$AAv?$AAc?$AAt?$AAo?$AAo?$AAl?$AAs?$AA?2?$AAc?$AAr?$AAt?$AA_?$AAb?$AAl?$AAd?$AA?2?$AAs?$AAe?$AAl?$AAf?$AA_?$AAx?$AA8?$AA6?$AA?2?$AAc@ 220670f0     LIBCMTD:fputwc.obj
 0002:00013150       ??_C@_1BM@JMKHIAHP@?$AA?$CI?$AAs?$AAt?$AAr?$AA?5?$AA?$CB?$AA?$DN?$AA?5?$AAN?$AAU?$AAL?$AAL?$AA?$CJ?$AA?$AA@ 22067150     LIBCMTD:fputwc.obj
 0002:0001316c       ??_C@_0DB@KIKNCIEC@f?3?2dd?2vctools?2crt_bld?2self_x86?2c@ 2206716c     LIBCMTD:osfinfo.obj
 0002:000131a0       ??_C@_1BO@EMBOBGKE@?$AA_?$AAg?$AAe?$AAt?$AA_?$AAo?$AAs?$AAf?$AAh?$AAa?$AAn?$AAd?$AAl?$AAe?$AA?$AA@ 220671a0     LIBCMTD:osfinfo.obj
 0002:000131c0       ??_C@_1GC@MLKLDJJG@?$AAf?$AA?3?$AA?2?$AAd?$AAd?$AA?2?$AAv?$AAc?$AAt?$AAo?$AAo?$AAl?$AAs?$AA?2?$AAc?$AAr?$AAt?$AA_?$AAb?$AAl?$AAd?$AA?2?$AAs?$AAe?$AAl?$AAf?$AA_?$AAx?$AA8?$AA6?$AA?2?$AAc@ 220671c0     LIBCMTD:osfinfo.obj
 0002:00013224       ??_C@_0DB@OLNNDFNH@f?3?2dd?2vctools?2crt_bld?2self_x86?2c@ 22067224     LIBCMTD:_sftbuf.obj
 0002:00013258       ??_C@_1GC@DGAFOCMO@?$AAf?$AA?3?$AA?2?$AAd?$AAd?$AA?2?$AAv?$AAc?$AAt?$AAo?$AAo?$AAl?$AAs?$AA?2?$AAc?$AAr?$AAt?$AA_?$AAb?$AAl?$AAd?$AA?2?$AAs?$AAe?$AAl?$AAf?$AA_?$AAx?$AA8?$AA6?$AA?2?$AAc@ 22067258     LIBCMTD:_sftbuf.obj
 0002:000132bc       ??_C@_1CO@KCKAACMI@?$AAf?$AAl?$AAa?$AAg?$AA?5?$AA?$DN?$AA?$DN?$AA?5?$AA0?$AA?5?$AA?$HM?$AA?$HM?$AA?5?$AAf?$AAl?$AAa?$AAg?$AA?5?$AA?$DN?$AA?$DN?$AA?5?$AA1?$AA?$AA@ 220672bc     LIBCMTD:_sftbuf.obj
 0002:000132ec       ??_C@_1BO@JGFPDJCP@?$AAv?$AAp?$AAr?$AAi?$AAn?$AAt?$AAf?$AA_?$AAh?$AAe?$AAl?$AAp?$AAe?$AAr?$AA?$AA@ 220672ec     LIBCMTD:vprintf.obj
 0002:00013310       ??_C@_1GC@DHFFJKMC@?$AAf?$AA?3?$AA?2?$AAd?$AAd?$AA?2?$AAv?$AAc?$AAt?$AAo?$AAo?$AAl?$AAs?$AA?2?$AAc?$AAr?$AAt?$AA_?$AAb?$AAl?$AAd?$AA?2?$AAs?$AAe?$AAl?$AAf?$AA_?$AAx?$AA8?$AA6?$AA?2?$AAc@ 22067310     LIBCMTD:vprintf.obj
 0002:00013374       ??_C@_1BG@GLLONOEH@?$AA_?$AAs?$AAt?$AAr?$AAi?$AAc?$AAm?$AAp?$AA_?$AAl?$AA?$AA@ 22067374     LIBCMTD:stricmp.obj
 0002:00013390       ??_C@_1GC@OILHAOLL@?$AAf?$AA?3?$AA?2?$AAd?$AAd?$AA?2?$AAv?$AAc?$AAt?$AAo?$AAo?$AAl?$AAs?$AA?2?$AAc?$AAr?$AAt?$AA_?$AAb?$AAl?$AAd?$AA?2?$AAs?$AAe?$AAl?$AAf?$AA_?$AAx?$AA8?$AA6?$AA?2?$AAc@ 22067390     LIBCMTD:stricmp.obj
 0002:000133f4       ??_C@_1BC@JLGKKIIG@?$AA_?$AAs?$AAt?$AAr?$AAi?$AAc?$AAm?$AAp?$AA?$AA@ 220673f4     LIBCMTD:stricmp.obj
 0002:00013408       ??_C@_1CC@JLPHKJPH@?$AAc?$AAo?$AAu?$AAn?$AAt?$AA?5?$AA?$DM?$AA?$DN?$AA?5?$AAI?$AAN?$AAT?$AA_?$AAM?$AAA?$AAX?$AA?$AA@ 22067408     LIBCMTD:strnicmp.obj
 0002:0001342c       ??_C@_1BI@BJLEPLEF@?$AA_?$AAs?$AAt?$AAr?$AAn?$AAi?$AAc?$AAm?$AAp?$AA_?$AAl?$AA?$AA@ 2206742c     LIBCMTD:strnicmp.obj
 0002:00013448       ??_C@_1GE@CONPOJMA@?$AAf?$AA?3?$AA?2?$AAd?$AAd?$AA?2?$AAv?$AAc?$AAt?$AAo?$AAo?$AAl?$AAs?$AA?2?$AAc?$AAr?$AAt?$AA_?$AAb?$AAl?$AAd?$AA?2?$AAs?$AAe?$AAl?$AAf?$AA_?$AAx?$AA8?$AA6?$AA?2?$AAc@ 22067448     LIBCMTD:strnicmp.obj
 0002:000134ac       ??_C@_1BE@BHJDFFNA@?$AA_?$AAs?$AAt?$AAr?$AAn?$AAi?$AAc?$AAm?$AAp?$AA?$AA@ 220674ac     LIBCMTD:strnicmp.obj
 0002:000134c0       ??_C@_1BA@PCFLFGNC@?$AAw?$AAc?$AAs?$AAt?$AAo?$AAx?$AAl?$AA?$AA@ 220674c0     LIBCMTD:wcstol.obj
 0002:000134d0       ??_C@_1GA@CADFOND@?$AAf?$AA?3?$AA?2?$AAd?$AAd?$AA?2?$AAv?$AAc?$AAt?$AAo?$AAo?$AAl?$AAs?$AA?2?$AAc?$AAr?$AAt?$AA_?$AAb?$AAl?$AAd?$AA?2?$AAs?$AAe?$AAl?$AAf?$AA_?$AAx?$AA8?$AA6?$AA?2?$AAc@ 220674d0     LIBCMTD:wcstol.obj
 0002:00013530       ??_C@_1BA@BALFACEM@?$AAC?$AAO?$AAN?$AAO?$AAU?$AAT?$AA$?$AA?$AA@ 22067530     LIBCMTD:initcon.obj
 0002:00013540       ??_C@_1O@EGMJNCOI@?$AAf?$AAc?$AAl?$AAo?$AAs?$AAe?$AA?$AA@ 22067540     LIBCMTD:fclose.obj
 0002:00013550       ??_C@_1GA@KMIDAPAP@?$AAf?$AA?3?$AA?2?$AAd?$AAd?$AA?2?$AAv?$AAc?$AAt?$AAo?$AAo?$AAl?$AAs?$AA?2?$AAc?$AAr?$AAt?$AA_?$AAb?$AAl?$AAd?$AA?2?$AAs?$AAe?$AAl?$AAf?$AA_?$AAx?$AA8?$AA6?$AA?2?$AAc@ 22067550     LIBCMTD:fclose.obj
 0002:000135b0       ??_C@_1BO@JINCABEC@?$AA_?$AAf?$AAc?$AAl?$AAo?$AAs?$AAe?$AA_?$AAn?$AAo?$AAl?$AAo?$AAc?$AAk?$AA?$AA@ 220675b0     LIBCMTD:fclose.obj
 0002:000135d0       ??_C@_1DG@LNNHNFHJ@?$AA?$CI?$AA_?$AAo?$AAs?$AAf?$AAi?$AAl?$AAe?$AA?$CI?$AAf?$AAi?$AAl?$AAe?$AAd?$AAe?$AAs?$AA?$CJ?$AA?5?$AA?$CG?$AA?5?$AAF?$AAO?$AAP?$AAE?$AAN?$AA?$CJ?$AA?$AA@ 220675d0     LIBCMTD:commit.obj
 0002:00013608       ??_C@_1BA@FLNMBBIM@?$AA_?$AAc?$AAo?$AAm?$AAm?$AAi?$AAt?$AA?$AA@ 22067608     LIBCMTD:commit.obj
 0002:00013618       ??_C@_1GA@BOPCOCFN@?$AAf?$AA?3?$AA?2?$AAd?$AAd?$AA?2?$AAv?$AAc?$AAt?$AAo?$AAo?$AAl?$AAs?$AA?2?$AAc?$AAr?$AAt?$AA_?$AAb?$AAl?$AAd?$AA?2?$AAs?$AAe?$AAl?$AAf?$AA_?$AAx?$AA8?$AA6?$AA?2?$AAc@ 22067618     LIBCMTD:commit.obj
 0002:00013678       ??_C@_1HC@KFLBHHBC@?$AA?$CI?$AAf?$AAi?$AAl?$AAe?$AAd?$AAe?$AAs?$AA?5?$AA?$DO?$AA?$DN?$AA?5?$AA0?$AA?5?$AA?$CG?$AA?$CG?$AA?5?$AA?$CI?$AAu?$AAn?$AAs?$AAi?$AAg?$AAn?$AAe?$AAd?$AA?$CJ?$AAf?$AAi?$AAl?$AAe?$AAd@ 22067678     LIBCMTD:commit.obj
 0002:000136ec       ??_C@_1O@EDEJGJBM@?$AA_?$AAc?$AAl?$AAo?$AAs?$AAe?$AA?$AA@ 220676ec     LIBCMTD:close.obj
 0002:00013700       ??_C@_1FO@NNGNFGFH@?$AAf?$AA?3?$AA?2?$AAd?$AAd?$AA?2?$AAv?$AAc?$AAt?$AAo?$AAo?$AAl?$AAs?$AA?2?$AAc?$AAr?$AAt?$AA_?$AAb?$AAl?$AAd?$AA?2?$AAs?$AAe?$AAl?$AAf?$AA_?$AAx?$AA8?$AA6?$AA?2?$AAc@ 22067700     LIBCMTD:close.obj
 0002:00013760       ??_C@_1GE@MIMBMOF@?$AAf?$AA?3?$AA?2?$AAd?$AAd?$AA?2?$AAv?$AAc?$AAt?$AAo?$AAo?$AAl?$AAs?$AA?2?$AAc?$AAr?$AAt?$AA_?$AAb?$AAl?$AAd?$AA?2?$AAs?$AAe?$AAl?$AAf?$AA_?$AAx?$AA8?$AA6?$AA?2?$AAc@ 22067760     LIBCMTD:_freebuf.obj
 0002:000137c4       ??_C@_1BO@KIJENGPH@?$AAs?$AAt?$AAr?$AAe?$AAa?$AAm?$AA?5?$AA?$CB?$AA?$DN?$AA?5?$AAN?$AAU?$AAL?$AAL?$AA?$AA@ 220677c4     LIBCMTD:_freebuf.obj
 0002:000137e8       __load_config_used         220677e8     LIBCMTD:loadcfg.obj
 0002:00013870       ??_R4CDsoFramerClassFactory@@6B@ 22067870     classfactory.obj
 0002:00013884       ??_R3CDsoFramerClassFactory@@8 22067884     classfactory.obj
 0002:00013894       ??_R2CDsoFramerClassFactory@@8 22067894     classfactory.obj
 0002:000138a4       ??_R1A@?0A@EA@CDsoFramerClassFactory@@8 220678a4     classfactory.obj
 0002:000138c0       ??_R1A@?0A@EA@IClassFactory@@8 220678c0     classfactory.obj
 0002:000138dc       ??_R3IClassFactory@@8      220678dc     classfactory.obj
 0002:000138ec       ??_R2IClassFactory@@8      220678ec     classfactory.obj
 0002:000138f8       ??_R1A@?0A@EA@IUnknown@@8  220678f8     classfactory.obj
 0002:00013914       ??_R3IUnknown@@8           22067914     classfactory.obj
 0002:00013924       ??_R2IUnknown@@8           22067924     classfactory.obj
 0002:0001392c       ??_R4CDsoFramerControl@@6B@ 2206792c     dsofcontrol.obj
 0002:00013940       ??_R3CDsoFramerControl@@8  22067940     dsofcontrol.obj
 0002:00013950       ??_R2CDsoFramerControl@@8  22067950     dsofcontrol.obj
 0002:00013964       ??_R1A@?0A@EA@CDsoFramerControl@@8 22067964     dsofcontrol.obj
 0002:00013980       ??_R1A@?0A@EA@_FramerControl@@8 22067980     dsofcontrol.obj
 0002:0001399c       ??_R3_FramerControl@@8     2206799c     dsofcontrol.obj
 0002:000139ac       ??_R2_FramerControl@@8     220679ac     dsofcontrol.obj
 0002:000139bc       ??_R1A@?0A@EA@IDispatch@@8 220679bc     dsofcontrol.obj
 0002:000139d8       ??_R3IDispatch@@8          220679d8     dsofcontrol.obj
 0002:000139e8       ??_R2IDispatch@@8          220679e8     dsofcontrol.obj
 0002:000139f4       ??_R4XInternalUnknown@CDsoFramerControl@@6B@ 220679f4     dsofcontrol.obj
 0002:00013a08       ??_R3XInternalUnknown@CDsoFramerControl@@8 22067a08     dsofcontrol.obj
 0002:00013a18       ??_R2XInternalUnknown@CDsoFramerControl@@8 22067a18     dsofcontrol.obj
 0002:00013a24       ??_R1A@?0A@EA@XInternalUnknown@CDsoFramerControl@@8 22067a24     dsofcontrol.obj
 0002:00013a40       ??_R4XPersistStreamInit@CDsoFramerControl@@6B@ 22067a40     dsofcontrol.obj
 0002:00013a54       ??_R3XPersistStreamInit@CDsoFramerControl@@8 22067a54     dsofcontrol.obj
 0002:00013a64       ??_R2XPersistStreamInit@CDsoFramerControl@@8 22067a64     dsofcontrol.obj
 0002:00013a78       ??_R1A@?0A@EA@XPersistStreamInit@CDsoFramerControl@@8 22067a78     dsofcontrol.obj
 0002:00013a94       ??_R1A@?0A@EA@IPersistStreamInit@@8 22067a94     dsofcontrol.obj
 0002:00013ab0       ??_R3IPersistStreamInit@@8 22067ab0     dsofcontrol.obj
 0002:00013ac0       ??_R2IPersistStreamInit@@8 22067ac0     dsofcontrol.obj
 0002:00013ad0       ??_R1A@?0A@EA@IPersist@@8  22067ad0     dsofcontrol.obj
 0002:00013aec       ??_R3IPersist@@8           22067aec     dsofcontrol.obj
 0002:00013afc       ??_R2IPersist@@8           22067afc     dsofcontrol.obj
 0002:00013b08       ??_R4XPersistPropertyBag@CDsoFramerControl@@6B@ 22067b08     dsofcontrol.obj
 0002:00013b1c       ??_R3XPersistPropertyBag@CDsoFramerControl@@8 22067b1c     dsofcontrol.obj
 0002:00013b2c       ??_R2XPersistPropertyBag@CDsoFramerControl@@8 22067b2c     dsofcontrol.obj
 0002:00013b40       ??_R1A@?0A@EA@XPersistPropertyBag@CDsoFramerControl@@8 22067b40     dsofcontrol.obj
 0002:00013b5c       ??_R1A@?0A@EA@IPersistPropertyBag@@8 22067b5c     dsofcontrol.obj
 0002:00013b78       ??_R3IPersistPropertyBag@@8 22067b78     dsofcontrol.obj
 0002:00013b88       ??_R2IPersistPropertyBag@@8 22067b88     dsofcontrol.obj
 0002:00013b98       ??_R4XPersistStorage@CDsoFramerControl@@6B@ 22067b98     dsofcontrol.obj
 0002:00013bac       ??_R3XPersistStorage@CDsoFramerControl@@8 22067bac     dsofcontrol.obj
 0002:00013bbc       ??_R2XPersistStorage@CDsoFramerControl@@8 22067bbc     dsofcontrol.obj
 0002:00013bd0       ??_R1A@?0A@EA@XPersistStorage@CDsoFramerControl@@8 22067bd0     dsofcontrol.obj
 0002:00013bec       ??_R1A@?0A@EA@IPersistStorage@@8 22067bec     dsofcontrol.obj
 0002:00013c08       ??_R3IPersistStorage@@8    22067c08     dsofcontrol.obj
 0002:00013c18       ??_R2IPersistStorage@@8    22067c18     dsofcontrol.obj
 0002:00013c28       ??_R4XOleObject@CDsoFramerControl@@6B@ 22067c28     dsofcontrol.obj
 0002:00013c3c       ??_R3XOleObject@CDsoFramerControl@@8 22067c3c     dsofcontrol.obj
 0002:00013c4c       ??_R2XOleObject@CDsoFramerControl@@8 22067c4c     dsofcontrol.obj
 0002:00013c5c       ??_R1A@?0A@EA@XOleObject@CDsoFramerControl@@8 22067c5c     dsofcontrol.obj
 0002:00013c78       ??_R1A@?0A@EA@IOleObject@@8 22067c78     dsofcontrol.obj
 0002:00013c94       ??_R3IOleObject@@8         22067c94     dsofcontrol.obj
 0002:00013ca4       ??_R2IOleObject@@8         22067ca4     dsofcontrol.obj
 0002:00013cb0       ??_R4XOleControl@CDsoFramerControl@@6B@ 22067cb0     dsofcontrol.obj
 0002:00013cc4       ??_R3XOleControl@CDsoFramerControl@@8 22067cc4     dsofcontrol.obj
 0002:00013cd4       ??_R2XOleControl@CDsoFramerControl@@8 22067cd4     dsofcontrol.obj
 0002:00013ce4       ??_R1A@?0A@EA@XOleControl@CDsoFramerControl@@8 22067ce4     dsofcontrol.obj
 0002:00013d00       ??_R1A@?0A@EA@IOleControl@@8 22067d00     dsofcontrol.obj
 0002:00013d1c       ??_R3IOleControl@@8        22067d1c     dsofcontrol.obj
 0002:00013d2c       ??_R2IOleControl@@8        22067d2c     dsofcontrol.obj
 0002:00013d38       ??_R4XOleInplaceObject@CDsoFramerControl@@6B@ 22067d38     dsofcontrol.obj
 0002:00013d4c       ??_R3XOleInplaceObject@CDsoFramerControl@@8 22067d4c     dsofcontrol.obj
 0002:00013d5c       ??_R2XOleInplaceObject@CDsoFramerControl@@8 22067d5c     dsofcontrol.obj
 0002:00013d70       ??_R1A@?0A@EA@XOleInplaceObject@CDsoFramerControl@@8 22067d70     dsofcontrol.obj
 0002:00013d8c       ??_R1A@?0A@EA@IOleInPlaceObject@@8 22067d8c     dsofcontrol.obj
 0002:00013da8       ??_R3IOleInPlaceObject@@8  22067da8     dsofcontrol.obj
 0002:00013db8       ??_R2IOleInPlaceObject@@8  22067db8     dsofcontrol.obj
 0002:00013dc8       ??_R1A@?0A@EA@IOleWindow@@8 22067dc8     dsofcontrol.obj
 0002:00013de4       ??_R3IOleWindow@@8         22067de4     dsofcontrol.obj
 0002:00013df4       ??_R2IOleWindow@@8         22067df4     dsofcontrol.obj
 0002:00013e00       ??_R4XOleInplaceActiveObject@CDsoFramerControl@@6B@ 22067e00     dsofcontrol.obj
 0002:00013e14       ??_R3XOleInplaceActiveObject@CDsoFramerControl@@8 22067e14     dsofcontrol.obj
 0002:00013e24       ??_R2XOleInplaceActiveObject@CDsoFramerControl@@8 22067e24     dsofcontrol.obj
 0002:00013e38       ??_R1A@?0A@EA@XOleInplaceActiveObject@CDsoFramerControl@@8 22067e38     dsofcontrol.obj
 0002:00013e54       ??_R1A@?0A@EA@IOleInPlaceActiveObject@@8 22067e54     dsofcontrol.obj
 0002:00013e70       ??_R3IOleInPlaceActiveObject@@8 22067e70     dsofcontrol.obj
 0002:00013e80       ??_R2IOleInPlaceActiveObject@@8 22067e80     dsofcontrol.obj
 0002:00013e90       ??_R4XViewObjectEx@CDsoFramerControl@@6B@ 22067e90     dsofcontrol.obj
 0002:00013ea4       ??_R3XViewObjectEx@CDsoFramerControl@@8 22067ea4     dsofcontrol.obj
 0002:00013eb4       ??_R2XViewObjectEx@CDsoFramerControl@@8 22067eb4     dsofcontrol.obj
 0002:00013ecc       ??_R1A@?0A@EA@XViewObjectEx@CDsoFramerControl@@8 22067ecc     dsofcontrol.obj
 0002:00013ee8       ??_R1A@?0A@EA@IViewObjectEx@@8 22067ee8     dsofcontrol.obj
 0002:00013f04       ??_R3IViewObjectEx@@8      22067f04     dsofcontrol.obj
 0002:00013f14       ??_R2IViewObjectEx@@8      22067f14     dsofcontrol.obj
 0002:00013f28       ??_R1A@?0A@EA@IViewObject2@@8 22067f28     dsofcontrol.obj
 0002:00013f44       ??_R3IViewObject2@@8       22067f44     dsofcontrol.obj
 0002:00013f54       ??_R2IViewObject2@@8       22067f54     dsofcontrol.obj
 0002:00013f64       ??_R1A@?0A@EA@IViewObject@@8 22067f64     dsofcontrol.obj
 0002:00013f80       ??_R3IViewObject@@8        22067f80     dsofcontrol.obj
 0002:00013f90       ??_R2IViewObject@@8        22067f90     dsofcontrol.obj
 0002:00013f9c       ??_R4XDataObject@CDsoFramerControl@@6B@ 22067f9c     dsofcontrol.obj
 0002:00013fb0       ??_R3XDataObject@CDsoFramerControl@@8 22067fb0     dsofcontrol.obj
 0002:00013fc0       ??_R2XDataObject@CDsoFramerControl@@8 22067fc0     dsofcontrol.obj
 0002:00013fd0       ??_R1A@?0A@EA@XDataObject@CDsoFramerControl@@8 22067fd0     dsofcontrol.obj
 0002:00013fec       ??_R1A@?0A@EA@IDataObject@@8 22067fec     dsofcontrol.obj
 0002:00014008       ??_R3IDataObject@@8        22068008     dsofcontrol.obj
 0002:00014018       ??_R2IDataObject@@8        22068018     dsofcontrol.obj
 0002:00014024       ??_R4XProvideClassInfo@CDsoFramerControl@@6B@ 22068024     dsofcontrol.obj
 0002:00014038       ??_R3XProvideClassInfo@CDsoFramerControl@@8 22068038     dsofcontrol.obj
 0002:00014048       ??_R2XProvideClassInfo@CDsoFramerControl@@8 22068048     dsofcontrol.obj
 0002:00014058       ??_R1A@?0A@EA@XProvideClassInfo@CDsoFramerControl@@8 22068058     dsofcontrol.obj
 0002:00014074       ??_R1A@?0A@EA@IProvideClassInfo@@8 22068074     dsofcontrol.obj
 0002:00014090       ??_R3IProvideClassInfo@@8  22068090     dsofcontrol.obj
 0002:000140a0       ??_R2IProvideClassInfo@@8  220680a0     dsofcontrol.obj
 0002:000140ac       ??_R4XConnectionPointContainer@CDsoFramerControl@@6B@ 220680ac     dsofcontrol.obj
 0002:000140c0       ??_R3XConnectionPointContainer@CDsoFramerControl@@8 220680c0     dsofcontrol.obj
 0002:000140d0       ??_R2XConnectionPointContainer@CDsoFramerControl@@8 220680d0     dsofcontrol.obj
 0002:000140e0       ??_R1A@?0A@EA@XConnectionPointContainer@CDsoFramerControl@@8 220680e0     dsofcontrol.obj
 0002:000140fc       ??_R1A@?0A@EA@IConnectionPointContainer@@8 220680fc     dsofcontrol.obj
 0002:00014118       ??_R3IConnectionPointContainer@@8 22068118     dsofcontrol.obj
 0002:00014128       ??_R2IConnectionPointContainer@@8 22068128     dsofcontrol.obj
 0002:00014134       ??_R4XEnumConnectionPoints@CDsoFramerControl@@6B@ 22068134     dsofcontrol.obj
 0002:00014148       ??_R3XEnumConnectionPoints@CDsoFramerControl@@8 22068148     dsofcontrol.obj
 0002:00014158       ??_R2XEnumConnectionPoints@CDsoFramerControl@@8 22068158     dsofcontrol.obj
 0002:00014168       ??_R1A@?0A@EA@XEnumConnectionPoints@CDsoFramerControl@@8 22068168     dsofcontrol.obj
 0002:00014184       ??_R1A@?0A@EA@IEnumConnectionPoints@@8 22068184     dsofcontrol.obj
 0002:000141a0       ??_R3IEnumConnectionPoints@@8 220681a0     dsofcontrol.obj
 0002:000141b0       ??_R2IEnumConnectionPoints@@8 220681b0     dsofcontrol.obj
 0002:000141bc       ??_R4XConnectionPoint@CDsoFramerControl@@6B@ 220681bc     dsofcontrol.obj
 0002:000141d0       ??_R3XConnectionPoint@CDsoFramerControl@@8 220681d0     dsofcontrol.obj
 0002:000141e0       ??_R2XConnectionPoint@CDsoFramerControl@@8 220681e0     dsofcontrol.obj
 0002:000141f0       ??_R1A@?0A@EA@XConnectionPoint@CDsoFramerControl@@8 220681f0     dsofcontrol.obj
 0002:0001420c       ??_R1A@?0A@EA@IConnectionPoint@@8 2206820c     dsofcontrol.obj
 0002:00014228       ??_R3IConnectionPoint@@8   22068228     dsofcontrol.obj
 0002:00014238       ??_R2IConnectionPoint@@8   22068238     dsofcontrol.obj
 0002:00014244       ??_R4XOleCommandTarget@CDsoFramerControl@@6B@ 22068244     dsofcontrol.obj
 0002:00014258       ??_R3XOleCommandTarget@CDsoFramerControl@@8 22068258     dsofcontrol.obj
 0002:00014268       ??_R2XOleCommandTarget@CDsoFramerControl@@8 22068268     dsofcontrol.obj
 0002:00014278       ??_R1A@?0A@EA@XOleCommandTarget@CDsoFramerControl@@8 22068278     dsofcontrol.obj
 0002:00014294       ??_R1A@?0A@EA@IOleCommandTarget@@8 22068294     dsofcontrol.obj
 0002:000142b0       ??_R3IOleCommandTarget@@8  220682b0     dsofcontrol.obj
 0002:000142c0       ??_R2IOleCommandTarget@@8  220682c0     dsofcontrol.obj
 0002:000142cc       ??_R4XSupportErrorInfo@CDsoFramerControl@@6B@ 220682cc     dsofcontrol.obj
 0002:000142e0       ??_R3XSupportErrorInfo@CDsoFramerControl@@8 220682e0     dsofcontrol.obj
 0002:000142f0       ??_R2XSupportErrorInfo@CDsoFramerControl@@8 220682f0     dsofcontrol.obj
 0002:00014300       ??_R1A@?0A@EA@XSupportErrorInfo@CDsoFramerControl@@8 22068300     dsofcontrol.obj
 0002:0001431c       ??_R1A@?0A@EA@ISupportErrorInfo@@8 2206831c     dsofcontrol.obj
 0002:00014338       ??_R3ISupportErrorInfo@@8  22068338     dsofcontrol.obj
 0002:00014348       ??_R2ISupportErrorInfo@@8  22068348     dsofcontrol.obj
 0002:00014354       ??_R4XObjectSafety@CDsoFramerControl@@6B@ 22068354     dsofcontrol.obj
 0002:00014368       ??_R3XObjectSafety@CDsoFramerControl@@8 22068368     dsofcontrol.obj
 0002:00014378       ??_R2XObjectSafety@CDsoFramerControl@@8 22068378     dsofcontrol.obj
 0002:00014388       ??_R1A@?0A@EA@XObjectSafety@CDsoFramerControl@@8 22068388     dsofcontrol.obj
 0002:000143a4       ??_R1A@?0A@EA@IObjectSafety@@8 220683a4     dsofcontrol.obj
 0002:000143c0       ??_R3IObjectSafety@@8      220683c0     dsofcontrol.obj
 0002:000143d0       ??_R2IObjectSafety@@8      220683d0     dsofcontrol.obj
 0002:000143dc       ??_R4XDsoDocObjectSite@CDsoFramerControl@@6B@ 220683dc     dsofcontrol.obj
 0002:000143f0       ??_R3XDsoDocObjectSite@CDsoFramerControl@@8 220683f0     dsofcontrol.obj
 0002:00014400       ??_R2XDsoDocObjectSite@CDsoFramerControl@@8 22068400     dsofcontrol.obj
 0002:00014414       ??_R1A@?0A@EA@XDsoDocObjectSite@CDsoFramerControl@@8 22068414     dsofcontrol.obj
 0002:00014430       ??_R1A@?0A@EA@IDsoDocObjectSite@@8 22068430     dsofcontrol.obj
 0002:0001444c       ??_R3IDsoDocObjectSite@@8  2206844c     dsofcontrol.obj
 0002:0001445c       ??_R2IDsoDocObjectSite@@8  2206845c     dsofcontrol.obj
 0002:0001446c       ??_R1A@?0A@EA@IServiceProvider@@8 2206846c     dsofcontrol.obj
 0002:00014488       ??_R3IServiceProvider@@8   22068488     dsofcontrol.obj
 0002:00014498       ??_R2IServiceProvider@@8   22068498     dsofcontrol.obj
 0002:000144a4       ??_R4IDsoDocObjectSite@@6B@ 220684a4     dsofcontrol.obj
 0002:000144b8       ??_R4CDsoDocObject@@6B@    220684b8     dsofdocobj.obj
 0002:000144cc       ??_R3CDsoDocObject@@8      220684cc     dsofdocobj.obj
 0002:000144dc       ??_R2CDsoDocObject@@8      220684dc     dsofdocobj.obj
 0002:000144e8       ??_R1A@?0A@EA@CDsoDocObject@@8 220684e8     dsofdocobj.obj
 0002:00014504       ??_R4XOleClientSite@CDsoDocObject@@6B@ 22068504     dsofdocobj.obj
 0002:00014518       ??_R3XOleClientSite@CDsoDocObject@@8 22068518     dsofdocobj.obj
 0002:00014528       ??_R2XOleClientSite@CDsoDocObject@@8 22068528     dsofdocobj.obj
 0002:00014538       ??_R1A@?0A@EA@XOleClientSite@CDsoDocObject@@8 22068538     dsofdocobj.obj
 0002:00014554       ??_R1A@?0A@EA@IOleClientSite@@8 22068554     dsofdocobj.obj
 0002:00014570       ??_R3IOleClientSite@@8     22068570     dsofdocobj.obj
 0002:00014580       ??_R2IOleClientSite@@8     22068580     dsofdocobj.obj
 0002:0001458c       ??_R4XOleInPlaceSite@CDsoDocObject@@6B@ 2206858c     dsofdocobj.obj
 0002:000145a0       ??_R3XOleInPlaceSite@CDsoDocObject@@8 220685a0     dsofdocobj.obj
 0002:000145b0       ??_R2XOleInPlaceSite@CDsoDocObject@@8 220685b0     dsofdocobj.obj
 0002:000145c4       ??_R1A@?0A@EA@XOleInPlaceSite@CDsoDocObject@@8 220685c4     dsofdocobj.obj
 0002:000145e0       ??_R1A@?0A@EA@IOleInPlaceSite@@8 220685e0     dsofdocobj.obj
 0002:000145fc       ??_R3IOleInPlaceSite@@8    220685fc     dsofdocobj.obj
 0002:0001460c       ??_R2IOleInPlaceSite@@8    2206860c     dsofdocobj.obj
 0002:0001461c       ??_R4XOleDocumentSite@CDsoDocObject@@6B@ 2206861c     dsofdocobj.obj
 0002:00014630       ??_R3XOleDocumentSite@CDsoDocObject@@8 22068630     dsofdocobj.obj
 0002:00014640       ??_R2XOleDocumentSite@CDsoDocObject@@8 22068640     dsofdocobj.obj
 0002:00014650       ??_R1A@?0A@EA@XOleDocumentSite@CDsoDocObject@@8 22068650     dsofdocobj.obj
 0002:0001466c       ??_R1A@?0A@EA@IOleDocumentSite@@8 2206866c     dsofdocobj.obj
 0002:00014688       ??_R3IOleDocumentSite@@8   22068688     dsofdocobj.obj
 0002:00014698       ??_R2IOleDocumentSite@@8   22068698     dsofdocobj.obj
 0002:000146a4       ??_R4XOleInPlaceFrame@CDsoDocObject@@6B@ 220686a4     dsofdocobj.obj
 0002:000146b8       ??_R3XOleInPlaceFrame@CDsoDocObject@@8 220686b8     dsofdocobj.obj
 0002:000146c8       ??_R2XOleInPlaceFrame@CDsoDocObject@@8 220686c8     dsofdocobj.obj
 0002:000146e0       ??_R1A@?0A@EA@XOleInPlaceFrame@CDsoDocObject@@8 220686e0     dsofdocobj.obj
 0002:000146fc       ??_R1A@?0A@EA@IOleInPlaceFrame@@8 220686fc     dsofdocobj.obj
 0002:00014718       ??_R3IOleInPlaceFrame@@8   22068718     dsofdocobj.obj
 0002:00014728       ??_R2IOleInPlaceFrame@@8   22068728     dsofdocobj.obj
 0002:0001473c       ??_R1A@?0A@EA@IOleInPlaceUIWindow@@8 2206873c     dsofdocobj.obj
 0002:00014758       ??_R3IOleInPlaceUIWindow@@8 22068758     dsofdocobj.obj
 0002:00014768       ??_R2IOleInPlaceUIWindow@@8 22068768     dsofdocobj.obj
 0002:00014778       ??_R4XOleCommandTarget@CDsoDocObject@@6B@ 22068778     dsofdocobj.obj
 0002:0001478c       ??_R3XOleCommandTarget@CDsoDocObject@@8 2206878c     dsofdocobj.obj
 0002:0001479c       ??_R2XOleCommandTarget@CDsoDocObject@@8 2206879c     dsofdocobj.obj
 0002:000147ac       ??_R1A@?0A@EA@XOleCommandTarget@CDsoDocObject@@8 220687ac     dsofdocobj.obj
 0002:000147c8       ??_R4XServiceProvider@CDsoDocObject@@6B@ 220687c8     dsofdocobj.obj
 0002:000147dc       ??_R3XServiceProvider@CDsoDocObject@@8 220687dc     dsofdocobj.obj
 0002:000147ec       ??_R2XServiceProvider@CDsoDocObject@@8 220687ec     dsofdocobj.obj
 0002:000147fc       ??_R1A@?0A@EA@XServiceProvider@CDsoDocObject@@8 220687fc     dsofdocobj.obj
 0002:00014818       ??_R4XAuthenticate@CDsoDocObject@@6B@ 22068818     dsofdocobj.obj
 0002:0001482c       ??_R3XAuthenticate@CDsoDocObject@@8 2206882c     dsofdocobj.obj
 0002:0001483c       ??_R2XAuthenticate@CDsoDocObject@@8 2206883c     dsofdocobj.obj
 0002:0001484c       ??_R1A@?0A@EA@XAuthenticate@CDsoDocObject@@8 2206884c     dsofdocobj.obj
 0002:00014868       ??_R1A@?0A@EA@IAuthenticate@@8 22068868     dsofdocobj.obj
 0002:00014884       ??_R3IAuthenticate@@8      22068884     dsofdocobj.obj
 0002:00014894       ??_R2IAuthenticate@@8      22068894     dsofdocobj.obj
 0002:000148a0       ??_R4XContinueCallback@CDsoDocObject@@6B@ 220688a0     dsofdocobj.obj
 0002:000148b4       ??_R3XContinueCallback@CDsoDocObject@@8 220688b4     dsofdocobj.obj
 0002:000148c4       ??_R2XContinueCallback@CDsoDocObject@@8 220688c4     dsofdocobj.obj
 0002:000148d4       ??_R1A@?0A@EA@XContinueCallback@CDsoDocObject@@8 220688d4     dsofdocobj.obj
 0002:000148f0       ??_R1A@?0A@EA@IContinueCallback@@8 220688f0     dsofdocobj.obj
 0002:0001490c       ??_R3IContinueCallback@@8  2206890c     dsofdocobj.obj
 0002:0001491c       ??_R2IContinueCallback@@8  2206891c     dsofdocobj.obj
 0002:00014928       ??_R4XPreviewCallback@CDsoDocObject@@6B@ 22068928     dsofdocobj.obj
 0002:0001493c       ??_R3XPreviewCallback@CDsoDocObject@@8 2206893c     dsofdocobj.obj
 0002:0001494c       ??_R2XPreviewCallback@CDsoDocObject@@8 2206894c     dsofdocobj.obj
 0002:0001495c       ??_R1A@?0A@EA@XPreviewCallback@CDsoDocObject@@8 2206895c     dsofdocobj.obj
 0002:00014978       ??_R1A@?0A@EA@IOlePreviewCallback@@8 22068978     dsofdocobj.obj
 0002:00014994       ??_R3IOlePreviewCallback@@8 22068994     dsofdocobj.obj
 0002:000149a4       ??_R2IOlePreviewCallback@@8 220689a4     dsofdocobj.obj
 0002:000149b0       ??_R4type_info@@6B@        220689b0     LIBCMTD:typinfo.obj
 0002:000149c4       ??_R3type_info@@8          220689c4     LIBCMTD:typinfo.obj
 0002:000149d4       ??_R2type_info@@8          220689d4     LIBCMTD:typinfo.obj
 0002:000149dc       ??_R1A@?0A@EA@type_info@@8 220689dc     LIBCMTD:typinfo.obj
 0002:000149f8       ??_R4bad_exception@std@@6B@ 220689f8     LIBCMTD:frame.obj
 0002:00014a0c       ??_R3bad_exception@std@@8  22068a0c     LIBCMTD:frame.obj
 0002:00014a1c       ??_R2bad_exception@std@@8  22068a1c     LIBCMTD:frame.obj
 0002:00014a28       ??_R1A@?0A@EA@bad_exception@std@@8 22068a28     LIBCMTD:frame.obj
 0002:00014a44       ??_R1A@?0A@EA@exception@std@@8 22068a44     LIBCMTD:frame.obj
 0002:00014a60       ??_R3exception@std@@8      22068a60     LIBCMTD:frame.obj
 0002:00014a70       ??_R2exception@std@@8      22068a70     LIBCMTD:frame.obj
 0002:00014a78       ??_R4exception@std@@6B@    22068a78     LIBCMTD:stdexcpt.obj
 0002:00014a8c       ??_R4bad_cast@std@@6B@     22068a8c     LIBCMTD:stdexcpt.obj
 0002:00014aa0       ??_R3bad_cast@std@@8       22068aa0     LIBCMTD:stdexcpt.obj
 0002:00014ab0       ??_R2bad_cast@std@@8       22068ab0     LIBCMTD:stdexcpt.obj
 0002:00014abc       ??_R1A@?0A@EA@bad_cast@std@@8 22068abc     LIBCMTD:stdexcpt.obj
 0002:00014ad8       ??_R4bad_typeid@std@@6B@   22068ad8     LIBCMTD:stdexcpt.obj
 0002:00014aec       ??_R3bad_typeid@std@@8     22068aec     LIBCMTD:stdexcpt.obj
 0002:00014afc       ??_R2bad_typeid@std@@8     22068afc     LIBCMTD:stdexcpt.obj
 0002:00014b08       ??_R1A@?0A@EA@bad_typeid@std@@8 22068b08     LIBCMTD:stdexcpt.obj
 0002:00014b24       ??_R4__non_rtti_object@std@@6B@ 22068b24     LIBCMTD:stdexcpt.obj
 0002:00014b38       ??_R3__non_rtti_object@std@@8 22068b38     LIBCMTD:stdexcpt.obj
 0002:00014b48       ??_R2__non_rtti_object@std@@8 22068b48     LIBCMTD:stdexcpt.obj
 0002:00014b58       ??_R1A@?0A@EA@__non_rtti_object@std@@8 22068b58     LIBCMTD:stdexcpt.obj
 0002:00014b80       ___safe_se_handler_table   22068b80     <linker-defined>
 0002:00014bcc       ___rtc_iaa                 22068bcc     LIBCMTD:_initsect_.obj
 0002:00014bd0       ___rtc_izz                 22068bd0     LIBCMTD:_initsect_.obj
 0002:00014bd4       ___rtc_taa                 22068bd4     LIBCMTD:_initsect_.obj
 0002:00014bd8       ___rtc_tzz                 22068bd8     LIBCMTD:_initsect_.obj
 0002:000150c4       __TI2?AVbad_exception@std@@ 220690c4     LIBCMTD:frame.obj
 0002:000150d4       __CTA2?AVbad_exception@std@@ 220690d4     LIBCMTD:frame.obj
 0002:000150e0       __CT??_R0?AVbad_exception@std@@@8??0bad_exception@std@@QAE@ABV01@@Z12 220690e0     LIBCMTD:frame.obj
 0002:000150fc       __CT??_R0?AVexception@std@@@8??0exception@std@@QAE@ABV01@@Z12 220690fc     LIBCMTD:frame.obj
 0002:00015a24       __IMPORT_DESCRIPTOR_oledlg 22069a24     oledlg:oledlg.dll
 0002:00015a38       __IMPORT_DESCRIPTOR_KERNEL32 22069a38     kernel32:KERNEL32.dll
 0002:00015a4c       __IMPORT_DESCRIPTOR_USER32 22069a4c     user32:USER32.dll
 0002:00015a60       __IMPORT_DESCRIPTOR_GDI32  22069a60     gdi32:GDI32.dll
 0002:00015a74       __IMPORT_DESCRIPTOR_WINSPOOL 22069a74     winspool:WINSPOOL.DRV
 0002:00015a88       __IMPORT_DESCRIPTOR_COMDLG32 22069a88     comdlg32:COMDLG32.dll
 0002:00015a9c       __IMPORT_DESCRIPTOR_ADVAPI32 22069a9c     advapi32:ADVAPI32.dll
 0002:00015ab0       __IMPORT_DESCRIPTOR_SHELL32 22069ab0     shell32:SHELL32.dll
 0002:00015ac4       __IMPORT_DESCRIPTOR_ole32  22069ac4     ole32:ole32.dll
 0002:00015ad8       __IMPORT_DESCRIPTOR_OLEAUT32 22069ad8     oleaut32:OLEAUT32.dll
 0002:00015aec       __NULL_IMPORT_DESCRIPTOR   22069aec     oledlg:oledlg.dll
 0003:00000000       ??_R0?AVCDsoFramerClassFactory@@@8 2206c000     classfactory.obj
 0003:00000028       ??_R0?AUIClassFactory@@@8  2206c028     classfactory.obj
 0003:00000044       ??_R0?AUIUnknown@@@8       2206c044     classfactory.obj
 0003:0000005c       ??_R0?AVCDsoFramerControl@@@8 2206c05c     dsofcontrol.obj
 0003:0000007c       ??_R0?AU_FramerControl@@@8 2206c07c     dsofcontrol.obj
 0003:0000009c       ??_R0?AUIDispatch@@@8      2206c09c     dsofcontrol.obj
 0003:000000b4       ??_R0?AVXInternalUnknown@CDsoFramerControl@@@8 2206c0b4     dsofcontrol.obj
 0003:000000e8       ??_R0?AVXPersistStreamInit@CDsoFramerControl@@@8 2206c0e8     dsofcontrol.obj
 0003:0000011c       ??_R0?AUIPersistStreamInit@@@8 2206c11c     dsofcontrol.obj
 0003:00000140       ??_R0?AUIPersist@@@8       2206c140     dsofcontrol.obj
 0003:00000158       ??_R0?AVXPersistPropertyBag@CDsoFramerControl@@@8 2206c158     dsofcontrol.obj
 0003:0000018c       ??_R0?AUIPersistPropertyBag@@@8 2206c18c     dsofcontrol.obj
 0003:000001b0       ??_R0?AVXPersistStorage@CDsoFramerControl@@@8 2206c1b0     dsofcontrol.obj
 0003:000001e0       ??_R0?AUIPersistStorage@@@8 2206c1e0     dsofcontrol.obj
 0003:00000200       ??_R0?AVXOleObject@CDsoFramerControl@@@8 2206c200     dsofcontrol.obj
 0003:0000022c       ??_R0?AUIOleObject@@@8     2206c22c     dsofcontrol.obj
 0003:00000248       ??_R0?AVXOleControl@CDsoFramerControl@@@8 2206c248     dsofcontrol.obj
 0003:00000274       ??_R0?AUIOleControl@@@8    2206c274     dsofcontrol.obj
 0003:00000290       ??_R0?AVXOleInplaceObject@CDsoFramerControl@@@8 2206c290     dsofcontrol.obj
 0003:000002c4       ??_R0?AUIOleInPlaceObject@@@8 2206c2c4     dsofcontrol.obj
 0003:000002e4       ??_R0?AUIOleWindow@@@8     2206c2e4     dsofcontrol.obj
 0003:00000300       ??_R0?AVXOleInplaceActiveObject@CDsoFramerControl@@@8 2206c300     dsofcontrol.obj
 0003:00000338       ??_R0?AUIOleInPlaceActiveObject@@@8 2206c338     dsofcontrol.obj
 0003:00000360       ??_R0?AVXViewObjectEx@CDsoFramerControl@@@8 2206c360     dsofcontrol.obj
 0003:00000390       ??_R0?AUIViewObjectEx@@@8  2206c390     dsofcontrol.obj
 0003:000003ac       ??_R0?AUIViewObject2@@@8   2206c3ac     dsofcontrol.obj
 0003:000003c8       ??_R0?AUIViewObject@@@8    2206c3c8     dsofcontrol.obj
 0003:000003e4       ??_R0?AVXDataObject@CDsoFramerControl@@@8 2206c3e4     dsofcontrol.obj
 0003:00000410       ??_R0?AUIDataObject@@@8    2206c410     dsofcontrol.obj
 0003:0000042c       ??_R0?AVXProvideClassInfo@CDsoFramerControl@@@8 2206c42c     dsofcontrol.obj
 0003:00000460       ??_R0?AUIProvideClassInfo@@@8 2206c460     dsofcontrol.obj
 0003:00000480       ??_R0?AVXConnectionPointContainer@CDsoFramerControl@@@8 2206c480     dsofcontrol.obj
 0003:000004bc       ??_R0?AUIConnectionPointContainer@@@8 2206c4bc     dsofcontrol.obj
 0003:000004e4       ??_R0?AVXEnumConnectionPoints@CDsoFramerControl@@@8 2206c4e4     dsofcontrol.obj
 0003:0000051c       ??_R0?AUIEnumConnectionPoints@@@8 2206c51c     dsofcontrol.obj
 0003:00000540       ??_R0?AVXConnectionPoint@CDsoFramerControl@@@8 2206c540     dsofcontrol.obj
 0003:00000574       ??_R0?AUIConnectionPoint@@@8 2206c574     dsofcontrol.obj
 0003:00000594       ??_R0?AVXOleCommandTarget@CDsoFramerControl@@@8 2206c594     dsofcontrol.obj
 0003:000005c8       ??_R0?AUIOleCommandTarget@@@8 2206c5c8     dsofcontrol.obj
 0003:000005e8       ??_R0?AVXSupportErrorInfo@CDsoFramerControl@@@8 2206c5e8     dsofcontrol.obj
 0003:0000061c       ??_R0?AUISupportErrorInfo@@@8 2206c61c     dsofcontrol.obj
 0003:0000063c       ??_R0?AVXObjectSafety@CDsoFramerControl@@@8 2206c63c     dsofcontrol.obj
 0003:0000066c       ??_R0?AUIObjectSafety@@@8  2206c66c     dsofcontrol.obj
 0003:00000688       ??_R0?AVXDsoDocObjectSite@CDsoFramerControl@@@8 2206c688     dsofcontrol.obj
 0003:000006bc       ??_R0?AUIDsoDocObjectSite@@@8 2206c6bc     dsofcontrol.obj
 0003:000006dc       ??_R0?AUIServiceProvider@@@8 2206c6dc     dsofcontrol.obj
 0003:000006fc       ??_R0?AVCDsoDocObject@@@8  2206c6fc     dsofdocobj.obj
 0003:00000718       ??_R0?AVXOleClientSite@CDsoDocObject@@@8 2206c718     dsofdocobj.obj
 0003:00000744       ??_R0?AUIOleClientSite@@@8 2206c744     dsofdocobj.obj
 0003:00000764       ??_R0?AVXOleInPlaceSite@CDsoDocObject@@@8 2206c764     dsofdocobj.obj
 0003:00000790       ??_R0?AUIOleInPlaceSite@@@8 2206c790     dsofdocobj.obj
 0003:000007b0       ??_R0?AVXOleDocumentSite@CDsoDocObject@@@8 2206c7b0     dsofdocobj.obj
 0003:000007e0       ??_R0?AUIOleDocumentSite@@@8 2206c7e0     dsofdocobj.obj
 0003:00000800       ??_R0?AVXOleInPlaceFrame@CDsoDocObject@@@8 2206c800     dsofdocobj.obj
 0003:00000830       ??_R0?AUIOleInPlaceFrame@@@8 2206c830     dsofdocobj.obj
 0003:00000850       ??_R0?AUIOleInPlaceUIWindow@@@8 2206c850     dsofdocobj.obj
 0003:00000874       ??_R0?AVXOleCommandTarget@CDsoDocObject@@@8 2206c874     dsofdocobj.obj
 0003:000008a4       ??_R0?AVXServiceProvider@CDsoDocObject@@@8 2206c8a4     dsofdocobj.obj
 0003:000008d4       ??_R0?AVXAuthenticate@CDsoDocObject@@@8 2206c8d4     dsofdocobj.obj
 0003:00000900       ??_R0?AUIAuthenticate@@@8  2206c900     dsofdocobj.obj
 0003:0000091c       ??_R0?AVXContinueCallback@CDsoDocObject@@@8 2206c91c     dsofdocobj.obj
 0003:0000094c       ??_R0?AUIContinueCallback@@@8 2206c94c     dsofdocobj.obj
 0003:0000096c       ??_R0?AVXPreviewCallback@CDsoDocObject@@@8 2206c96c     dsofdocobj.obj
 0003:0000099c       ??_R0?AUIOlePreviewCallback@@@8 2206c99c     dsofdocobj.obj
 0003:000009c0       ___security_cookie         2206c9c0     LIBCMTD:gs_cookie.obj
 0003:000009c4       ___security_cookie_complement 2206c9c4     LIBCMTD:gs_cookie.obj
 0003:000009c8       ??_R0?AVtype_info@@@8      2206c9c8     LIBCMTD:typinfo.obj
 0003:000009e0       ??_R0?AVbad_exception@std@@@8 2206c9e0     LIBCMTD:frame.obj
 0003:00000a00       ??_R0?AVexception@std@@@8  2206ca00     LIBCMTD:frame.obj
 0003:00000a20       ___flsindex                2206ca20     LIBCMTD:tidtable.obj
 0003:00000a24       ___getvalueindex           2206ca24     LIBCMTD:tidtable.obj
 0003:00000a30       __crtDbgFlag               2206ca30     LIBCMTD:dbgheap.obj
 0003:00000a34       ___crtDebugFillThreshold   2206ca34     LIBCMTD:dbgheap.obj
 0003:00000a3c       __crtBreakAlloc            2206ca3c     LIBCMTD:dbgheap.obj
 0003:00000a48       ___badioinfo               2206ca48     LIBCMTD:ioinit.obj
 0003:00000a88       __pfnAllocHook             2206ca88     LIBCMTD:dbghook.obj
 0003:00000bc0       ??_R0?AVbad_cast@std@@@8   2206cbc0     LIBCMTD:stdexcpt.obj
 0003:00000bdc       ??_R0?AVbad_typeid@std@@@8 2206cbdc     LIBCMTD:stdexcpt.obj
 0003:00000bfc       ??_R0?AV__non_rtti_object@std@@@8 2206cbfc     LIBCMTD:stdexcpt.obj
 0003:00000c20       __NLG_Destination          2206cc20     LIBCMTD:exsup.obj
 0003:00000c30       ___clocalestr              2206cc30     LIBCMTD:nlsdata2.obj
 0003:00000c38       ___lc_time_c               2206cc38     LIBCMTD:nlsdata2.obj
 0003:00000da0       ___initiallocinfo          2206cda0     LIBCMTD:nlsdata2.obj
 0003:00000e78       ___ptlocinfo               2206ce78     LIBCMTD:nlsdata2.obj
 0003:00000e7c       ___initiallocalestructinfo 2206ce7c     LIBCMTD:nlsdata2.obj
 0003:00000e88       ___initialmbcinfo          2206ce88     LIBCMTD:mbctype.obj
 0003:000010a8       __mbctype                  2206d0a8     LIBCMTD:mbctype.obj
 0003:000011b0       __mbcasemap                2206d1b0     LIBCMTD:mbctype.obj
 0003:000012b0       ___ptmbcinfo               2206d2b0     LIBCMTD:mbctype.obj
 0003:000013a8       ___abort_behavior          2206d3a8     LIBCMTD:abort.obj
 0003:00001524       ___globallocalestatus      2206d524     LIBCMTD:glstatus.obj
 0003:00001528       __cfltcvt_tab              2206d528     LIBCMTD:cmiscdat.obj
 0003:00001550       __crtAssertBusy            2206d550     LIBCMTD:dbgrptt.obj
 0003:00001554       __CrtDbgMode               2206d554     LIBCMTD:dbgrptt.obj
 0003:00001560       __CrtDbgFile               2206d560     LIBCMTD:dbgrptt.obj
 0003:00001570       ___lconv_static_decimal    2206d570     LIBCMTD:lconv.obj
 0003:00001574       ___lconv_static_W_decimal  2206d574     LIBCMTD:lconv.obj
 0003:00001578       ___lconv_c                 2206d578     LIBCMTD:lconv.obj
 0003:000015c8       ___lconv                   2206d5c8     LIBCMTD:lconv.obj
 0003:000015cc       __pctype                   2206d5cc     LIBCMTD:ctype.obj
 0003:000015d0       __pwctype                  2206d5d0     LIBCMTD:ctype.obj
 0003:000015d4       ___nullstring              2206d5d4     LIBCMTD:output.obj
 0003:000015d8       ___wnullstring             2206d5d8     LIBCMTD:output.obj
 0003:000015e0       __iob                      2206d5e0     LIBCMTD:_file.obj
 0003:00001860       ___mb_cur_max              2206d860     LIBCMTD:nlsdata1.obj
 0003:00001864       ___decimal_point           2206d864     LIBCMTD:nlsdata1.obj
 0003:00001868       ___decimal_point_length    2206d868     LIBCMTD:nlsdata1.obj
 0003:00001870       __confh                    2206d870     LIBCMTD:initcon.obj
 0003:00001880       ?vgGlobalManager@@3PAVCDsoFrameHookManager@@A 2206d880     dsofcontrol.obj
 0003:00001884       ?v_csecThreadSynch@@3U_RTL_CRITICAL_SECTION@@A 2206d884     mainentry.obj
 0003:0000189c       ?v_hModule@@3PAUHINSTANCE__@@A 2206d89c     mainentry.obj
 0003:000018a0       ?v_hPrivateHeap@@3PAXA     2206d8a0     mainentry.obj
 0003:000018a4       ?v_cLocks@@3KA             2206d8a4     mainentry.obj
 0003:000018a8       ?v_icoOffDocIcon@@3PAUHICON__@@A 2206d8a8     mainentry.obj
 0003:000018ac       ?v_fUnicodeAPI@@3HA        2206d8ac     mainentry.obj
 0003:000018b0       ?v_fWindows2KPlus@@3HA     2206d8b0     mainentry.obj
 0003:000018bc       __aenvptr                  2206d8bc     LIBCMTD:dllcrt0.obj
 0003:000018c0       __wenvptr                  2206d8c0     LIBCMTD:dllcrt0.obj
 0003:000018c4       ___error_mode              2206d8c4     LIBCMTD:dllcrt0.obj
 0003:000018c8       ___app_type                2206d8c8     LIBCMTD:dllcrt0.obj
 0003:00001bfc       _gpFlsAlloc                2206dbfc     LIBCMTD:tidtable.obj
 0003:00001c00       _gpFlsGetValue             2206dc00     LIBCMTD:tidtable.obj
 0003:00001c04       _gpFlsSetValue             2206dc04     LIBCMTD:tidtable.obj
 0003:00001c08       _gpFlsFree                 2206dc08     LIBCMTD:tidtable.obj
 0003:00001c0c       ?__pInconsistency@@3P6AXXZA 2206dc0c     LIBCMTD:hooks.obj
 0003:00001c24       ?_pfnDumpClient@@3P6AXPAXI@ZA 2206dc24     LIBCMTD:dbgheap.obj
 0003:00001c2c       ___crtDebugCheckCount      2206dc2c     LIBCMTD:dbgheap.obj
 0003:00001c34       __umaskval                 2206dc34     LIBCMTD:crt0dat.obj
 0003:00001c38       ___argc                    2206dc38     LIBCMTD:crt0dat.obj
 0003:00001c3c       ___argv                    2206dc3c     LIBCMTD:crt0dat.obj
 0003:00001c40       ___wargv                   2206dc40     LIBCMTD:crt0dat.obj
 0003:00001c44       __environ                  2206dc44     LIBCMTD:crt0dat.obj
 0003:00001c48       ___initenv                 2206dc48     LIBCMTD:crt0dat.obj
 0003:00001c4c       __wenviron                 2206dc4c     LIBCMTD:crt0dat.obj
 0003:00001c50       ___winitenv                2206dc50     LIBCMTD:crt0dat.obj
 0003:00001c54       __pgmptr                   2206dc54     LIBCMTD:crt0dat.obj
 0003:00001c58       __wpgmptr                  2206dc58     LIBCMTD:crt0dat.obj
 0003:00001c5c       __exitflag                 2206dc5c     LIBCMTD:crt0dat.obj
 0003:00001c60       __C_Termination_Done       2206dc60     LIBCMTD:crt0dat.obj
 0003:00001c64       __C_Exit_Done              2206dc64     LIBCMTD:crt0dat.obj
 0003:00001d78       __crtheap                  2206dd78     LIBCMTD:heapinit.obj
 0003:00001efc       ?pArgList@UnDecorator@@0PAVReplicator@@A 2206defc     LIBCMTD:undname.obj
 0003:00001f00       ?pZNameList@UnDecorator@@0PAVReplicator@@A 2206df00     LIBCMTD:undname.obj
 0003:00001f04       ?pTemplateArgList@UnDecorator@@0PAVReplicator@@A 2206df04     LIBCMTD:undname.obj
 0003:00001f08       ?gName@UnDecorator@@0PBDB  2206df08     LIBCMTD:undname.obj
 0003:00001f0c       ?name@UnDecorator@@0PBDB   2206df0c     LIBCMTD:undname.obj
 0003:00001f10       ?outputString@UnDecorator@@0PADA 2206df10     LIBCMTD:undname.obj
 0003:00001f14       ?maxStringLength@UnDecorator@@0HA 2206df14     LIBCMTD:undname.obj
 0003:00001f18       ?disableFlags@UnDecorator@@0KA 2206df18     LIBCMTD:undname.obj
 0003:00001f1c       ?m_pGetParameter@UnDecorator@@0P6APADJ@ZA 2206df1c     LIBCMTD:undname.obj
 0003:00001f20       ?fExplicitTemplateParams@UnDecorator@@0_NA 2206df20     LIBCMTD:undname.obj
 0003:00001f21       ?fGetTemplateArgumentList@UnDecorator@@0_NA 2206df21     LIBCMTD:undname.obj
 0003:00001f78       ?nodes@?1??make@DNameStatusNode@@SAPAV2@W4DNameStatus@@@Z@4PAV2@A 2206df78     LIBCMTD:undname.obj
 0003:00001fa8       ??_B?1??make@DNameStatusNode@@SAPAV1@W4DNameStatus@@@Z@51 2206dfa8     LIBCMTD:undname.obj
 0003:00001fac       ___pInvalidArgHandler      2206dfac     LIBCMTD:invarg.obj
 0003:00001fb4       ___mbulinfo                2206dfb4     LIBCMTD:mbctype.obj
 0003:00001fc0       ___mbcodepage              2206dfc0     LIBCMTD:mbctype.obj
 0003:00001fc4       ___ismbcodepage            2206dfc4     LIBCMTD:mbctype.obj
 0003:00001fc8       ___mblcid                  2206dfc8     LIBCMTD:mbctype.obj
 0003:00001fcc       __newmode                  2206dfcc     LIBCMTD:_newmode.obj
 0003:00001fd0       ?_pnhHeap@@3P6AHI@ZA       2206dfd0     LIBCMTD:handler.obj
 0003:00002618       ___pPurecall               2206e618     LIBCMTD:inithelp.obj
 0003:00002630       ___lconv_static_null       2206e630     LIBCMTD:lconv.obj
 0003:00002634       ___lconv_static_W_null     2206e634     LIBCMTD:lconv.obj
 0003:0000264c       ___locale_changed          2206e64c     LIBCMTD:setlocal.obj
 0003:00002650       __cflush                   2206e650     LIBCMTD:_file.obj
 0003:00002658       __stdbuf                   2206e658     LIBCMTD:_sftbuf.obj
 0003:00002660       ___piob                    2206e660     <common>
 0003:00002680       __bufin                    2206e680     <common>
 0003:00003680       __nstream                  2206f680     <common>
 0003:00003684       ___setlc_active            2206f684     <common>
 0003:00003688       ___unguarded_readlc_active 2206f688     <common>
 0003:0000368c       __pfnReportHook            2206f68c     <common>
 0003:00003690       __pReportHookListW         2206f690     <common>
 0003:00003694       __pReportHookList          2206f694     <common>
 0003:00003698       __debugger_hook_dummy      2206f698     <common>
 0003:0000369c       __nhandle                  2206f69c     <common>
 0003:000036a0       ___pioinfo                 2206f6a0     <common>
 0003:000037a0       ___env_initialized         2206f7a0     <common>
 0003:000037a4       ___onexitend               2206f7a4     <common>
 0003:000037a8       ___onexitbegin             2206f7a8     <common>
 0003:000037ac       ___mbctype_initialized     2206f7ac     <common>
 0003:000037b0       __FPinit                   2206f7b0     <common>
 0003:000037b4       ___dyn_tls_init_callback   2206f7b4     <common>
 0003:000037b8       ___sse2_available          2206f7b8     <common>
 0003:000037bc       __acmdln                   2206f7bc     <common>

 entry point at        0001:0001aff0

 Static symbols

 0001:0000a970       ?_SpecialKeyState@@YAFXZ   2200b970 f   dsofcontrol.obj
 0001:00016810       ?RegRecursiveDeleteKey@@YAJPAUHKEY__@@PBD@Z 22017810 f   mainentry.obj
 0001:000197c0       _cmpBYTE                   2201a7c0 f   LIBCMTD:memcmp.obj
 0001:000197f0       _cmpResult                 2201a7f0 f   LIBCMTD:memcmp.obj
 0001:00019810       _unaligned_memcmp          2201a810 f   LIBCMTD:memcmp.obj
 0001:00019f20       _cmpWORD                   2201af20 f   LIBCMTD:memcmp.obj
 0001:00019fa0       _cmpDWORD                  2201afa0 f   LIBCMTD:memcmp.obj
 0001:0001a460       ?CatchGuardHandler@@YA?AW4_EXCEPTION_DISPOSITION@@PAUEHExceptionRecord@@PAUCatchGuardRN@@PAX2@Z 2201b460 f   LIBCMTD:_trnsctrl_.obj
 0001:0001a5a0       ?TranslatorGuardHandler@@YA?AW4_EXCEPTION_DISPOSITION@@PAUEHExceptionRecord@@PAUTranslatorGuardRN@@PAX2@Z 2201b5a0 f   LIBCMTD:_trnsctrl_.obj
 0001:0001a950       _ValidateLocalCookies      2201b950 f   LIBCMTD:chandler4.obj
 0001:0001b020       ___DllMainCRTStartup       2201c020 f   LIBCMTD:dllcrt0.obj
 0001:0001bba0       ?FindHandler@@YAXPAUEHExceptionRecord@@PAUEHRegistrationNode@@PAU_CONTEXT@@PAXPBU_s_FuncInfo@@EH1@Z 2201cba0 f   LIBCMTD:frame.obj
 0001:0001c0f0       ?FindHandlerForForeignException@@YAXPAUEHExceptionRecord@@PAUEHRegistrationNode@@PAU_CONTEXT@@PAXPBU_s_FuncInfo@@HH1@Z 2201d0f0 f   LIBCMTD:frame.obj
 0001:0001c530       ?CatchIt@@YAXPAUEHExceptionRecord@@PAUEHRegistrationNode@@PAU_CONTEXT@@PAXPBU_s_FuncInfo@@PBU_s_HandlerType@@PBU_s_CatchableType@@PBU_s_TryBlockMapEntry@@H1E@Z 2201d530 f   LIBCMTD:frame.obj
 0001:0001c5f0       ?CallCatchBlock@@YAPAXPAUEHExceptionRecord@@PAUEHRegistrationNode@@PAU_CONTEXT@@PBU_s_FuncInfo@@PAXHK@Z 2201d5f0 f   LIBCMTD:frame.obj
 0001:0001c880       ?ExFilterRethrow@@YAHPAU_EXCEPTION_POINTERS@@@Z 2201d880 f   LIBCMTD:frame.obj
 0001:0001d4f0       ?IsInExceptionSpec@@YAEPAUEHExceptionRecord@@PBU_s_ESTypeList@@@Z 2201e4f0 f   LIBCMTD:frame.obj
 0001:0001d5b0       ?CallUnexpected@@YAXPBU_s_ESTypeList@@@Z 2201e5b0 f   LIBCMTD:frame.obj
 0001:0001d5fe       __catch$?CallUnexpected@@YAXPBU_s_ESTypeList@@@Z$0 2201e5fe f   LIBCMTD:frame.obj
 0001:0001d640       ?Is_bad_exception_allowed@@YAEPBU_s_ESTypeList@@@Z 2201e640 f   LIBCMTD:frame.obj
 0001:0001e1a0       __unwind_handler4          2201f1a0 f   LIBCMTD:exsup4.obj
 0001:0001e710       __nh_malloc_dbg_impl       2201f710 f   LIBCMTD:dbgheap.obj
 0001:0001e7b0       __heap_alloc_dbg_impl      2201f7b0 f   LIBCMTD:dbgheap.obj
 0001:0001ed80       _realloc_help              2201fd80 f   LIBCMTD:dbgheap.obj
 0001:0001fe40       _CheckBytes                22020e40 f   LIBCMTD:dbgheap.obj
 0001:00020d20       ?_CrtMemDumpAllObjectsSince_stat@@YAXPBU_CrtMemState@@PAUlocaleinfo_struct@@@Z 22021d20 f   LIBCMTD:dbgheap.obj
 0001:00021030       __printMemBlockData        22022030 f   LIBCMTD:dbgheap.obj
 0001:00021f90       _doexit                    22022f90 f   LIBCMTD:crt0dat.obj
 0001:00022280       __initterm                 22023280 f   LIBCMTD:crt0dat.obj
 0001:00022c50       _parse_cmdline             22023c50 f   LIBCMTD:stdargv.obj
 0001:000234c0       _xcptlookup                220244c0 f   LIBCMTD:winxfltr.obj
 0001:0002db60       ?und_strlen@@YAIPBD@Z      2202eb60 f   LIBCMTD:undname.obj
 0001:0002dba0       ?und_memcpy@@YAXPADPBDI@Z  2202eba0 f   LIBCMTD:undname.obj
 0001:0002dbe0       ?und_strncmp@@YAIPBD0I@Z   2202ebe0 f   LIBCMTD:undname.obj
 0001:0002e920       __unwind_handler           2202f920 f   LIBCMTD:exsup.obj
 0001:0002f480       ?getSystemCP@@YAHH@Z       22030480 f   LIBCMTD:mbctype.obj
 0001:0002f8e0       ?CPtoLCID@@YAHH@Z          220308e0 f   LIBCMTD:mbctype.obj
 0001:0002f960       ?setSBCS@@YAXPAUthreadmbcinfostruct@@@Z 22030960 f   LIBCMTD:mbctype.obj
 0001:0002fa40       ?setSBUpLow@@YAXPAUthreadmbcinfostruct@@@Z 22030a40 f   LIBCMTD:mbctype.obj
 0001:00030ac0       __is_LFH_enabled           22031ac0 f   LIBCMTD:expand.obj
 0001:000312c0       __onexit_nolock            220322c0 f   LIBCMTD:onexit.obj
 0001:00031c90       _ctrlevent_capture@4       22032c90 f   LIBCMTD:winsig.obj
 0001:00032090       _siglookup                 22033090 f   LIBCMTD:winsig.obj
 0001:00032960       ?x_ismbbtype_l@@YAHPAUlocaleinfo_struct@@IHH@Z 22033960 f   LIBCMTD:ismbbyte.obj
 0001:00034b80       __get_lc_time              22035b80 f   LIBCMTD:inittime.obj
 0001:00036160       _fix_grouping              22037160 f   LIBCMTD:initnum.obj
 0001:00036800       _fix_grouping              22037800 f   LIBCMTD:initmon.obj
 0001:00036b40       ?__crtLCMapStringA_stat@@YAHPAUlocaleinfo_struct@@KKPBDHPADHHH@Z 22037b40 f   LIBCMTD:a_map.obj
 0001:00036e70       ?strncnt@@YAHPBDH@Z        22037e70 f   LIBCMTD:a_map.obj
 0001:00036f20       ?__crtGetStringTypeA_stat@@YAHPAUlocaleinfo_struct@@KPBDHPAGHHH@Z 22037f20 f   LIBCMTD:a_str.obj
 0001:000387d0       _write_char                220397d0 f   LIBCMTD:output.obj
 0001:00038880       _write_multi_char          22039880 f   LIBCMTD:output.obj
 0001:000388c0       _write_string              220398c0 f   LIBCMTD:output.obj
 0001:0003a000       __copytlocinfo_nolock      2203b000 f   LIBCMTD:setlocal.obj
 0001:0003a400       _sync_legacy_variables_lk  2203b400 f   LIBCMTD:setlocal.obj
 0001:0003a440       __setlocale_nolock         2203b440 f   LIBCMTD:setlocal.obj
 0001:0003a830       __setlocale_set_cat        2203b830 f   LIBCMTD:setlocal.obj
 0001:0003ad60       __setlocale_get_all        2203bd60 f   LIBCMTD:setlocal.obj
 0001:0003c360       ?__crtGetLocaleInfoA_stat@@YAHPAUlocaleinfo_struct@@KKPADH@Z 2203d360 f   LIBCMTD:a_loc.obj
 0001:0003d020       _xtoa_s@20                 2203e020 f   LIBCMTD:xtoas.obj
 0001:0003d440       @x64toa_s@24               2203e440 f   LIBCMTD:xtoas.obj
 0001:0003dcf0       ?wcsncnt@@YAIPB_WI@Z       2203ecf0 f   LIBCMTD:wcstombs.obj
 0001:0003eb70       _xtow_s@20                 2203fb70 f   LIBCMTD:xtows.obj
 0001:0003efb0       @x64tow_s@24               2203ffb0 f   LIBCMTD:xtows.obj
 0001:00040440       _write_char                22041440 f   LIBCMTD:woutput.obj
 0001:000404a0       _write_multi_char          220414a0 f   LIBCMTD:woutput.obj
 0001:000404e0       _write_string              220414e0 f   LIBCMTD:woutput.obj
 0001:00040980       ?strtoxl@@YAKPAUlocaleinfo_struct@@PBDPAPBDHH@Z 22041980 f   LIBCMTD:strtol.obj
 0001:00040f60       ?strtoxq@@YA_KPAUlocaleinfo_struct@@PBDPAPBDHH@Z 22041f60 f   LIBCMTD:strtoq.obj
 0001:00046e20       _write_char                22047e20 f   LIBCMTD:outputp.obj
 0001:00046ed0       _write_multi_char          22047ed0 f   LIBCMTD:outputp.obj
 0001:00046f10       _write_string              22047f10 f   LIBCMTD:outputp.obj
 0001:00048400       _write_char                22049400 f   LIBCMTD:outputs.obj
 0001:000484b0       _write_multi_char          220494b0 f   LIBCMTD:outputs.obj
 0001:000484f0       _write_string              220494f0 f   LIBCMTD:outputs.obj
 0001:00049240       _TranslateName             2204a240 f   LIBCMTD:getqloc.obj
 0001:000492d0       _GetLcidFromLangCountry    2204a2d0 f   LIBCMTD:getqloc.obj
 0001:00049390       _LangCountryEnumProc@4     2204a390 f   LIBCMTD:getqloc.obj
 0001:000497d0       _GetLcidFromLanguage       2204a7d0 f   LIBCMTD:getqloc.obj
 0001:00049850       _LanguageEnumProc@4        2204a850 f   LIBCMTD:getqloc.obj
 0001:000499f0       _GetLcidFromCountry        2204a9f0 f   LIBCMTD:getqloc.obj
 0001:00049a40       _CountryEnumProc@4         2204aa40 f   LIBCMTD:getqloc.obj
 0001:00049b40       _GetLcidFromDefault        2204ab40 f   LIBCMTD:getqloc.obj
 0001:00049b80       _ProcessCodePage           2204ab80 f   LIBCMTD:getqloc.obj
 0001:00049c30       _TestDefaultCountry        2204ac30 f   LIBCMTD:getqloc.obj
 0001:00049c80       _TestDefaultLanguage       2204ac80 f   LIBCMTD:getqloc.obj
 0001:00049d00       _LcidFromHexString         2204ad00 f   LIBCMTD:getqloc.obj
 0001:00049d80       _GetPrimaryLen             2204ad80 f   LIBCMTD:getqloc.obj
 0001:0004afe0       _write_char                2204bfe0 f   LIBCMTD:woutputs.obj
 0001:0004b040       _write_multi_char          2204c040 f   LIBCMTD:woutputs.obj
 0001:0004b080       _write_string              2204c080 f   LIBCMTD:woutputs.obj
 0001:0004e9d0       _write_char                2204f9d0 f   LIBCMTD:woutputp.obj
 0001:0004ea30       _write_multi_char          2204fa30 f   LIBCMTD:woutputp.obj
 0001:0004ea70       _write_string              2204fa70 f   LIBCMTD:woutputp.obj
 0001:0004fef0       _flsall                    22050ef0 f   LIBCMTD:fflush.obj
 0001:00050ba0       ?wcstoxl@@YAKPB_WPAPB_WHH@Z 22051ba0 f   LIBCMTD:wcstol.obj
 0001:000521b0       __unwindfunclet$?CreateInstance@CDsoFramerClassFactory@@UAGJPAUIUnknown@@ABU_GUID@@PAPAX@Z$0 220531b0 f   classfactory.obj
 0001:000521bb       __ehhandler$?CreateInstance@CDsoFramerClassFactory@@UAGJPAUIUnknown@@ABU_GUID@@PAPAX@Z 220531bb f   classfactory.obj
 0001:000521e0       __unwindfunclet$??0CDsoFramerControl@@QAE@PAUIUnknown@@@Z$0 220531e0 f   dsofcontrol.obj
 0001:000521eb       __unwindfunclet$??0CDsoFramerControl@@QAE@PAUIUnknown@@@Z$1 220531eb f   dsofcontrol.obj
 0001:000521f6       __unwindfunclet$??0CDsoFramerControl@@QAE@PAUIUnknown@@@Z$2 220531f6 f   dsofcontrol.obj
 0001:00052201       __unwindfunclet$??0CDsoFramerControl@@QAE@PAUIUnknown@@@Z$3 22053201 f   dsofcontrol.obj
 0001:0005220c       __unwindfunclet$??0CDsoFramerControl@@QAE@PAUIUnknown@@@Z$4 2205320c f   dsofcontrol.obj
 0001:00052217       __unwindfunclet$??0CDsoFramerControl@@QAE@PAUIUnknown@@@Z$5 22053217 f   dsofcontrol.obj
 0001:00052222       __unwindfunclet$??0CDsoFramerControl@@QAE@PAUIUnknown@@@Z$6 22053222 f   dsofcontrol.obj
 0001:0005222d       __unwindfunclet$??0CDsoFramerControl@@QAE@PAUIUnknown@@@Z$7 2205322d f   dsofcontrol.obj
 0001:00052238       __unwindfunclet$??0CDsoFramerControl@@QAE@PAUIUnknown@@@Z$8 22053238 f   dsofcontrol.obj
 0001:00052243       __unwindfunclet$??0CDsoFramerControl@@QAE@PAUIUnknown@@@Z$9 22053243 f   dsofcontrol.obj
 0001:0005224e       __unwindfunclet$??0CDsoFramerControl@@QAE@PAUIUnknown@@@Z$10 2205324e f   dsofcontrol.obj
 0001:00052259       __unwindfunclet$??0CDsoFramerControl@@QAE@PAUIUnknown@@@Z$11 22053259 f   dsofcontrol.obj
 0001:00052264       __unwindfunclet$??0CDsoFramerControl@@QAE@PAUIUnknown@@@Z$12 22053264 f   dsofcontrol.obj
 0001:0005226f       __unwindfunclet$??0CDsoFramerControl@@QAE@PAUIUnknown@@@Z$13 2205326f f   dsofcontrol.obj
 0001:0005227a       __unwindfunclet$??0CDsoFramerControl@@QAE@PAUIUnknown@@@Z$14 2205327a f   dsofcontrol.obj
 0001:00052285       __unwindfunclet$??0CDsoFramerControl@@QAE@PAUIUnknown@@@Z$15 22053285 f   dsofcontrol.obj
 0001:00052290       __unwindfunclet$??0CDsoFramerControl@@QAE@PAUIUnknown@@@Z$16 22053290 f   dsofcontrol.obj
 0001:0005229e       __ehhandler$??0CDsoFramerControl@@QAE@PAUIUnknown@@@Z 2205329e f   dsofcontrol.obj
 0001:000522b9       __unwindfunclet$??1CDsoFramerControl@@QAE@XZ$0 220532b9 f   dsofcontrol.obj
 0001:000522c4       __unwindfunclet$??1CDsoFramerControl@@QAE@XZ$1 220532c4 f   dsofcontrol.obj
 0001:000522cf       __unwindfunclet$??1CDsoFramerControl@@QAE@XZ$2 220532cf f   dsofcontrol.obj
 0001:000522da       __unwindfunclet$??1CDsoFramerControl@@QAE@XZ$3 220532da f   dsofcontrol.obj
 0001:000522e5       __unwindfunclet$??1CDsoFramerControl@@QAE@XZ$4 220532e5 f   dsofcontrol.obj
 0001:000522f0       __unwindfunclet$??1CDsoFramerControl@@QAE@XZ$5 220532f0 f   dsofcontrol.obj
 0001:000522fb       __unwindfunclet$??1CDsoFramerControl@@QAE@XZ$6 220532fb f   dsofcontrol.obj
 0001:00052306       __unwindfunclet$??1CDsoFramerControl@@QAE@XZ$7 22053306 f   dsofcontrol.obj
 0001:00052311       __unwindfunclet$??1CDsoFramerControl@@QAE@XZ$8 22053311 f   dsofcontrol.obj
 0001:0005231c       __unwindfunclet$??1CDsoFramerControl@@QAE@XZ$9 2205331c f   dsofcontrol.obj
 0001:00052327       __unwindfunclet$??1CDsoFramerControl@@QAE@XZ$10 22053327 f   dsofcontrol.obj
 0001:00052332       __unwindfunclet$??1CDsoFramerControl@@QAE@XZ$11 22053332 f   dsofcontrol.obj
 0001:0005233d       __unwindfunclet$??1CDsoFramerControl@@QAE@XZ$12 2205333d f   dsofcontrol.obj
 0001:00052348       __unwindfunclet$??1CDsoFramerControl@@QAE@XZ$13 22053348 f   dsofcontrol.obj
 0001:00052353       __unwindfunclet$??1CDsoFramerControl@@QAE@XZ$14 22053353 f   dsofcontrol.obj
 0001:0005235e       __unwindfunclet$??1CDsoFramerControl@@QAE@XZ$15 2205335e f   dsofcontrol.obj
 0001:00052369       __unwindfunclet$??1CDsoFramerControl@@QAE@XZ$16 22053369 f   dsofcontrol.obj
 0001:00052377       __unwindfunclet$??1CDsoFramerControl@@QAE@XZ$17 22053377 f   dsofcontrol.obj
 0001:00052385       __ehhandler$??1CDsoFramerControl@@QAE@XZ 22053385 f   dsofcontrol.obj
 0001:000523a0       __unwindfunclet$?RegisterFramerControl@CDsoFrameHookManager@@SGPAV1@PAUHWND__@@0@Z$0 220533a0 f   dsofcontrol.obj
 0001:000523ab       __ehhandler$?RegisterFramerControl@CDsoFrameHookManager@@SGPAV1@PAUHWND__@@0@Z 220533ab f   dsofcontrol.obj
 0001:000523c6       __unwindfunclet$?AttachToFrameWindow@CDsoFrameWindowHook@@SGPAV1@PAUHWND__@@@Z$0 220533c6 f   dsofcontrol.obj
 0001:000523d1       __ehhandler$?AttachToFrameWindow@CDsoFrameWindowHook@@SGPAV1@PAUHWND__@@@Z 220533d1 f   dsofcontrol.obj
 0001:000523f0       __unwindfunclet$??0CDsoDocObject@@QAE@XZ$0 220533f0 f   dsofdocobj.obj
 0001:000523fb       __unwindfunclet$??0CDsoDocObject@@QAE@XZ$1 220533fb f   dsofdocobj.obj
 0001:00052406       __unwindfunclet$??0CDsoDocObject@@QAE@XZ$2 22053406 f   dsofdocobj.obj
 0001:00052411       __unwindfunclet$??0CDsoDocObject@@QAE@XZ$3 22053411 f   dsofdocobj.obj
 0001:0005241c       __unwindfunclet$??0CDsoDocObject@@QAE@XZ$4 2205341c f   dsofdocobj.obj
 0001:00052427       __unwindfunclet$??0CDsoDocObject@@QAE@XZ$5 22053427 f   dsofdocobj.obj
 0001:00052432       __unwindfunclet$??0CDsoDocObject@@QAE@XZ$6 22053432 f   dsofdocobj.obj
 0001:0005243d       __unwindfunclet$??0CDsoDocObject@@QAE@XZ$7 2205343d f   dsofdocobj.obj
 0001:00052448       __ehhandler$??0CDsoDocObject@@QAE@XZ 22053448 f   dsofdocobj.obj
 0001:00052463       __unwindfunclet$??1CDsoDocObject@@QAE@XZ$0 22053463 f   dsofdocobj.obj
 0001:0005246e       __unwindfunclet$??1CDsoDocObject@@QAE@XZ$1 2205346e f   dsofdocobj.obj
 0001:00052479       __unwindfunclet$??1CDsoDocObject@@QAE@XZ$2 22053479 f   dsofdocobj.obj
 0001:00052484       __unwindfunclet$??1CDsoDocObject@@QAE@XZ$3 22053484 f   dsofdocobj.obj
 0001:0005248f       __unwindfunclet$??1CDsoDocObject@@QAE@XZ$4 2205348f f   dsofdocobj.obj
 0001:0005249a       __unwindfunclet$??1CDsoDocObject@@QAE@XZ$5 2205349a f   dsofdocobj.obj
 0001:000524a5       __unwindfunclet$??1CDsoDocObject@@QAE@XZ$6 220534a5 f   dsofdocobj.obj
 0001:000524b0       __unwindfunclet$??1CDsoDocObject@@QAE@XZ$7 220534b0 f   dsofdocobj.obj
 0001:000524bb       __unwindfunclet$??1CDsoDocObject@@QAE@XZ$8 220534bb f   dsofdocobj.obj
 0001:000524c6       __ehhandler$??1CDsoDocObject@@QAE@XZ 220534c6 f   dsofdocobj.obj
 0001:000524e1       __unwindfunclet$?CreateInstance@CDsoDocObject@@SGPAV1@PAUIDsoDocObjectSite@@@Z$0 220534e1 f   dsofdocobj.obj
 0001:000524ec       __ehhandler$?CreateInstance@CDsoDocObject@@SGPAV1@PAUIDsoDocObjectSite@@@Z 220534ec f   dsofdocobj.obj
 0001:00052510       __ehhandler$?CallUnexpected@@YAXPBU_s_ESTypeList@@@Z 22053510 f   LIBCMTD:frame.obj
 0001:00052530       __unwindfunclet$?make@DNameStatusNode@@SAPAV1@W4DNameStatus@@@Z$0 22053530 f   LIBCMTD:undname.obj
 0001:0005253e       __ehhandler$?make@DNameStatusNode@@SAPAV1@W4DNameStatus@@@Z 2205353e f   LIBCMTD:undname.obj
 0001:00052560       __unwindfunclet$?getSystemCP@@YAHH@Z$0 22053560 f   LIBCMTD:mbctype.obj
 0001:00052568       __ehhandler$?getSystemCP@@YAHH@Z 22053568 f   LIBCMTD:mbctype.obj
 0001:00052590       __unwindfunclet$?x_ismbbtype_l@@YAHPAUlocaleinfo_struct@@IHH@Z$0 22053590 f   LIBCMTD:ismbbyte.obj
 0001:00052598       __ehhandler$?x_ismbbtype_l@@YAHPAUlocaleinfo_struct@@IHH@Z 22053598 f   LIBCMTD:ismbbyte.obj
 0001:000525c0       __unwindfunclet$?strtoxl@@YAKPAUlocaleinfo_struct@@PBDPAPBDHH@Z$0 220535c0 f   LIBCMTD:strtol.obj
 0001:000525c8       __ehhandler$?strtoxl@@YAKPAUlocaleinfo_struct@@PBDPAPBDHH@Z 220535c8 f   LIBCMTD:strtol.obj
 0001:000525f0       __unwindfunclet$?strtoxq@@YA_KPAUlocaleinfo_struct@@PBDPAPBDHH@Z$0 220535f0 f   LIBCMTD:strtoq.obj
 0001:000525f8       __ehhandler$?strtoxq@@YA_KPAUlocaleinfo_struct@@PBDPAPBDHH@Z 220535f8 f   LIBCMTD:strtoq.obj
